;***************************************************************
;* TMS320C2000 G3 C/C++ Codegen                               PC v22.6.2.LTS *
;* Date/Time created: Sat Dec 27 15:00:17 2025                 *
;***************************************************************
	.compiler_opts --abi=eabi --cla_support=cla1 --diag_wrap=off --float_support=fpu32 --hll_source=on --mem_model:code=flat --mem_model:data=large --object_format=elf --quiet --silicon_errata_fpu1_workaround=off --silicon_version=28 --symdebug:dwarf --symdebug:dwarf_version=4 --tmu_support=tmu0 --vcu_support=vcu2 
	.asg	XAR2, FP

$C$DW$CU	.dwtag  DW_TAG_compile_unit
	.dwattr $C$DW$CU, DW_AT_name("../sources/dual_axis_servo_drive.c")
	.dwattr $C$DW$CU, DW_AT_producer("TI TMS320C2000 G3 C/C++ Codegen PC v22.6.2.LTS Copyright (c) 1996-2018 Texas Instruments Incorporated")
	.dwattr $C$DW$CU, DW_AT_TI_version(0x01)
	.dwattr $C$DW$CU, DW_AT_comp_dir("C:\Users\JUNLI\workspace_ccstheia\dual_axis_servo_drive_fcl_qep_f2837x\F2837x_RAM")

$C$DW$1	.dwtag  DW_TAG_subprogram
	.dwattr $C$DW$1, DW_AT_name("FCL_runPICtrl_M1")
	.dwattr $C$DW$1, DW_AT_linkage_name("FCL_runPICtrl_M1")
	.dwattr $C$DW$1, DW_AT_declaration
	.dwattr $C$DW$1, DW_AT_external
	.dwattr $C$DW$1, DW_AT_decl_file("D:/TI/c2000/C2000Ware_MotorControl_SDK_5_04_00_00/libraries/fcl/include/fcl_cpu_cla_dm.h")
	.dwattr $C$DW$1, DW_AT_decl_line(0x1bb)
	.dwattr $C$DW$1, DW_AT_decl_column(0x0d)
$C$DW$2	.dwtag  DW_TAG_formal_parameter
	.dwattr $C$DW$2, DW_AT_type(*$C$DW$T$148)

	.dwendtag $C$DW$1


$C$DW$3	.dwtag  DW_TAG_subprogram
	.dwattr $C$DW$3, DW_AT_name("FCL_runPICtrlWrap_M1")
	.dwattr $C$DW$3, DW_AT_linkage_name("FCL_runPICtrlWrap_M1")
	.dwattr $C$DW$3, DW_AT_declaration
	.dwattr $C$DW$3, DW_AT_external
	.dwattr $C$DW$3, DW_AT_decl_file("D:/TI/c2000/C2000Ware_MotorControl_SDK_5_04_00_00/libraries/fcl/include/fcl_cpu_cla_dm.h")
	.dwattr $C$DW$3, DW_AT_decl_line(0x1bc)
	.dwattr $C$DW$3, DW_AT_decl_column(0x0d)
$C$DW$4	.dwtag  DW_TAG_formal_parameter
	.dwattr $C$DW$4, DW_AT_type(*$C$DW$T$148)

	.dwendtag $C$DW$3


$C$DW$5	.dwtag  DW_TAG_subprogram
	.dwattr $C$DW$5, DW_AT_name("FCL_resetController")
	.dwattr $C$DW$5, DW_AT_linkage_name("FCL_resetController")
	.dwattr $C$DW$5, DW_AT_declaration
	.dwattr $C$DW$5, DW_AT_external
	.dwattr $C$DW$5, DW_AT_decl_file("D:/TI/c2000/C2000Ware_MotorControl_SDK_5_04_00_00/libraries/fcl/include/fcl_cpu_cla_dm.h")
	.dwattr $C$DW$5, DW_AT_decl_line(0x1b9)
	.dwattr $C$DW$5, DW_AT_decl_column(0x0d)
$C$DW$6	.dwtag  DW_TAG_formal_parameter
	.dwattr $C$DW$6, DW_AT_type(*$C$DW$T$148)

	.dwendtag $C$DW$5


$C$DW$7	.dwtag  DW_TAG_subprogram
	.dwattr $C$DW$7, DW_AT_name("FCL_runPICtrl_M2")
	.dwattr $C$DW$7, DW_AT_linkage_name("FCL_runPICtrl_M2")
	.dwattr $C$DW$7, DW_AT_declaration
	.dwattr $C$DW$7, DW_AT_external
	.dwattr $C$DW$7, DW_AT_decl_file("D:/TI/c2000/C2000Ware_MotorControl_SDK_5_04_00_00/libraries/fcl/include/fcl_cpu_cla_dm.h")
	.dwattr $C$DW$7, DW_AT_decl_line(0x1c0)
	.dwattr $C$DW$7, DW_AT_decl_column(0x0d)
$C$DW$8	.dwtag  DW_TAG_formal_parameter
	.dwattr $C$DW$8, DW_AT_type(*$C$DW$T$148)

	.dwendtag $C$DW$7


$C$DW$9	.dwtag  DW_TAG_subprogram
	.dwattr $C$DW$9, DW_AT_name("FCL_runPICtrlWrap_M2")
	.dwattr $C$DW$9, DW_AT_linkage_name("FCL_runPICtrlWrap_M2")
	.dwattr $C$DW$9, DW_AT_declaration
	.dwattr $C$DW$9, DW_AT_external
	.dwattr $C$DW$9, DW_AT_decl_file("D:/TI/c2000/C2000Ware_MotorControl_SDK_5_04_00_00/libraries/fcl/include/fcl_cpu_cla_dm.h")
	.dwattr $C$DW$9, DW_AT_decl_line(0x1c1)
	.dwattr $C$DW$9, DW_AT_decl_column(0x0d)
$C$DW$10	.dwtag  DW_TAG_formal_parameter
	.dwattr $C$DW$10, DW_AT_type(*$C$DW$T$148)

	.dwendtag $C$DW$9


$C$DW$11	.dwtag  DW_TAG_subprogram
	.dwattr $C$DW$11, DW_AT_name("Device_init")
	.dwattr $C$DW$11, DW_AT_linkage_name("Device_init")
	.dwattr $C$DW$11, DW_AT_declaration
	.dwattr $C$DW$11, DW_AT_external
	.dwattr $C$DW$11, DW_AT_decl_file("D:/TI/c2000/C2000Ware_MotorControl_SDK_5_04_00_00/c2000ware/device_support/f2837xd/common/include/device.h")
	.dwattr $C$DW$11, DW_AT_decl_line(0x10d)
	.dwattr $C$DW$11, DW_AT_decl_column(0x0d)
	.dwendtag $C$DW$11


$C$DW$12	.dwtag  DW_TAG_subprogram
	.dwattr $C$DW$12, DW_AT_name("HAL_setParams")
	.dwattr $C$DW$12, DW_AT_linkage_name("HAL_setParams")
	.dwattr $C$DW$12, DW_AT_declaration
	.dwattr $C$DW$12, DW_AT_external
	.dwattr $C$DW$12, DW_AT_decl_file("D:/TI/c2000/C2000Ware_MotorControl_SDK_5_04_00_00/solutions/boostxl_3phganinv/f2837x/include/dual_axis_servo_drive_hal.h")
	.dwattr $C$DW$12, DW_AT_decl_line(0x180)
	.dwattr $C$DW$12, DW_AT_decl_column(0x0d)
$C$DW$13	.dwtag  DW_TAG_formal_parameter
	.dwattr $C$DW$13, DW_AT_type(*$C$DW$T$143)

	.dwendtag $C$DW$12


$C$DW$14	.dwtag  DW_TAG_subprogram
	.dwattr $C$DW$14, DW_AT_name("HAL_setMotorParams")
	.dwattr $C$DW$14, DW_AT_linkage_name("HAL_setMotorParams")
	.dwattr $C$DW$14, DW_AT_declaration
	.dwattr $C$DW$14, DW_AT_external
	.dwattr $C$DW$14, DW_AT_decl_file("D:/TI/c2000/C2000Ware_MotorControl_SDK_5_04_00_00/solutions/boostxl_3phganinv/f2837x/include/dual_axis_servo_drive_hal.h")
	.dwattr $C$DW$14, DW_AT_decl_line(0x185)
	.dwattr $C$DW$14, DW_AT_decl_column(0x0d)
$C$DW$15	.dwtag  DW_TAG_formal_parameter
	.dwattr $C$DW$15, DW_AT_type(*$C$DW$T$129)

	.dwendtag $C$DW$14


$C$DW$16	.dwtag  DW_TAG_subprogram
	.dwattr $C$DW$16, DW_AT_name("initMotorParameters")
	.dwattr $C$DW$16, DW_AT_linkage_name("initMotorParameters")
	.dwattr $C$DW$16, DW_AT_declaration
	.dwattr $C$DW$16, DW_AT_external
	.dwattr $C$DW$16, DW_AT_decl_file("D:/TI/c2000/C2000Ware_MotorControl_SDK_5_04_00_00/solutions/common/sensored_foc/include/dual_axis_servo_drive.h")
	.dwattr $C$DW$16, DW_AT_decl_line(0xec)
	.dwattr $C$DW$16, DW_AT_decl_column(0x0d)
$C$DW$17	.dwtag  DW_TAG_formal_parameter
	.dwattr $C$DW$17, DW_AT_type(*$C$DW$T$148)

$C$DW$18	.dwtag  DW_TAG_formal_parameter
	.dwattr $C$DW$18, DW_AT_type(*$C$DW$T$129)

	.dwendtag $C$DW$16


$C$DW$19	.dwtag  DW_TAG_subprogram
	.dwattr $C$DW$19, DW_AT_name("initControlVars")
	.dwattr $C$DW$19, DW_AT_linkage_name("initControlVars")
	.dwattr $C$DW$19, DW_AT_declaration
	.dwattr $C$DW$19, DW_AT_external
	.dwattr $C$DW$19, DW_AT_decl_file("D:/TI/c2000/C2000Ware_MotorControl_SDK_5_04_00_00/solutions/common/sensored_foc/include/dual_axis_servo_drive.h")
	.dwattr $C$DW$19, DW_AT_decl_line(0xf1)
	.dwattr $C$DW$19, DW_AT_decl_column(0x0d)
$C$DW$20	.dwtag  DW_TAG_formal_parameter
	.dwattr $C$DW$20, DW_AT_type(*$C$DW$T$148)

	.dwendtag $C$DW$19


$C$DW$21	.dwtag  DW_TAG_subprogram
	.dwattr $C$DW$21, DW_AT_name("HAL_setupMotorFaultProtection")
	.dwattr $C$DW$21, DW_AT_linkage_name("HAL_setupMotorFaultProtection")
	.dwattr $C$DW$21, DW_AT_declaration
	.dwattr $C$DW$21, DW_AT_external
	.dwattr $C$DW$21, DW_AT_decl_file("D:/TI/c2000/C2000Ware_MotorControl_SDK_5_04_00_00/solutions/boostxl_3phganinv/f2837x/include/dual_axis_servo_drive_hal.h")
	.dwattr $C$DW$21, DW_AT_decl_line(0x179)
	.dwattr $C$DW$21, DW_AT_decl_column(0x0e)
$C$DW$22	.dwtag  DW_TAG_formal_parameter
	.dwattr $C$DW$22, DW_AT_type(*$C$DW$T$129)

$C$DW$23	.dwtag  DW_TAG_formal_parameter
	.dwattr $C$DW$23, DW_AT_type(*$C$DW$T$173)

	.dwendtag $C$DW$21


$C$DW$24	.dwtag  DW_TAG_subprogram
	.dwattr $C$DW$24, DW_AT_name("resetControlVars")
	.dwattr $C$DW$24, DW_AT_linkage_name("resetControlVars")
	.dwattr $C$DW$24, DW_AT_declaration
	.dwattr $C$DW$24, DW_AT_external
	.dwattr $C$DW$24, DW_AT_decl_file("D:/TI/c2000/C2000Ware_MotorControl_SDK_5_04_00_00/solutions/common/sensored_foc/include/dual_axis_servo_drive.h")
	.dwattr $C$DW$24, DW_AT_decl_line(0xf6)
	.dwattr $C$DW$24, DW_AT_decl_column(0x0d)
$C$DW$25	.dwtag  DW_TAG_formal_parameter
	.dwattr $C$DW$25, DW_AT_type(*$C$DW$T$148)

	.dwendtag $C$DW$24


$C$DW$26	.dwtag  DW_TAG_subprogram
	.dwattr $C$DW$26, DW_AT_name("DLOG_4CH_F_init")
	.dwattr $C$DW$26, DW_AT_linkage_name("DLOG_4CH_F_init")
	.dwattr $C$DW$26, DW_AT_declaration
	.dwattr $C$DW$26, DW_AT_external
	.dwattr $C$DW$26, DW_AT_decl_file("D:/TI/c2000/C2000Ware_MotorControl_SDK_5_04_00_00/libraries/utilities/datalog/include/dlog_4ch_f.h")
	.dwattr $C$DW$26, DW_AT_decl_line(0x4e)
	.dwattr $C$DW$26, DW_AT_decl_column(0x06)
$C$DW$27	.dwtag  DW_TAG_formal_parameter
	.dwattr $C$DW$27, DW_AT_type(*$C$DW$T$121)

	.dwendtag $C$DW$26


$C$DW$28	.dwtag  DW_TAG_subprogram
	.dwattr $C$DW$28, DW_AT_name("HAL_setupInterrupts")
	.dwattr $C$DW$28, DW_AT_linkage_name("HAL_setupInterrupts")
	.dwattr $C$DW$28, DW_AT_declaration
	.dwattr $C$DW$28, DW_AT_external
	.dwattr $C$DW$28, DW_AT_decl_file("D:/TI/c2000/C2000Ware_MotorControl_SDK_5_04_00_00/solutions/boostxl_3phganinv/f2837x/include/dual_axis_servo_drive_hal.h")
	.dwattr $C$DW$28, DW_AT_decl_line(0x12c)
	.dwattr $C$DW$28, DW_AT_decl_column(0x0d)
$C$DW$29	.dwtag  DW_TAG_formal_parameter
	.dwattr $C$DW$29, DW_AT_type(*$C$DW$T$129)

	.dwendtag $C$DW$28


$C$DW$30	.dwtag  DW_TAG_subprogram
	.dwattr $C$DW$30, DW_AT_name("runOffsetsCalculation")
	.dwattr $C$DW$30, DW_AT_linkage_name("runOffsetsCalculation")
	.dwattr $C$DW$30, DW_AT_declaration
	.dwattr $C$DW$30, DW_AT_external
	.dwattr $C$DW$30, DW_AT_decl_file("D:/TI/c2000/C2000Ware_MotorControl_SDK_5_04_00_00/solutions/common/sensored_foc/include/dual_axis_servo_drive.h")
	.dwattr $C$DW$30, DW_AT_decl_line(0xfb)
	.dwattr $C$DW$30, DW_AT_decl_column(0x0d)
$C$DW$31	.dwtag  DW_TAG_formal_parameter
	.dwattr $C$DW$31, DW_AT_type(*$C$DW$T$148)

	.dwendtag $C$DW$30


$C$DW$32	.dwtag  DW_TAG_subprogram
	.dwattr $C$DW$32, DW_AT_name("HAL_enableInterrupts")
	.dwattr $C$DW$32, DW_AT_linkage_name("HAL_enableInterrupts")
	.dwattr $C$DW$32, DW_AT_declaration
	.dwattr $C$DW$32, DW_AT_external
	.dwattr $C$DW$32, DW_AT_decl_file("D:/TI/c2000/C2000Ware_MotorControl_SDK_5_04_00_00/solutions/boostxl_3phganinv/f2837x/include/dual_axis_servo_drive_hal.h")
	.dwattr $C$DW$32, DW_AT_decl_line(0x111)
	.dwattr $C$DW$32, DW_AT_decl_column(0x0d)
$C$DW$33	.dwtag  DW_TAG_formal_parameter
	.dwattr $C$DW$33, DW_AT_type(*$C$DW$T$129)

	.dwendtag $C$DW$32


$C$DW$34	.dwtag  DW_TAG_subprogram
	.dwattr $C$DW$34, DW_AT_name("DLOG_4CH_F_FUNC")
	.dwattr $C$DW$34, DW_AT_linkage_name("DLOG_4CH_F_FUNC")
	.dwattr $C$DW$34, DW_AT_declaration
	.dwattr $C$DW$34, DW_AT_external
	.dwattr $C$DW$34, DW_AT_decl_file("D:/TI/c2000/C2000Ware_MotorControl_SDK_5_04_00_00/libraries/utilities/datalog/include/dlog_4ch_f.h")
	.dwattr $C$DW$34, DW_AT_decl_line(0x4f)
	.dwattr $C$DW$34, DW_AT_decl_column(0x06)
$C$DW$35	.dwtag  DW_TAG_formal_parameter
	.dwattr $C$DW$35, DW_AT_type(*$C$DW$T$121)

	.dwendtag $C$DW$34


$C$DW$36	.dwtag  DW_TAG_subprogram
	.dwattr $C$DW$36, DW_AT_name("HAL_setupCMPSS_DACValue")
	.dwattr $C$DW$36, DW_AT_linkage_name("HAL_setupCMPSS_DACValue")
	.dwattr $C$DW$36, DW_AT_declaration
	.dwattr $C$DW$36, DW_AT_external
	.dwattr $C$DW$36, DW_AT_decl_file("D:/TI/c2000/C2000Ware_MotorControl_SDK_5_04_00_00/solutions/boostxl_3phganinv/f2837x/include/dual_axis_servo_drive_hal.h")
	.dwattr $C$DW$36, DW_AT_decl_line(0x15f)
	.dwattr $C$DW$36, DW_AT_decl_column(0x0d)
$C$DW$37	.dwtag  DW_TAG_formal_parameter
	.dwattr $C$DW$37, DW_AT_type(*$C$DW$T$129)

$C$DW$38	.dwtag  DW_TAG_formal_parameter
	.dwattr $C$DW$38, DW_AT_type(*$C$DW$T$170)

$C$DW$39	.dwtag  DW_TAG_formal_parameter
	.dwattr $C$DW$39, DW_AT_type(*$C$DW$T$170)

	.dwendtag $C$DW$36


$C$DW$40	.dwtag  DW_TAG_subprogram
	.dwattr $C$DW$40, DW_AT_name("SysCtl_delay")
	.dwattr $C$DW$40, DW_AT_linkage_name("SysCtl_delay")
	.dwattr $C$DW$40, DW_AT_declaration
	.dwattr $C$DW$40, DW_AT_external
	.dwattr $C$DW$40, DW_AT_decl_file("D:\TI\c2000\C2000Ware_MotorControl_SDK_5_04_00_00\c2000ware\driverlib\f2837xd\driverlib\sysctl.h")
	.dwattr $C$DW$40, DW_AT_decl_line(0xcd7)
	.dwattr $C$DW$40, DW_AT_decl_column(0x01)
$C$DW$41	.dwtag  DW_TAG_formal_parameter
	.dwattr $C$DW$41, DW_AT_type(*$C$DW$T$22)

	.dwendtag $C$DW$40

	.global	||serialCommsTimer||
	.data
	.align	1
	.elfsym	||serialCommsTimer||,SYM_SIZE(1),SYM_BLOCKED(1)
||serialCommsTimer||:
	.bits		0,16
			; serialCommsTimer @ 0

$C$DW$42	.dwtag  DW_TAG_variable
	.dwattr $C$DW$42, DW_AT_name("serialCommsTimer")
	.dwattr $C$DW$42, DW_AT_linkage_name("serialCommsTimer")
	.dwattr $C$DW$42, DW_AT_location[DW_OP_addr ||serialCommsTimer||]
	.dwattr $C$DW$42, DW_AT_type(*$C$DW$T$45)
	.dwattr $C$DW$42, DW_AT_external
	.dwattr $C$DW$42, DW_AT_decl_file("../sources/dual_axis_servo_drive.c")
	.dwattr $C$DW$42, DW_AT_decl_line(0x86)
	.dwattr $C$DW$42, DW_AT_decl_column(0x0a)

	.global	||clkPrescale||
	.data
	.align	1
	.elfsym	||clkPrescale||,SYM_SIZE(1),SYM_BLOCKED(1)
||clkPrescale||:
	.bits		0x14,16
			; clkPrescale @ 0

$C$DW$43	.dwtag  DW_TAG_variable
	.dwattr $C$DW$43, DW_AT_name("clkPrescale")
	.dwattr $C$DW$43, DW_AT_linkage_name("clkPrescale")
	.dwattr $C$DW$43, DW_AT_location[DW_OP_addr ||clkPrescale||]
	.dwattr $C$DW$43, DW_AT_type(*$C$DW$T$45)
	.dwattr $C$DW$43, DW_AT_external
	.dwattr $C$DW$43, DW_AT_decl_file("../sources/dual_axis_servo_drive.c")
	.dwattr $C$DW$43, DW_AT_decl_line(0x9a)
	.dwattr $C$DW$43, DW_AT_decl_column(0x0a)

	.global	||sampWin||
	.data
	.align	1
	.elfsym	||sampWin||,SYM_SIZE(1),SYM_BLOCKED(1)
||sampWin||:
	.bits		0x1e,16
			; sampWin @ 0

$C$DW$44	.dwtag  DW_TAG_variable
	.dwattr $C$DW$44, DW_AT_name("sampWin")
	.dwattr $C$DW$44, DW_AT_linkage_name("sampWin")
	.dwattr $C$DW$44, DW_AT_location[DW_OP_addr ||sampWin||]
	.dwattr $C$DW$44, DW_AT_type(*$C$DW$T$45)
	.dwattr $C$DW$44, DW_AT_external
	.dwattr $C$DW$44, DW_AT_decl_file("../sources/dual_axis_servo_drive.c")
	.dwattr $C$DW$44, DW_AT_decl_line(0x9b)
	.dwattr $C$DW$44, DW_AT_decl_column(0x0a)

	.global	||thresh||
	.data
	.align	1
	.elfsym	||thresh||,SYM_SIZE(1),SYM_BLOCKED(1)
||thresh||:
	.bits		0x12,16
			; thresh @ 0

$C$DW$45	.dwtag  DW_TAG_variable
	.dwattr $C$DW$45, DW_AT_name("thresh")
	.dwattr $C$DW$45, DW_AT_linkage_name("thresh")
	.dwattr $C$DW$45, DW_AT_location[DW_OP_addr ||thresh||]
	.dwattr $C$DW$45, DW_AT_type(*$C$DW$T$45)
	.dwattr $C$DW$45, DW_AT_external
	.dwattr $C$DW$45, DW_AT_decl_file("../sources/dual_axis_servo_drive.c")
	.dwattr $C$DW$45, DW_AT_decl_line(0x9c)
	.dwattr $C$DW$45, DW_AT_decl_column(0x0a)

	.global	||enableFlag||
	.data
	.align	1
	.elfsym	||enableFlag||,SYM_SIZE(1),SYM_BLOCKED(1)
||enableFlag||:
	.bits		0,16
			; enableFlag @ 0

$C$DW$46	.dwtag  DW_TAG_variable
	.dwattr $C$DW$46, DW_AT_name("enableFlag")
	.dwattr $C$DW$46, DW_AT_linkage_name("enableFlag")
	.dwattr $C$DW$46, DW_AT_location[DW_OP_addr ||enableFlag||]
	.dwattr $C$DW$46, DW_AT_type(*$C$DW$T$195)
	.dwattr $C$DW$46, DW_AT_external
	.dwattr $C$DW$46, DW_AT_decl_file("../sources/dual_axis_servo_drive.c")
	.dwattr $C$DW$46, DW_AT_decl_line(0xa1)
	.dwattr $C$DW$46, DW_AT_decl_column(0x13)

	.global	||backTicker||
	.data
	.align	1
	.elfsym	||backTicker||,SYM_SIZE(1),SYM_BLOCKED(1)
||backTicker||:
	.bits		0,16
			; backTicker @ 0

$C$DW$47	.dwtag  DW_TAG_variable
	.dwattr $C$DW$47, DW_AT_name("backTicker")
	.dwattr $C$DW$47, DW_AT_linkage_name("backTicker")
	.dwattr $C$DW$47, DW_AT_location[DW_OP_addr ||backTicker||]
	.dwattr $C$DW$47, DW_AT_type(*$C$DW$T$45)
	.dwattr $C$DW$47, DW_AT_external
	.dwattr $C$DW$47, DW_AT_decl_file("../sources/dual_axis_servo_drive.c")
	.dwattr $C$DW$47, DW_AT_decl_line(0xa3)
	.dwattr $C$DW$47, DW_AT_decl_column(0x0a)

	.global	||led1Cnt||
	.data
	.align	1
	.elfsym	||led1Cnt||,SYM_SIZE(1),SYM_BLOCKED(1)
||led1Cnt||:
	.bits		0,16
			; led1Cnt @ 0

$C$DW$48	.dwtag  DW_TAG_variable
	.dwattr $C$DW$48, DW_AT_name("led1Cnt")
	.dwattr $C$DW$48, DW_AT_linkage_name("led1Cnt")
	.dwattr $C$DW$48, DW_AT_location[DW_OP_addr ||led1Cnt||]
	.dwattr $C$DW$48, DW_AT_type(*$C$DW$T$45)
	.dwattr $C$DW$48, DW_AT_external
	.dwattr $C$DW$48, DW_AT_decl_file("../sources/dual_axis_servo_drive.c")
	.dwattr $C$DW$48, DW_AT_decl_line(0xa5)
	.dwattr $C$DW$48, DW_AT_decl_column(0x0a)

	.global	||led2Cnt||
	.data
	.align	1
	.elfsym	||led2Cnt||,SYM_SIZE(1),SYM_BLOCKED(1)
||led2Cnt||:
	.bits		0,16
			; led2Cnt @ 0

$C$DW$49	.dwtag  DW_TAG_variable
	.dwattr $C$DW$49, DW_AT_name("led2Cnt")
	.dwattr $C$DW$49, DW_AT_linkage_name("led2Cnt")
	.dwattr $C$DW$49, DW_AT_location[DW_OP_addr ||led2Cnt||]
	.dwattr $C$DW$49, DW_AT_type(*$C$DW$T$45)
	.dwattr $C$DW$49, DW_AT_external
	.dwattr $C$DW$49, DW_AT_decl_file("../sources/dual_axis_servo_drive.c")
	.dwattr $C$DW$49, DW_AT_decl_line(0xa6)
	.dwattr $C$DW$49, DW_AT_decl_column(0x0a)

	.global	||runMotor||
	.data
	.align	1
	.elfsym	||runMotor||,SYM_SIZE(1),SYM_BLOCKED(1)
||runMotor||:
	.bits		0,16
			; runMotor @ 0

$C$DW$50	.dwtag  DW_TAG_variable
	.dwattr $C$DW$50, DW_AT_name("runMotor")
	.dwattr $C$DW$50, DW_AT_linkage_name("runMotor")
	.dwattr $C$DW$50, DW_AT_location[DW_OP_addr ||runMotor||]
	.dwattr $C$DW$50, DW_AT_type(*$C$DW$T$103)
	.dwattr $C$DW$50, DW_AT_external
	.dwattr $C$DW$50, DW_AT_decl_file("../sources/dual_axis_servo_drive.c")
	.dwattr $C$DW$50, DW_AT_decl_line(0xd8)
	.dwattr $C$DW$50, DW_AT_decl_column(0x10)

	.global	||ctrlState||
	.data
	.align	1
	.elfsym	||ctrlState||,SYM_SIZE(1),SYM_BLOCKED(1)
||ctrlState||:
	.bits		0,16
			; ctrlState @ 0

$C$DW$51	.dwtag  DW_TAG_variable
	.dwattr $C$DW$51, DW_AT_name("ctrlState")
	.dwattr $C$DW$51, DW_AT_linkage_name("ctrlState")
	.dwattr $C$DW$51, DW_AT_location[DW_OP_addr ||ctrlState||]
	.dwattr $C$DW$51, DW_AT_type(*$C$DW$T$105)
	.dwattr $C$DW$51, DW_AT_external
	.dwattr $C$DW$51, DW_AT_decl_file("../sources/dual_axis_servo_drive.c")
	.dwattr $C$DW$51, DW_AT_decl_line(0xd9)
	.dwattr $C$DW$51, DW_AT_decl_column(0x0d)

	.global	||flagSyncRun||
	.data
	.align	1
	.elfsym	||flagSyncRun||,SYM_SIZE(1),SYM_BLOCKED(1)
||flagSyncRun||:
	.bits		0,16
			; flagSyncRun @ 0

$C$DW$52	.dwtag  DW_TAG_variable
	.dwattr $C$DW$52, DW_AT_name("flagSyncRun")
	.dwattr $C$DW$52, DW_AT_linkage_name("flagSyncRun")
	.dwattr $C$DW$52, DW_AT_location[DW_OP_addr ||flagSyncRun||]
	.dwattr $C$DW$52, DW_AT_type(*$C$DW$T$83)
	.dwattr $C$DW$52, DW_AT_external
	.dwattr $C$DW$52, DW_AT_decl_file("../sources/dual_axis_servo_drive.c")
	.dwattr $C$DW$52, DW_AT_decl_line(0xda)
	.dwattr $C$DW$52, DW_AT_decl_column(0x06)

	.global	||Alpha_State_Ptr||
	.bss	||Alpha_State_Ptr||,2,1,1
$C$DW$53	.dwtag  DW_TAG_variable
	.dwattr $C$DW$53, DW_AT_name("Alpha_State_Ptr")
	.dwattr $C$DW$53, DW_AT_linkage_name("Alpha_State_Ptr")
	.dwattr $C$DW$53, DW_AT_location[DW_OP_addr ||Alpha_State_Ptr||]
	.dwattr $C$DW$53, DW_AT_type(*$C$DW$T$155)
	.dwattr $C$DW$53, DW_AT_external
	.dwattr $C$DW$53, DW_AT_decl_file("../sources/dual_axis_servo_drive.c")
	.dwattr $C$DW$53, DW_AT_decl_line(0x7e)
	.dwattr $C$DW$53, DW_AT_decl_column(0x08)

	.global	||A_Task_Ptr||
	.bss	||A_Task_Ptr||,2,1,1
$C$DW$54	.dwtag  DW_TAG_variable
	.dwattr $C$DW$54, DW_AT_name("A_Task_Ptr")
	.dwattr $C$DW$54, DW_AT_linkage_name("A_Task_Ptr")
	.dwattr $C$DW$54, DW_AT_location[DW_OP_addr ||A_Task_Ptr||]
	.dwattr $C$DW$54, DW_AT_type(*$C$DW$T$155)
	.dwattr $C$DW$54, DW_AT_external
	.dwattr $C$DW$54, DW_AT_decl_file("../sources/dual_axis_servo_drive.c")
	.dwattr $C$DW$54, DW_AT_decl_line(0x7f)
	.dwattr $C$DW$54, DW_AT_decl_column(0x08)

	.global	||B_Task_Ptr||
	.bss	||B_Task_Ptr||,2,1,1
$C$DW$55	.dwtag  DW_TAG_variable
	.dwattr $C$DW$55, DW_AT_name("B_Task_Ptr")
	.dwattr $C$DW$55, DW_AT_linkage_name("B_Task_Ptr")
	.dwattr $C$DW$55, DW_AT_location[DW_OP_addr ||B_Task_Ptr||]
	.dwattr $C$DW$55, DW_AT_type(*$C$DW$T$155)
	.dwattr $C$DW$55, DW_AT_external
	.dwattr $C$DW$55, DW_AT_decl_file("../sources/dual_axis_servo_drive.c")
	.dwattr $C$DW$55, DW_AT_decl_line(0x80)
	.dwattr $C$DW$55, DW_AT_decl_column(0x08)

	.global	||C_Task_Ptr||
	.bss	||C_Task_Ptr||,2,1,1
$C$DW$56	.dwtag  DW_TAG_variable
	.dwattr $C$DW$56, DW_AT_name("C_Task_Ptr")
	.dwattr $C$DW$56, DW_AT_linkage_name("C_Task_Ptr")
	.dwattr $C$DW$56, DW_AT_location[DW_OP_addr ||C_Task_Ptr||]
	.dwattr $C$DW$56, DW_AT_type(*$C$DW$T$155)
	.dwattr $C$DW$56, DW_AT_external
	.dwattr $C$DW$56, DW_AT_decl_file("../sources/dual_axis_servo_drive.c")
	.dwattr $C$DW$56, DW_AT_decl_line(0x81)
	.dwattr $C$DW$56, DW_AT_decl_column(0x08)

	.global	||VdTesting||
	.data
	.align	2
	.elfsym	||VdTesting||,SYM_SIZE(2),SYM_BLOCKED(1)
||VdTesting||:
	.xfloat	$strtod("0x0p+0")		; VdTesting @ 0

$C$DW$57	.dwtag  DW_TAG_variable
	.dwattr $C$DW$57, DW_AT_name("VdTesting")
	.dwattr $C$DW$57, DW_AT_linkage_name("VdTesting")
	.dwattr $C$DW$57, DW_AT_location[DW_OP_addr ||VdTesting||]
	.dwattr $C$DW$57, DW_AT_type(*$C$DW$T$19)
	.dwattr $C$DW$57, DW_AT_external
	.dwattr $C$DW$57, DW_AT_decl_file("../sources/dual_axis_servo_drive.c")
	.dwattr $C$DW$57, DW_AT_decl_line(0xa9)
	.dwattr $C$DW$57, DW_AT_decl_column(0x0b)

	.global	||VqTesting||
	.data
	.align	2
	.elfsym	||VqTesting||,SYM_SIZE(2),SYM_BLOCKED(1)
||VqTesting||:
	.xfloat	$strtod("0x1.99999ap-4")		; VqTesting @ 0

$C$DW$58	.dwtag  DW_TAG_variable
	.dwattr $C$DW$58, DW_AT_name("VqTesting")
	.dwattr $C$DW$58, DW_AT_linkage_name("VqTesting")
	.dwattr $C$DW$58, DW_AT_location[DW_OP_addr ||VqTesting||]
	.dwattr $C$DW$58, DW_AT_type(*$C$DW$T$19)
	.dwattr $C$DW$58, DW_AT_external
	.dwattr $C$DW$58, DW_AT_decl_file("../sources/dual_axis_servo_drive.c")
	.dwattr $C$DW$58, DW_AT_decl_line(0xaa)
	.dwattr $C$DW$58, DW_AT_decl_column(0x0b)

	.global	||posPtrMax||
	.data
	.align	2
	.elfsym	||posPtrMax||,SYM_SIZE(2),SYM_BLOCKED(1)
||posPtrMax||:
	.xfloat	$strtod("0x1p+2")		; posPtrMax @ 0

$C$DW$59	.dwtag  DW_TAG_variable
	.dwattr $C$DW$59, DW_AT_name("posPtrMax")
	.dwattr $C$DW$59, DW_AT_linkage_name("posPtrMax")
	.dwattr $C$DW$59, DW_AT_location[DW_OP_addr ||posPtrMax||]
	.dwattr $C$DW$59, DW_AT_type(*$C$DW$T$19)
	.dwattr $C$DW$59, DW_AT_external
	.dwattr $C$DW$59, DW_AT_decl_file("../sources/dual_axis_servo_drive.c")
	.dwattr $C$DW$59, DW_AT_decl_line(0xae)
	.dwattr $C$DW$59, DW_AT_decl_column(0x0b)

	.global	||dlogCh1||
	.data
	.align	2
	.elfsym	||dlogCh1||,SYM_SIZE(2),SYM_BLOCKED(1)
||dlogCh1||:
	.xfloat	$strtod("0x0p+0")		; dlogCh1 @ 0

$C$DW$60	.dwtag  DW_TAG_variable
	.dwattr $C$DW$60, DW_AT_name("dlogCh1")
	.dwattr $C$DW$60, DW_AT_linkage_name("dlogCh1")
	.dwattr $C$DW$60, DW_AT_location[DW_OP_addr ||dlogCh1||]
	.dwattr $C$DW$60, DW_AT_type(*$C$DW$T$19)
	.dwattr $C$DW$60, DW_AT_external
	.dwattr $C$DW$60, DW_AT_decl_file("../sources/dual_axis_servo_drive.c")
	.dwattr $C$DW$60, DW_AT_decl_line(0xb5)
	.dwattr $C$DW$60, DW_AT_decl_column(0x0b)

	.global	||dlogCh2||
	.data
	.align	2
	.elfsym	||dlogCh2||,SYM_SIZE(2),SYM_BLOCKED(1)
||dlogCh2||:
	.xfloat	$strtod("0x0p+0")		; dlogCh2 @ 0

$C$DW$61	.dwtag  DW_TAG_variable
	.dwattr $C$DW$61, DW_AT_name("dlogCh2")
	.dwattr $C$DW$61, DW_AT_linkage_name("dlogCh2")
	.dwattr $C$DW$61, DW_AT_location[DW_OP_addr ||dlogCh2||]
	.dwattr $C$DW$61, DW_AT_type(*$C$DW$T$19)
	.dwattr $C$DW$61, DW_AT_external
	.dwattr $C$DW$61, DW_AT_decl_file("../sources/dual_axis_servo_drive.c")
	.dwattr $C$DW$61, DW_AT_decl_line(0xb6)
	.dwattr $C$DW$61, DW_AT_decl_column(0x0b)

	.global	||dlogCh3||
	.data
	.align	2
	.elfsym	||dlogCh3||,SYM_SIZE(2),SYM_BLOCKED(1)
||dlogCh3||:
	.xfloat	$strtod("0x0p+0")		; dlogCh3 @ 0

$C$DW$62	.dwtag  DW_TAG_variable
	.dwattr $C$DW$62, DW_AT_name("dlogCh3")
	.dwattr $C$DW$62, DW_AT_linkage_name("dlogCh3")
	.dwattr $C$DW$62, DW_AT_location[DW_OP_addr ||dlogCh3||]
	.dwattr $C$DW$62, DW_AT_type(*$C$DW$T$19)
	.dwattr $C$DW$62, DW_AT_external
	.dwattr $C$DW$62, DW_AT_decl_file("../sources/dual_axis_servo_drive.c")
	.dwattr $C$DW$62, DW_AT_decl_line(0xb7)
	.dwattr $C$DW$62, DW_AT_decl_column(0x0b)

	.global	||dlogCh4||
	.data
	.align	2
	.elfsym	||dlogCh4||,SYM_SIZE(2),SYM_BLOCKED(1)
||dlogCh4||:
	.xfloat	$strtod("0x0p+0")		; dlogCh4 @ 0

$C$DW$63	.dwtag  DW_TAG_variable
	.dwattr $C$DW$63, DW_AT_name("dlogCh4")
	.dwattr $C$DW$63, DW_AT_linkage_name("dlogCh4")
	.dwattr $C$DW$63, DW_AT_location[DW_OP_addr ||dlogCh4||]
	.dwattr $C$DW$63, DW_AT_type(*$C$DW$T$19)
	.dwattr $C$DW$63, DW_AT_external
	.dwattr $C$DW$63, DW_AT_decl_file("../sources/dual_axis_servo_drive.c")
	.dwattr $C$DW$63, DW_AT_decl_line(0xb8)
	.dwattr $C$DW$63, DW_AT_decl_column(0x0b)

	.global	||halHandle||
	.bss	||halHandle||,2,1,1
$C$DW$64	.dwtag  DW_TAG_variable
	.dwattr $C$DW$64, DW_AT_name("halHandle")
	.dwattr $C$DW$64, DW_AT_linkage_name("halHandle")
	.dwattr $C$DW$64, DW_AT_location[DW_OP_addr ||halHandle||]
	.dwattr $C$DW$64, DW_AT_type(*$C$DW$T$143)
	.dwattr $C$DW$64, DW_AT_external
	.dwattr $C$DW$64, DW_AT_decl_file("../sources/dual_axis_servo_drive.c")
	.dwattr $C$DW$64, DW_AT_decl_line(0xc7)
	.dwattr $C$DW$64, DW_AT_decl_column(0x0f)

	.global	||FCL_cycleCount||
||FCL_cycleCount||:	.usect	".bss:FCL_cycleCount",2,0,0
$C$DW$65	.dwtag  DW_TAG_variable
	.dwattr $C$DW$65, DW_AT_name("FCL_cycleCount")
	.dwattr $C$DW$65, DW_AT_linkage_name("FCL_cycleCount")
	.dwattr $C$DW$65, DW_AT_location[DW_OP_addr ||FCL_cycleCount||]
	.dwattr $C$DW$65, DW_AT_type(*$C$DW$T$196)
	.dwattr $C$DW$65, DW_AT_external
	.dwattr $C$DW$65, DW_AT_decl_file("../sources/dual_axis_servo_drive.c")
	.dwattr $C$DW$65, DW_AT_decl_line(0xd0)
	.dwattr $C$DW$65, DW_AT_decl_column(0x13)

	.global	||speedRef||
	.data
	.align	2
	.elfsym	||speedRef||,SYM_SIZE(2),SYM_BLOCKED(1)
||speedRef||:
	.xfloat	$strtod("0x1.99999ap-4")		; speedRef @ 0

$C$DW$66	.dwtag  DW_TAG_variable
	.dwattr $C$DW$66, DW_AT_name("speedRef")
	.dwattr $C$DW$66, DW_AT_linkage_name("speedRef")
	.dwattr $C$DW$66, DW_AT_location[DW_OP_addr ||speedRef||]
	.dwattr $C$DW$66, DW_AT_type(*$C$DW$T$19)
	.dwattr $C$DW$66, DW_AT_external
	.dwattr $C$DW$66, DW_AT_decl_file("../sources/dual_axis_servo_drive.c")
	.dwattr $C$DW$66, DW_AT_decl_line(0xd3)
	.dwattr $C$DW$66, DW_AT_decl_column(0x0b)

	.global	||IdRef||
	.data
	.align	2
	.elfsym	||IdRef||,SYM_SIZE(2),SYM_BLOCKED(1)
||IdRef||:
	.xfloat	$strtod("0x0p+0")		; IdRef @ 0

$C$DW$67	.dwtag  DW_TAG_variable
	.dwattr $C$DW$67, DW_AT_name("IdRef")
	.dwattr $C$DW$67, DW_AT_linkage_name("IdRef")
	.dwattr $C$DW$67, DW_AT_location[DW_OP_addr ||IdRef||]
	.dwattr $C$DW$67, DW_AT_type(*$C$DW$T$19)
	.dwattr $C$DW$67, DW_AT_external
	.dwattr $C$DW$67, DW_AT_decl_file("../sources/dual_axis_servo_drive.c")
	.dwattr $C$DW$67, DW_AT_decl_line(0xd4)
	.dwattr $C$DW$67, DW_AT_decl_column(0x0b)

	.global	||IqRef||
	.data
	.align	2
	.elfsym	||IqRef||,SYM_SIZE(2),SYM_BLOCKED(1)
||IqRef||:
	.xfloat	$strtod("0x1.99999ap-4")		; IqRef @ 0

$C$DW$68	.dwtag  DW_TAG_variable
	.dwattr $C$DW$68, DW_AT_name("IqRef")
	.dwattr $C$DW$68, DW_AT_linkage_name("IqRef")
	.dwattr $C$DW$68, DW_AT_location[DW_OP_addr ||IqRef||]
	.dwattr $C$DW$68, DW_AT_type(*$C$DW$T$19)
	.dwattr $C$DW$68, DW_AT_external
	.dwattr $C$DW$68, DW_AT_decl_file("../sources/dual_axis_servo_drive.c")
	.dwattr $C$DW$68, DW_AT_decl_line(0xd5)
	.dwattr $C$DW$68, DW_AT_decl_column(0x0b)

	.global	||rampDelayMax||
	.data
	.align	2
	.elfsym	||rampDelayMax||,SYM_SIZE(2),SYM_BLOCKED(1)
||rampDelayMax||:
	.bits		0,32
			; rampDelayMax @ 0

$C$DW$69	.dwtag  DW_TAG_variable
	.dwattr $C$DW$69, DW_AT_name("rampDelayMax")
	.dwattr $C$DW$69, DW_AT_linkage_name("rampDelayMax")
	.dwattr $C$DW$69, DW_AT_location[DW_OP_addr ||rampDelayMax||]
	.dwattr $C$DW$69, DW_AT_type(*$C$DW$T$22)
	.dwattr $C$DW$69, DW_AT_external
	.dwattr $C$DW$69, DW_AT_decl_file("../sources/dual_axis_servo_drive.c")
	.dwattr $C$DW$69, DW_AT_decl_line(0xd6)
	.dwattr $C$DW$69, DW_AT_decl_column(0x0a)


$C$DW$70	.dwtag  DW_TAG_subprogram
	.dwattr $C$DW$70, DW_AT_name("HAL_init")
	.dwattr $C$DW$70, DW_AT_linkage_name("HAL_init")
	.dwattr $C$DW$70, DW_AT_type(*$C$DW$T$143)
	.dwattr $C$DW$70, DW_AT_declaration
	.dwattr $C$DW$70, DW_AT_external
	.dwattr $C$DW$70, DW_AT_decl_file("D:/TI/c2000/C2000Ware_MotorControl_SDK_5_04_00_00/solutions/boostxl_3phganinv/f2837x/include/dual_axis_servo_drive_hal.h")
	.dwattr $C$DW$70, DW_AT_decl_line(0x119)
	.dwattr $C$DW$70, DW_AT_decl_column(0x13)
$C$DW$71	.dwtag  DW_TAG_formal_parameter
	.dwattr $C$DW$71, DW_AT_type(*$C$DW$T$3)

$C$DW$72	.dwtag  DW_TAG_formal_parameter
	.dwattr $C$DW$72, DW_AT_type(*$C$DW$T$132)

	.dwendtag $C$DW$70


$C$DW$73	.dwtag  DW_TAG_subprogram
	.dwattr $C$DW$73, DW_AT_name("HAL_MTR_init")
	.dwattr $C$DW$73, DW_AT_linkage_name("HAL_MTR_init")
	.dwattr $C$DW$73, DW_AT_type(*$C$DW$T$129)
	.dwattr $C$DW$73, DW_AT_declaration
	.dwattr $C$DW$73, DW_AT_external
	.dwattr $C$DW$73, DW_AT_decl_file("D:/TI/c2000/C2000Ware_MotorControl_SDK_5_04_00_00/solutions/boostxl_3phganinv/f2837x/include/dual_axis_servo_drive_hal.h")
	.dwattr $C$DW$73, DW_AT_decl_line(0x122)
	.dwattr $C$DW$73, DW_AT_decl_column(0x17)
$C$DW$74	.dwtag  DW_TAG_formal_parameter
	.dwattr $C$DW$74, DW_AT_type(*$C$DW$T$3)

$C$DW$75	.dwtag  DW_TAG_formal_parameter
	.dwattr $C$DW$75, DW_AT_type(*$C$DW$T$132)

	.dwendtag $C$DW$73


$C$DW$76	.dwtag  DW_TAG_subprogram
	.dwattr $C$DW$76, DW_AT_name("FCL_getSwVersion")
	.dwattr $C$DW$76, DW_AT_linkage_name("FCL_getSwVersion")
	.dwattr $C$DW$76, DW_AT_type(*$C$DW$T$22)
	.dwattr $C$DW$76, DW_AT_declaration
	.dwattr $C$DW$76, DW_AT_external
	.dwattr $C$DW$76, DW_AT_decl_file("D:/TI/c2000/C2000Ware_MotorControl_SDK_5_04_00_00/libraries/fcl/include/fcl_cla_dm.h")
	.dwattr $C$DW$76, DW_AT_decl_line(0x37)
	.dwattr $C$DW$76, DW_AT_decl_column(0x11)
	.dwendtag $C$DW$76


$C$DW$77	.dwtag  DW_TAG_subprogram
	.dwattr $C$DW$77, DW_AT_name("__eallow")
	.dwattr $C$DW$77, DW_AT_linkage_name("__eallow")
	.dwattr $C$DW$77, DW_AT_declaration
	.dwattr $C$DW$77, DW_AT_external
	.dwendtag $C$DW$77


$C$DW$78	.dwtag  DW_TAG_subprogram
	.dwattr $C$DW$78, DW_AT_name("__edis")
	.dwattr $C$DW$78, DW_AT_linkage_name("__edis")
	.dwattr $C$DW$78, DW_AT_declaration
	.dwattr $C$DW$78, DW_AT_external
	.dwendtag $C$DW$78

	.global	||vTimer0||
	.sect	".data:vTimer0", RW
	.align	1
	.elfsym	||vTimer0||,SYM_SIZE(4)
||vTimer0||:
	.bits		0,16
			; vTimer0[0] @ 0
	.space	48

$C$DW$79	.dwtag  DW_TAG_variable
	.dwattr $C$DW$79, DW_AT_name("vTimer0")
	.dwattr $C$DW$79, DW_AT_linkage_name("vTimer0")
	.dwattr $C$DW$79, DW_AT_location[DW_OP_addr ||vTimer0||]
	.dwattr $C$DW$79, DW_AT_type(*$C$DW$T$194)
	.dwattr $C$DW$79, DW_AT_external
	.dwattr $C$DW$79, DW_AT_decl_file("../sources/dual_axis_servo_drive.c")
	.dwattr $C$DW$79, DW_AT_decl_line(0x83)
	.dwattr $C$DW$79, DW_AT_decl_column(0x0a)

	.global	||vTimer1||
	.sect	".data:vTimer1", RW
	.align	1
	.elfsym	||vTimer1||,SYM_SIZE(4)
||vTimer1||:
	.bits		0,16
			; vTimer1[0] @ 0
	.space	48

$C$DW$80	.dwtag  DW_TAG_variable
	.dwattr $C$DW$80, DW_AT_name("vTimer1")
	.dwattr $C$DW$80, DW_AT_linkage_name("vTimer1")
	.dwattr $C$DW$80, DW_AT_location[DW_OP_addr ||vTimer1||]
	.dwattr $C$DW$80, DW_AT_type(*$C$DW$T$194)
	.dwattr $C$DW$80, DW_AT_external
	.dwattr $C$DW$80, DW_AT_decl_file("../sources/dual_axis_servo_drive.c")
	.dwattr $C$DW$80, DW_AT_decl_line(0x84)
	.dwattr $C$DW$80, DW_AT_decl_column(0x0a)

	.global	||vTimer2||
	.sect	".data:vTimer2", RW
	.align	1
	.elfsym	||vTimer2||,SYM_SIZE(4)
||vTimer2||:
	.bits		0,16
			; vTimer2[0] @ 0
	.space	48

$C$DW$81	.dwtag  DW_TAG_variable
	.dwattr $C$DW$81, DW_AT_name("vTimer2")
	.dwattr $C$DW$81, DW_AT_linkage_name("vTimer2")
	.dwattr $C$DW$81, DW_AT_location[DW_OP_addr ||vTimer2||]
	.dwattr $C$DW$81, DW_AT_type(*$C$DW$T$194)
	.dwattr $C$DW$81, DW_AT_external
	.dwattr $C$DW$81, DW_AT_decl_file("../sources/dual_axis_servo_drive.c")
	.dwattr $C$DW$81, DW_AT_decl_line(0x85)
	.dwattr $C$DW$81, DW_AT_decl_column(0x0a)

	.global	||halMtrHandle||
||halMtrHandle||:	.usect	".bss:halMtrHandle",4,0,1
$C$DW$82	.dwtag  DW_TAG_variable
	.dwattr $C$DW$82, DW_AT_name("halMtrHandle")
	.dwattr $C$DW$82, DW_AT_linkage_name("halMtrHandle")
	.dwattr $C$DW$82, DW_AT_location[DW_OP_addr ||halMtrHandle||]
	.dwattr $C$DW$82, DW_AT_type(*$C$DW$T$134)
	.dwattr $C$DW$82, DW_AT_external
	.dwattr $C$DW$82, DW_AT_decl_file("../sources/dual_axis_servo_drive.c")
	.dwattr $C$DW$82, DW_AT_decl_line(0xca)
	.dwattr $C$DW$82, DW_AT_decl_column(0x10)

	.global	||posArray||
	.sect	".data:posArray", RW
	.align	2
	.elfsym	||posArray||,SYM_SIZE(16)
||posArray||:
	.xfloat	$strtod("0x1.4p+1")		; posArray[0] @ 0
	.xfloat	$strtod("-0x1.4p+1")		; posArray[1] @ 32
	.xfloat	$strtod("0x1.cp+1")		; posArray[2] @ 64
	.xfloat	$strtod("-0x1.cp+1")		; posArray[3] @ 96
	.xfloat	$strtod("0x1.4p+2")		; posArray[4] @ 128
	.xfloat	$strtod("-0x1.4p+2")		; posArray[5] @ 160
	.xfloat	$strtod("0x1p+3")		; posArray[6] @ 192
	.xfloat	$strtod("-0x1p+3")		; posArray[7] @ 224

$C$DW$83	.dwtag  DW_TAG_variable
	.dwattr $C$DW$83, DW_AT_name("posArray")
	.dwattr $C$DW$83, DW_AT_linkage_name("posArray")
	.dwattr $C$DW$83, DW_AT_location[DW_OP_addr ||posArray||]
	.dwattr $C$DW$83, DW_AT_type(*$C$DW$T$217)
	.dwattr $C$DW$83, DW_AT_external
	.dwattr $C$DW$83, DW_AT_decl_file("../sources/dual_axis_servo_drive.c")
	.dwattr $C$DW$83, DW_AT_decl_line(0xad)
	.dwattr $C$DW$83, DW_AT_decl_column(0x0b)

	.global	||dlog_4ch1||
	.bss	||dlog_4ch1||,26,1,1
$C$DW$84	.dwtag  DW_TAG_variable
	.dwattr $C$DW$84, DW_AT_name("dlog_4ch1")
	.dwattr $C$DW$84, DW_AT_linkage_name("dlog_4ch1")
	.dwattr $C$DW$84, DW_AT_location[DW_OP_addr ||dlog_4ch1||]
	.dwattr $C$DW$84, DW_AT_type(*$C$DW$T$120)
	.dwattr $C$DW$84, DW_AT_external
	.dwattr $C$DW$84, DW_AT_decl_file("../sources/dual_axis_servo_drive.c")
	.dwattr $C$DW$84, DW_AT_decl_line(0xbb)
	.dwattr $C$DW$84, DW_AT_decl_column(0x0c)

	.global	||hal||
	.bss	||hal||,34,1,1
$C$DW$85	.dwtag  DW_TAG_variable
	.dwattr $C$DW$85, DW_AT_name("hal")
	.dwattr $C$DW$85, DW_AT_linkage_name("hal")
	.dwattr $C$DW$85, DW_AT_location[DW_OP_addr ||hal||]
	.dwattr $C$DW$85, DW_AT_type(*$C$DW$T$141)
	.dwattr $C$DW$85, DW_AT_external
	.dwattr $C$DW$85, DW_AT_decl_file("../sources/dual_axis_servo_drive.c")
	.dwattr $C$DW$85, DW_AT_decl_line(0xc8)
	.dwattr $C$DW$85, DW_AT_decl_column(0x0f)

	.global	||halMtr||
||halMtr||:	.usect	".bss:halMtr",36,0,1
$C$DW$86	.dwtag  DW_TAG_variable
	.dwattr $C$DW$86, DW_AT_name("halMtr")
	.dwattr $C$DW$86, DW_AT_linkage_name("halMtr")
	.dwattr $C$DW$86, DW_AT_location[DW_OP_addr ||halMtr||]
	.dwattr $C$DW$86, DW_AT_type(*$C$DW$T$127)
	.dwattr $C$DW$86, DW_AT_external
	.dwattr $C$DW$86, DW_AT_decl_file("../sources/dual_axis_servo_drive.c")
	.dwattr $C$DW$86, DW_AT_decl_line(0xcc)
	.dwattr $C$DW$86, DW_AT_decl_column(0x10)

$C$DW$87	.dwtag  DW_TAG_variable
	.dwattr $C$DW$87, DW_AT_name("fclVars")
	.dwattr $C$DW$87, DW_AT_linkage_name("fclVars")
	.dwattr $C$DW$87, DW_AT_type(*$C$DW$T$123)
	.dwattr $C$DW$87, DW_AT_declaration
	.dwattr $C$DW$87, DW_AT_external
	.dwattr $C$DW$87, DW_AT_decl_file("D:\TI\c2000\C2000Ware_MotorControl_SDK_5_04_00_00\libraries\fcl\include\cpu_cla_shared_dm.h")
	.dwattr $C$DW$87, DW_AT_decl_line(0x8b)
	.dwattr $C$DW$87, DW_AT_decl_column(0x13)

	.global	||DBUFF_4CH1||
	.sect	".data:DBUFF_4CH1", RW
	.align	2
	.elfsym	||DBUFF_4CH1||,SYM_SIZE(400)
||DBUFF_4CH1||:
	.xfloat	$strtod("0x0p+0")		; DBUFF_4CH1[0] @ 0
	.space	6368

$C$DW$88	.dwtag  DW_TAG_variable
	.dwattr $C$DW$88, DW_AT_name("DBUFF_4CH1")
	.dwattr $C$DW$88, DW_AT_linkage_name("DBUFF_4CH1")
	.dwattr $C$DW$88, DW_AT_location[DW_OP_addr ||DBUFF_4CH1||]
	.dwattr $C$DW$88, DW_AT_type(*$C$DW$T$218)
	.dwattr $C$DW$88, DW_AT_external
	.dwattr $C$DW$88, DW_AT_decl_file("../sources/dual_axis_servo_drive.c")
	.dwattr $C$DW$88, DW_AT_decl_line(0xb1)
	.dwattr $C$DW$88, DW_AT_decl_column(0x0b)

	.global	||DBUFF_4CH2||
	.sect	".data:DBUFF_4CH2", RW
	.align	2
	.elfsym	||DBUFF_4CH2||,SYM_SIZE(400)
||DBUFF_4CH2||:
	.xfloat	$strtod("0x0p+0")		; DBUFF_4CH2[0] @ 0
	.space	6368

$C$DW$89	.dwtag  DW_TAG_variable
	.dwattr $C$DW$89, DW_AT_name("DBUFF_4CH2")
	.dwattr $C$DW$89, DW_AT_linkage_name("DBUFF_4CH2")
	.dwattr $C$DW$89, DW_AT_location[DW_OP_addr ||DBUFF_4CH2||]
	.dwattr $C$DW$89, DW_AT_type(*$C$DW$T$218)
	.dwattr $C$DW$89, DW_AT_external
	.dwattr $C$DW$89, DW_AT_decl_file("../sources/dual_axis_servo_drive.c")
	.dwattr $C$DW$89, DW_AT_decl_line(0xb2)
	.dwattr $C$DW$89, DW_AT_decl_column(0x0b)

	.global	||DBUFF_4CH3||
	.sect	".data:DBUFF_4CH3", RW
	.align	2
	.elfsym	||DBUFF_4CH3||,SYM_SIZE(400)
||DBUFF_4CH3||:
	.xfloat	$strtod("0x0p+0")		; DBUFF_4CH3[0] @ 0
	.space	6368

$C$DW$90	.dwtag  DW_TAG_variable
	.dwattr $C$DW$90, DW_AT_name("DBUFF_4CH3")
	.dwattr $C$DW$90, DW_AT_linkage_name("DBUFF_4CH3")
	.dwattr $C$DW$90, DW_AT_location[DW_OP_addr ||DBUFF_4CH3||]
	.dwattr $C$DW$90, DW_AT_type(*$C$DW$T$218)
	.dwattr $C$DW$90, DW_AT_external
	.dwattr $C$DW$90, DW_AT_decl_file("../sources/dual_axis_servo_drive.c")
	.dwattr $C$DW$90, DW_AT_decl_line(0xb3)
	.dwattr $C$DW$90, DW_AT_decl_column(0x0b)

	.global	||DBUFF_4CH4||
	.sect	".data:DBUFF_4CH4", RW
	.align	2
	.elfsym	||DBUFF_4CH4||,SYM_SIZE(400)
||DBUFF_4CH4||:
	.xfloat	$strtod("0x0p+0")		; DBUFF_4CH4[0] @ 0
	.space	6368

$C$DW$91	.dwtag  DW_TAG_variable
	.dwattr $C$DW$91, DW_AT_name("DBUFF_4CH4")
	.dwattr $C$DW$91, DW_AT_linkage_name("DBUFF_4CH4")
	.dwattr $C$DW$91, DW_AT_location[DW_OP_addr ||DBUFF_4CH4||]
	.dwattr $C$DW$91, DW_AT_type(*$C$DW$T$218)
	.dwattr $C$DW$91, DW_AT_external
	.dwattr $C$DW$91, DW_AT_decl_file("../sources/dual_axis_servo_drive.c")
	.dwattr $C$DW$91, DW_AT_decl_line(0xb4)
	.dwattr $C$DW$91, DW_AT_decl_column(0x0b)

	.global	||motorVars||
	.sect	"ClaData", RW
	.align	2
	.elfsym	||motorVars||,SYM_SIZE(664)
||motorVars||:
	.bits		0,32
			; motorVars[0].posCntr @ 0
	.bits		0x1388,32
			; motorVars[0].posCntrMax @ 32
	.xfloat	$strtod("0x1.0624dep-10")		; motorVars[0].posSlewRate @ 64
	.xfloat	$strtod("0x1.f4p+7")		; motorVars[0].baseFreq @ 96
	.xfloat	$strtod("0x1p+3")		; motorVars[0].poles @ 128
	.xfloat	$strtod("0x1.a36e2ep-14")		; motorVars[0].Ts @ 160
	.xfloat	$strtod("0x0p+0")		; motorVars[0].maxModIndex @ 192
	.xfloat	$strtod("0x0p+0")		; motorVars[0].voltageLimit @ 224
	.xfloat	$strtod("0x0p+0")		; motorVars[0].currentLimit @ 256
	.xfloat	$strtod("0x0p+0")		; motorVars[0].tempIdRef @ 288
	.xfloat	$strtod("0x1.99999ap-5")		; motorVars[0].IdRef_start @ 320
	.xfloat	$strtod("0x0p+0")		; motorVars[0].IdRef_run @ 352
	.xfloat	$strtod("0x0p+0")		; motorVars[0].IdRef @ 384
	.xfloat	$strtod("0x1.99999ap-5")		; motorVars[0].IqRef @ 416
	.xfloat	$strtod("0x1.99999ap-4")		; motorVars[0].speedRef @ 448
	.xfloat	$strtod("0x0p+0")		; motorVars[0].positionRef @ 480
	.xfloat	$strtod("0x1.47ae14p-6")		; motorVars[0].lsw1Speed @ 512
	.xfloat	$strtod("0x0p+0")		; motorVars[0].offset_currentAs @ 544
	.xfloat	$strtod("0x0p+0")		; motorVars[0].offset_currentBs @ 576
	.xfloat	$strtod("0x0p+0")		; motorVars[0].offset_currentCs @ 608
	.xfloat	$strtod("0x0p+0")		; motorVars[0].currentAs @ 640
	.xfloat	$strtod("0x0p+0")		; motorVars[0].currentBs @ 672
	.xfloat	$strtod("0x0p+0")		; motorVars[0].currentCs @ 704
	.xfloat	$strtod("0x0p+0")		; motorVars[0].currentScale @ 736
	.xfloat	$strtod("0x0p+0")		; motorVars[0].voltageScale @ 768
	.xfloat	$strtod("0x0p+0")		; motorVars[0].adcScale @ 800
	.xfloat	$strtod("0x0p+0")		; motorVars[0].currentInvSF @ 832
	.xfloat	$strtod("0x0p+0")		; motorVars[0].voltageInvSF @ 864
	.xfloat	$strtod("0x0p+0")		; motorVars[0].posElecTheta @ 896
	.xfloat	$strtod("0x0p+0")		; motorVars[0].posMechTheta @ 928
	.bits		0x406a,32
			; motorVars[0].pwmCompA @ 960
	.bits		0x416a,32
			; motorVars[0].pwmCompB @ 992
	.bits		0x426a,32
			; motorVars[0].pwmCompC @ 1024
	.bits		0xb50,32
			; motorVars[0].curA_PPBRESULT @ 1056
	.bits		0xb30,32
			; motorVars[0].curB_PPBRESULT @ 1088
	.bits		0xb10,32
			; motorVars[0].curC_PPBRESULT @ 1120
	.bits		0xb70,32
			; motorVars[0].volDC_PPBRESULT @ 1152
	.bits		0x7401,32
			; motorVars[0].AdcIntFlag @ 1184
	.xfloat	$strtod("0x0p+0")		; motorVars[0].D_cpu.cosWTs @ 1216
	.xfloat	$strtod("0x0p+0")		; motorVars[0].D_cpu.sinWTs @ 1248
	.xfloat	$strtod("0x0p+0")		; motorVars[0].D_cpu.expVal @ 1280
	.xfloat	$strtod("0x0p+0")		; motorVars[0].D_cpu.kDirect @ 1312
	.xfloat	$strtod("0x0p+0")		; motorVars[0].D_cpu.idErr @ 1344
	.xfloat	$strtod("0x0p+0")		; motorVars[0].D_cpu.iqErr @ 1376
	.xfloat	$strtod("0x0p+0")		; motorVars[0].D_cpu.carryOver @ 1408
	.xfloat	$strtod("0x0p+0")		; motorVars[0].rc.TargetValue @ 1440
	.bits		0x1,32
			; motorVars[0].rc.RampDelayMax @ 1472
	.xfloat	$strtod("-0x1p+0")		; motorVars[0].rc.RampLowLimit @ 1504
	.xfloat	$strtod("0x1p+0")		; motorVars[0].rc.RampHighLimit @ 1536
	.bits		0,32
			; motorVars[0].rc.RampDelayCount @ 1568
	.xfloat	$strtod("0x0p+0")		; motorVars[0].rc.SetpointValue @ 1600
	.bits		0,32
			; motorVars[0].rc.EqualFlag @ 1632
	.xfloat	$strtod("0x0p+0")		; motorVars[0].rc.Tmp @ 1664
	.xfloat	$strtod("0x0p+0")		; motorVars[0].clarke.As @ 1696
	.xfloat	$strtod("0x0p+0")		; motorVars[0].clarke.Bs @ 1728
	.xfloat	$strtod("0x0p+0")		; motorVars[0].clarke.Cs @ 1760
	.xfloat	$strtod("0x0p+0")		; motorVars[0].clarke.Alpha @ 1792
	.xfloat	$strtod("0x0p+0")		; motorVars[0].clarke.Beta @ 1824
	.xfloat	$strtod("0x0p+0")		; motorVars[0].park.Alpha @ 1856
	.xfloat	$strtod("0x0p+0")		; motorVars[0].park.Beta @ 1888
	.xfloat	$strtod("0x0p+0")		; motorVars[0].park.Angle @ 1920
	.xfloat	$strtod("0x0p+0")		; motorVars[0].park.Ds @ 1952
	.xfloat	$strtod("0x0p+0")		; motorVars[0].park.Qs @ 1984
	.xfloat	$strtod("0x0p+0")		; motorVars[0].park.Sine @ 2016
	.xfloat	$strtod("0x0p+0")		; motorVars[0].park.Cosine @ 2048
	.xfloat	$strtod("0x0p+0")		; motorVars[0].ipark.Alpha @ 2080
	.xfloat	$strtod("0x0p+0")		; motorVars[0].ipark.Beta @ 2112
	.xfloat	$strtod("0x0p+0")		; motorVars[0].ipark.Angle @ 2144
	.xfloat	$strtod("0x0p+0")		; motorVars[0].ipark.Ds @ 2176
	.xfloat	$strtod("0x0p+0")		; motorVars[0].ipark.Qs @ 2208
	.xfloat	$strtod("0x0p+0")		; motorVars[0].ipark.Sine @ 2240
	.xfloat	$strtod("0x0p+0")		; motorVars[0].ipark.Cosine @ 2272
	.xfloat	$strtod("0x0p+0")		; motorVars[0].speed.ElecTheta @ 2304
	.bits		0x1,32
			; motorVars[0].speed.DirectionQep @ 2336
	.xfloat	$strtod("0x0p+0")		; motorVars[0].speed.OldElecTheta @ 2368
	.xfloat	$strtod("0x0p+0")		; motorVars[0].speed.Speed @ 2400
	.bits		0,32
			; motorVars[0].speed.BaseRpm @ 2432
	.xfloat	$strtod("0x0p+0")		; motorVars[0].speed.K1 @ 2464
	.xfloat	$strtod("0x0p+0")		; motorVars[0].speed.K2 @ 2496
	.xfloat	$strtod("0x0p+0")		; motorVars[0].speed.K3 @ 2528
	.bits		0,32
			; motorVars[0].speed.SpeedRpm @ 2560
	.xfloat	$strtod("0x0p+0")		; motorVars[0].speed.Tmp @ 2592
	.xfloat	$strtod("0x0p+0")		; motorVars[0].pi_id.ref @ 2624
	.xfloat	$strtod("0x0p+0")		; motorVars[0].pi_id.fbk @ 2656
	.xfloat	$strtod("0x0p+0")		; motorVars[0].pi_id.err @ 2688
	.xfloat	$strtod("0x0p+0")		; motorVars[0].pi_id.out @ 2720
	.xfloat	$strtod("0x0p+0")		; motorVars[0].pi_id.carryOver @ 2752
	.xfloat	$strtod("0x1p+0")		; motorVars[0].pi_id.Kp @ 2784
	.xfloat	$strtod("0x1.99999ap-4")		; motorVars[0].pi_id.Ki @ 2816
	.xfloat	$strtod("0x0p+0")		; motorVars[0].pi_id.Kerr @ 2848
	.xfloat	$strtod("0x0p+0")		; motorVars[0].pi_id.KerrOld @ 2880
	.xfloat	$strtod("0x1p+0")		; motorVars[0].pi_id.Umax @ 2912
	.xfloat	$strtod("-0x1p+0")		; motorVars[0].pi_id.Umin @ 2944
	.xfloat	$strtod("0x0p+0")		; motorVars[0].pi_pos.Ref @ 2976
	.xfloat	$strtod("0x0p+0")		; motorVars[0].pi_pos.Fbk @ 3008
	.xfloat	$strtod("0x0p+0")		; motorVars[0].pi_pos.Out @ 3040
	.xfloat	$strtod("0x1p+0")		; motorVars[0].pi_pos.Kp @ 3072
	.xfloat	$strtod("0x0p+0")		; motorVars[0].pi_pos.Ki @ 3104
	.xfloat	$strtod("0x1p+0")		; motorVars[0].pi_pos.Umax @ 3136
	.xfloat	$strtod("-0x1p+0")		; motorVars[0].pi_pos.Umin @ 3168
	.xfloat	$strtod("0x0p+0")		; motorVars[0].pi_pos.up @ 3200
	.xfloat	$strtod("0x0p+0")		; motorVars[0].pi_pos.ui @ 3232
	.xfloat	$strtod("0x0p+0")		; motorVars[0].pi_pos.v1 @ 3264
	.xfloat	$strtod("0x0p+0")		; motorVars[0].pi_pos.i1 @ 3296
	.xfloat	$strtod("0x1p+0")		; motorVars[0].pi_pos.w1 @ 3328
	.xfloat	$strtod("0x0p+0")		; motorVars[0].pid_spd.term.Ref @ 3360
	.xfloat	$strtod("0x0p+0")		; motorVars[0].pid_spd.term.Fbk @ 3392
	.xfloat	$strtod("0x0p+0")		; motorVars[0].pid_spd.term.Out @ 3424
	.xfloat	$strtod("0x0p+0")		; motorVars[0].pid_spd.term.c1 @ 3456
	.xfloat	$strtod("0x0p+0")		; motorVars[0].pid_spd.term.c2 @ 3488
	.xfloat	$strtod("0x1p+0")		; motorVars[0].pid_spd.param.Kr @ 3520
	.xfloat	$strtod("0x1p+0")		; motorVars[0].pid_spd.param.Kp @ 3552
	.xfloat	$strtod("0x0p+0")		; motorVars[0].pid_spd.param.Ki @ 3584
	.xfloat	$strtod("0x0p+0")		; motorVars[0].pid_spd.param.Kd @ 3616
	.xfloat	$strtod("0x1p+0")		; motorVars[0].pid_spd.param.Km @ 3648
	.xfloat	$strtod("0x1p+0")		; motorVars[0].pid_spd.param.Umax @ 3680
	.xfloat	$strtod("-0x1p+0")		; motorVars[0].pid_spd.param.Umin @ 3712
	.xfloat	$strtod("0x0p+0")		; motorVars[0].pid_spd.data.up @ 3744
	.xfloat	$strtod("0x0p+0")		; motorVars[0].pid_spd.data.ui @ 3776
	.xfloat	$strtod("0x0p+0")		; motorVars[0].pid_spd.data.ud @ 3808
	.xfloat	$strtod("0x0p+0")		; motorVars[0].pid_spd.data.v1 @ 3840
	.xfloat	$strtod("0x0p+0")		; motorVars[0].pid_spd.data.i1 @ 3872
	.xfloat	$strtod("0x0p+0")		; motorVars[0].pid_spd.data.d1 @ 3904
	.xfloat	$strtod("0x0p+0")		; motorVars[0].pid_spd.data.d2 @ 3936
	.xfloat	$strtod("0x1p+0")		; motorVars[0].pid_spd.data.w1 @ 3968
	.xfloat	$strtod("0x0p+0")		; motorVars[0].FCL_params.carrierMid @ 4000
	.xfloat	$strtod("0x0p+0")		; motorVars[0].FCL_params.adcScale @ 4032
	.xfloat	$strtod("0x0p+0")		; motorVars[0].FCL_params.cmidsqrt3 @ 4064
	.xfloat	$strtod("0x0p+0")		; motorVars[0].FCL_params.tSamp @ 4096
	.xfloat	$strtod("0x0p+0")		; motorVars[0].FCL_params.Rd @ 4128
	.xfloat	$strtod("0x0p+0")		; motorVars[0].FCL_params.Rq @ 4160
	.xfloat	$strtod("0x0p+0")		; motorVars[0].FCL_params.Ld @ 4192
	.xfloat	$strtod("0x0p+0")		; motorVars[0].FCL_params.Lq @ 4224
	.xfloat	$strtod("0x0p+0")		; motorVars[0].FCL_params.Vbase @ 4256
	.xfloat	$strtod("0x0p+0")		; motorVars[0].FCL_params.Ibase @ 4288
	.xfloat	$strtod("0x0p+0")		; motorVars[0].FCL_params.wccD @ 4320
	.xfloat	$strtod("0x0p+0")		; motorVars[0].FCL_params.wccQ @ 4352
	.xfloat	$strtod("0x0p+0")		; motorVars[0].FCL_params.Vdcbus @ 4384
	.xfloat	$strtod("0x0p+0")		; motorVars[0].FCL_params.BemfK @ 4416
	.xfloat	$strtod("0x0p+0")		; motorVars[0].FCL_params.Wbase @ 4448
	.bits	||fclVars||,32		; motorVars[0].ptrFCL @ 4480
	.xfloat	$strtod("0x0p+0")		; motorVars[0].svgen.Ualpha @ 4512
	.xfloat	$strtod("0x0p+0")		; motorVars[0].svgen.Ubeta @ 4544
	.xfloat	$strtod("0x0p+0")		; motorVars[0].svgen.Ta @ 4576
	.xfloat	$strtod("0x0p+0")		; motorVars[0].svgen.Tb @ 4608
	.xfloat	$strtod("0x0p+0")		; motorVars[0].svgen.Tc @ 4640
	.space	128
	.xfloat	$strtod("0x0p+0")		; motorVars[0].Vdcbus @ 4800
	.xfloat	$strtod("0x0p+0")		; motorVars[0].VdcbusMax @ 4832
	.xfloat	$strtod("0x0p+0")		; motorVars[0].VdcbusMin @ 4864
	.bits		0,32
			; motorVars[0].isrTicker @ 4896
	.xfloat	$strtod("0x0p+0")		; motorVars[0].fclLatencyInMicroSec @ 4928
	.bits		0,16
			; motorVars[0].fclClrCntr @ 4960
	.bits		0,16
			; motorVars[0].fclCycleCountMax @ 4976
	.bits		0xa,16
			; motorVars[0].speedLoopPrescaler @ 4992
	.bits		0x1,16
			; motorVars[0].speedLoopCount @ 5008
	.bits		0,16
			; motorVars[0].alignCntr @ 5024
	.bits		0x7d0,16
			; motorVars[0].alignCnt @ 5040
	.bits		0x2,16
			; motorVars[0].posPtrMax @ 5056
	.bits		0,16
			; motorVars[0].posPtr @ 5072
	.bits		0x4bd,16
			; motorVars[0].currentThreshHi @ 5088
	.bits		0x4bd,16
			; motorVars[0].currentThreshLo @ 5104
	.bits		0,16
			; motorVars[0].drvEnableGateGPIO @ 5120
	.bits		0,16
			; motorVars[0].drvFaultTripGPIO @ 5136
	.bits		0,16
			; motorVars[0].drvClearFaultGPIO @ 5152
	.bits		0,16
			; motorVars[0].tripCountDMC @ 5168
	.bits		0,16
			; motorVars[0].tripFlagDMC @ 5184
	.bits		0,16
			; motorVars[0].tripFlagPrev @ 5200
	.bits		0,16
			; motorVars[0].runMotor @ 5216
	.bits		0,16
			; motorVars[0].ctrlState @ 5232
	.bits		0,16
			; motorVars[0].clearTripFlagDMC @ 5248
	.bits		0,16
			; motorVars[0].lsw2EntryFlag @ 5264
	.bits		0,16
			; motorVars[0].offsetDoneFlag @ 5280
	.bits		0,16
			; motorVars[0].sfraEnableFlag @ 5296
	.bits		0,32
			; motorVars[1].posCntr @ 5312
	.bits		0x1388,32
			; motorVars[1].posCntrMax @ 5344
	.xfloat	$strtod("0x1.0624dep-10")		; motorVars[1].posSlewRate @ 5376
	.xfloat	$strtod("0x1.f4p+7")		; motorVars[1].baseFreq @ 5408
	.xfloat	$strtod("0x1p+3")		; motorVars[1].poles @ 5440
	.xfloat	$strtod("0x1.a36e2ep-14")		; motorVars[1].Ts @ 5472
	.xfloat	$strtod("0x0p+0")		; motorVars[1].maxModIndex @ 5504
	.xfloat	$strtod("0x0p+0")		; motorVars[1].voltageLimit @ 5536
	.xfloat	$strtod("0x0p+0")		; motorVars[1].currentLimit @ 5568
	.xfloat	$strtod("0x0p+0")		; motorVars[1].tempIdRef @ 5600
	.xfloat	$strtod("0x1.99999ap-5")		; motorVars[1].IdRef_start @ 5632
	.xfloat	$strtod("0x0p+0")		; motorVars[1].IdRef_run @ 5664
	.xfloat	$strtod("0x0p+0")		; motorVars[1].IdRef @ 5696
	.xfloat	$strtod("0x1.99999ap-5")		; motorVars[1].IqRef @ 5728
	.xfloat	$strtod("0x1.99999ap-4")		; motorVars[1].speedRef @ 5760
	.xfloat	$strtod("0x0p+0")		; motorVars[1].positionRef @ 5792
	.xfloat	$strtod("0x1.47ae14p-6")		; motorVars[1].lsw1Speed @ 5824
	.xfloat	$strtod("0x0p+0")		; motorVars[1].offset_currentAs @ 5856
	.xfloat	$strtod("0x0p+0")		; motorVars[1].offset_currentBs @ 5888
	.xfloat	$strtod("0x0p+0")		; motorVars[1].offset_currentCs @ 5920
	.xfloat	$strtod("0x0p+0")		; motorVars[1].currentAs @ 5952
	.xfloat	$strtod("0x0p+0")		; motorVars[1].currentBs @ 5984
	.xfloat	$strtod("0x0p+0")		; motorVars[1].currentCs @ 6016
	.xfloat	$strtod("0x0p+0")		; motorVars[1].currentScale @ 6048
	.xfloat	$strtod("0x0p+0")		; motorVars[1].voltageScale @ 6080
	.xfloat	$strtod("0x0p+0")		; motorVars[1].adcScale @ 6112
	.xfloat	$strtod("0x0p+0")		; motorVars[1].currentInvSF @ 6144
	.xfloat	$strtod("0x0p+0")		; motorVars[1].voltageInvSF @ 6176
	.xfloat	$strtod("0x0p+0")		; motorVars[1].posElecTheta @ 6208
	.xfloat	$strtod("0x0p+0")		; motorVars[1].posMechTheta @ 6240
	.bits		0x436a,32
			; motorVars[1].pwmCompA @ 6272
	.bits		0x446a,32
			; motorVars[1].pwmCompB @ 6304
	.bits		0x456a,32
			; motorVars[1].pwmCompC @ 6336
	.bits		0xb51,32
			; motorVars[1].curA_PPBRESULT @ 6368
	.bits		0xb31,32
			; motorVars[1].curB_PPBRESULT @ 6400
	.bits		0xb11,32
			; motorVars[1].curC_PPBRESULT @ 6432
	.bits		0xb71,32
			; motorVars[1].volDC_PPBRESULT @ 6464
	.bits		0x7401,32
			; motorVars[1].AdcIntFlag @ 6496
	.xfloat	$strtod("0x0p+0")		; motorVars[1].D_cpu.cosWTs @ 6528
	.xfloat	$strtod("0x0p+0")		; motorVars[1].D_cpu.sinWTs @ 6560
	.xfloat	$strtod("0x0p+0")		; motorVars[1].D_cpu.expVal @ 6592
	.xfloat	$strtod("0x0p+0")		; motorVars[1].D_cpu.kDirect @ 6624
	.xfloat	$strtod("0x0p+0")		; motorVars[1].D_cpu.idErr @ 6656
	.xfloat	$strtod("0x0p+0")		; motorVars[1].D_cpu.iqErr @ 6688
	.xfloat	$strtod("0x0p+0")		; motorVars[1].D_cpu.carryOver @ 6720
	.xfloat	$strtod("0x0p+0")		; motorVars[1].rc.TargetValue @ 6752
	.bits		0x1,32
			; motorVars[1].rc.RampDelayMax @ 6784
	.xfloat	$strtod("-0x1p+0")		; motorVars[1].rc.RampLowLimit @ 6816
	.xfloat	$strtod("0x1p+0")		; motorVars[1].rc.RampHighLimit @ 6848
	.bits		0,32
			; motorVars[1].rc.RampDelayCount @ 6880
	.xfloat	$strtod("0x0p+0")		; motorVars[1].rc.SetpointValue @ 6912
	.bits		0,32
			; motorVars[1].rc.EqualFlag @ 6944
	.xfloat	$strtod("0x0p+0")		; motorVars[1].rc.Tmp @ 6976
	.xfloat	$strtod("0x0p+0")		; motorVars[1].clarke.As @ 7008
	.xfloat	$strtod("0x0p+0")		; motorVars[1].clarke.Bs @ 7040
	.xfloat	$strtod("0x0p+0")		; motorVars[1].clarke.Cs @ 7072
	.xfloat	$strtod("0x0p+0")		; motorVars[1].clarke.Alpha @ 7104
	.xfloat	$strtod("0x0p+0")		; motorVars[1].clarke.Beta @ 7136
	.xfloat	$strtod("0x0p+0")		; motorVars[1].park.Alpha @ 7168
	.xfloat	$strtod("0x0p+0")		; motorVars[1].park.Beta @ 7200
	.xfloat	$strtod("0x0p+0")		; motorVars[1].park.Angle @ 7232
	.xfloat	$strtod("0x0p+0")		; motorVars[1].park.Ds @ 7264
	.xfloat	$strtod("0x0p+0")		; motorVars[1].park.Qs @ 7296
	.xfloat	$strtod("0x0p+0")		; motorVars[1].park.Sine @ 7328
	.xfloat	$strtod("0x0p+0")		; motorVars[1].park.Cosine @ 7360
	.xfloat	$strtod("0x0p+0")		; motorVars[1].ipark.Alpha @ 7392
	.xfloat	$strtod("0x0p+0")		; motorVars[1].ipark.Beta @ 7424
	.xfloat	$strtod("0x0p+0")		; motorVars[1].ipark.Angle @ 7456
	.xfloat	$strtod("0x0p+0")		; motorVars[1].ipark.Ds @ 7488
	.xfloat	$strtod("0x0p+0")		; motorVars[1].ipark.Qs @ 7520
	.xfloat	$strtod("0x0p+0")		; motorVars[1].ipark.Sine @ 7552
	.xfloat	$strtod("0x0p+0")		; motorVars[1].ipark.Cosine @ 7584
	.xfloat	$strtod("0x0p+0")		; motorVars[1].speed.ElecTheta @ 7616
	.bits		0x1,32
			; motorVars[1].speed.DirectionQep @ 7648
	.xfloat	$strtod("0x0p+0")		; motorVars[1].speed.OldElecTheta @ 7680
	.xfloat	$strtod("0x0p+0")		; motorVars[1].speed.Speed @ 7712
	.bits		0,32
			; motorVars[1].speed.BaseRpm @ 7744
	.xfloat	$strtod("0x0p+0")		; motorVars[1].speed.K1 @ 7776
	.xfloat	$strtod("0x0p+0")		; motorVars[1].speed.K2 @ 7808
	.xfloat	$strtod("0x0p+0")		; motorVars[1].speed.K3 @ 7840
	.bits		0,32
			; motorVars[1].speed.SpeedRpm @ 7872
	.xfloat	$strtod("0x0p+0")		; motorVars[1].speed.Tmp @ 7904
	.xfloat	$strtod("0x0p+0")		; motorVars[1].pi_id.ref @ 7936
	.xfloat	$strtod("0x0p+0")		; motorVars[1].pi_id.fbk @ 7968
	.xfloat	$strtod("0x0p+0")		; motorVars[1].pi_id.err @ 8000
	.xfloat	$strtod("0x0p+0")		; motorVars[1].pi_id.out @ 8032
	.xfloat	$strtod("0x0p+0")		; motorVars[1].pi_id.carryOver @ 8064
	.xfloat	$strtod("0x1p+0")		; motorVars[1].pi_id.Kp @ 8096
	.xfloat	$strtod("0x1.99999ap-4")		; motorVars[1].pi_id.Ki @ 8128
	.xfloat	$strtod("0x0p+0")		; motorVars[1].pi_id.Kerr @ 8160
	.xfloat	$strtod("0x0p+0")		; motorVars[1].pi_id.KerrOld @ 8192
	.xfloat	$strtod("0x1p+0")		; motorVars[1].pi_id.Umax @ 8224
	.xfloat	$strtod("-0x1p+0")		; motorVars[1].pi_id.Umin @ 8256
	.xfloat	$strtod("0x0p+0")		; motorVars[1].pi_pos.Ref @ 8288
	.xfloat	$strtod("0x0p+0")		; motorVars[1].pi_pos.Fbk @ 8320
	.xfloat	$strtod("0x0p+0")		; motorVars[1].pi_pos.Out @ 8352
	.xfloat	$strtod("0x1p+0")		; motorVars[1].pi_pos.Kp @ 8384
	.xfloat	$strtod("0x0p+0")		; motorVars[1].pi_pos.Ki @ 8416
	.xfloat	$strtod("0x1p+0")		; motorVars[1].pi_pos.Umax @ 8448
	.xfloat	$strtod("-0x1p+0")		; motorVars[1].pi_pos.Umin @ 8480
	.xfloat	$strtod("0x0p+0")		; motorVars[1].pi_pos.up @ 8512
	.xfloat	$strtod("0x0p+0")		; motorVars[1].pi_pos.ui @ 8544
	.xfloat	$strtod("0x0p+0")		; motorVars[1].pi_pos.v1 @ 8576
	.xfloat	$strtod("0x0p+0")		; motorVars[1].pi_pos.i1 @ 8608
	.xfloat	$strtod("0x1p+0")		; motorVars[1].pi_pos.w1 @ 8640
	.xfloat	$strtod("0x0p+0")		; motorVars[1].pid_spd.term.Ref @ 8672
	.xfloat	$strtod("0x0p+0")		; motorVars[1].pid_spd.term.Fbk @ 8704
	.xfloat	$strtod("0x0p+0")		; motorVars[1].pid_spd.term.Out @ 8736
	.xfloat	$strtod("0x0p+0")		; motorVars[1].pid_spd.term.c1 @ 8768
	.xfloat	$strtod("0x0p+0")		; motorVars[1].pid_spd.term.c2 @ 8800
	.xfloat	$strtod("0x1p+0")		; motorVars[1].pid_spd.param.Kr @ 8832
	.xfloat	$strtod("0x1p+0")		; motorVars[1].pid_spd.param.Kp @ 8864
	.xfloat	$strtod("0x0p+0")		; motorVars[1].pid_spd.param.Ki @ 8896
	.xfloat	$strtod("0x0p+0")		; motorVars[1].pid_spd.param.Kd @ 8928
	.xfloat	$strtod("0x1p+0")		; motorVars[1].pid_spd.param.Km @ 8960
	.xfloat	$strtod("0x1p+0")		; motorVars[1].pid_spd.param.Umax @ 8992
	.xfloat	$strtod("-0x1p+0")		; motorVars[1].pid_spd.param.Umin @ 9024
	.xfloat	$strtod("0x0p+0")		; motorVars[1].pid_spd.data.up @ 9056
	.xfloat	$strtod("0x0p+0")		; motorVars[1].pid_spd.data.ui @ 9088
	.xfloat	$strtod("0x0p+0")		; motorVars[1].pid_spd.data.ud @ 9120
	.xfloat	$strtod("0x0p+0")		; motorVars[1].pid_spd.data.v1 @ 9152
	.xfloat	$strtod("0x0p+0")		; motorVars[1].pid_spd.data.i1 @ 9184
	.xfloat	$strtod("0x0p+0")		; motorVars[1].pid_spd.data.d1 @ 9216
	.xfloat	$strtod("0x0p+0")		; motorVars[1].pid_spd.data.d2 @ 9248
	.xfloat	$strtod("0x1p+0")		; motorVars[1].pid_spd.data.w1 @ 9280
	.xfloat	$strtod("0x0p+0")		; motorVars[1].FCL_params.carrierMid @ 9312
	.xfloat	$strtod("0x0p+0")		; motorVars[1].FCL_params.adcScale @ 9344
	.xfloat	$strtod("0x0p+0")		; motorVars[1].FCL_params.cmidsqrt3 @ 9376
	.xfloat	$strtod("0x0p+0")		; motorVars[1].FCL_params.tSamp @ 9408
	.xfloat	$strtod("0x0p+0")		; motorVars[1].FCL_params.Rd @ 9440
	.xfloat	$strtod("0x0p+0")		; motorVars[1].FCL_params.Rq @ 9472
	.xfloat	$strtod("0x0p+0")		; motorVars[1].FCL_params.Ld @ 9504
	.xfloat	$strtod("0x0p+0")		; motorVars[1].FCL_params.Lq @ 9536
	.xfloat	$strtod("0x0p+0")		; motorVars[1].FCL_params.Vbase @ 9568
	.xfloat	$strtod("0x0p+0")		; motorVars[1].FCL_params.Ibase @ 9600
	.xfloat	$strtod("0x0p+0")		; motorVars[1].FCL_params.wccD @ 9632
	.xfloat	$strtod("0x0p+0")		; motorVars[1].FCL_params.wccQ @ 9664
	.xfloat	$strtod("0x0p+0")		; motorVars[1].FCL_params.Vdcbus @ 9696
	.xfloat	$strtod("0x0p+0")		; motorVars[1].FCL_params.BemfK @ 9728
	.xfloat	$strtod("0x0p+0")		; motorVars[1].FCL_params.Wbase @ 9760
	.bits	||fclVars||,32		; motorVars[1].ptrFCL @ 9792
	.xfloat	$strtod("0x0p+0")		; motorVars[1].svgen.Ualpha @ 9824
	.xfloat	$strtod("0x0p+0")		; motorVars[1].svgen.Ubeta @ 9856
	.xfloat	$strtod("0x0p+0")		; motorVars[1].svgen.Ta @ 9888
	.xfloat	$strtod("0x0p+0")		; motorVars[1].svgen.Tb @ 9920
	.xfloat	$strtod("0x0p+0")		; motorVars[1].svgen.Tc @ 9952
	.space	128
	.xfloat	$strtod("0x0p+0")		; motorVars[1].Vdcbus @ 10112
	.xfloat	$strtod("0x0p+0")		; motorVars[1].VdcbusMax @ 10144
	.xfloat	$strtod("0x0p+0")		; motorVars[1].VdcbusMin @ 10176
	.bits		0,32
			; motorVars[1].isrTicker @ 10208
	.xfloat	$strtod("0x0p+0")		; motorVars[1].fclLatencyInMicroSec @ 10240
	.bits		0,16
			; motorVars[1].fclClrCntr @ 10272
	.bits		0,16
			; motorVars[1].fclCycleCountMax @ 10288
	.bits		0xa,16
			; motorVars[1].speedLoopPrescaler @ 10304
	.bits		0x1,16
			; motorVars[1].speedLoopCount @ 10320
	.bits		0,16
			; motorVars[1].alignCntr @ 10336
	.bits		0x7d0,16
			; motorVars[1].alignCnt @ 10352
	.bits		0x2,16
			; motorVars[1].posPtrMax @ 10368
	.bits		0,16
			; motorVars[1].posPtr @ 10384
	.bits		0x4bd,16
			; motorVars[1].currentThreshHi @ 10400
	.bits		0x4bd,16
			; motorVars[1].currentThreshLo @ 10416
	.bits		0,16
			; motorVars[1].drvEnableGateGPIO @ 10432
	.bits		0,16
			; motorVars[1].drvFaultTripGPIO @ 10448
	.bits		0,16
			; motorVars[1].drvClearFaultGPIO @ 10464
	.bits		0,16
			; motorVars[1].tripCountDMC @ 10480
	.bits		0,16
			; motorVars[1].tripFlagDMC @ 10496
	.bits		0,16
			; motorVars[1].tripFlagPrev @ 10512
	.bits		0,16
			; motorVars[1].runMotor @ 10528
	.bits		0,16
			; motorVars[1].ctrlState @ 10544
	.bits		0,16
			; motorVars[1].clearTripFlagDMC @ 10560
	.bits		0,16
			; motorVars[1].lsw2EntryFlag @ 10576
	.bits		0,16
			; motorVars[1].offsetDoneFlag @ 10592
	.bits		0,16
			; motorVars[1].sfraEnableFlag @ 10608

$C$DW$92	.dwtag  DW_TAG_variable
	.dwattr $C$DW$92, DW_AT_name("motorVars")
	.dwattr $C$DW$92, DW_AT_linkage_name("motorVars")
	.dwattr $C$DW$92, DW_AT_location[DW_OP_addr ||motorVars||]
	.dwattr $C$DW$92, DW_AT_type(*$C$DW$T$150)
	.dwattr $C$DW$92, DW_AT_external
	.dwattr $C$DW$92, DW_AT_decl_file("../sources/dual_axis_servo_drive.c")
	.dwattr $C$DW$92, DW_AT_decl_line(0x8f)
	.dwattr $C$DW$92, DW_AT_decl_column(0x0e)

	.sblock	".bss"
	.sblock	".data"
;	D:\TI\ccs\tools\compiler\ti-cgt-c2000_22.6.2.LTS\bin\opt2000.exe C:\\Users\\JUNLI\\AppData\\Local\\Temp\\{F8D8E7D2-7D25-4302-9980-D305E7A716A6} C:\\Users\\JUNLI\\AppData\\Local\\Temp\\{DAB8D89F-C790-4CCD-AFC3-993AE34C17DF} 
;	D:\TI\ccs\tools\compiler\ti-cgt-c2000_22.6.2.LTS\bin\acia2000.exe -@C:\\Users\\JUNLI\\AppData\\Local\\Temp\\{496D6637-C91E-4FD9-BB03-27119B0C79D3} 
	.sect	".text:runSyncControl"
	.clink
	.global	||runSyncControl||

$C$DW$93	.dwtag  DW_TAG_subprogram
	.dwattr $C$DW$93, DW_AT_name("runSyncControl")
	.dwattr $C$DW$93, DW_AT_low_pc(||runSyncControl||)
	.dwattr $C$DW$93, DW_AT_high_pc(0x00)
	.dwattr $C$DW$93, DW_AT_linkage_name("runSyncControl")
	.dwattr $C$DW$93, DW_AT_external
	.dwattr $C$DW$93, DW_AT_decl_file("../sources/dual_axis_servo_drive.c")
	.dwattr $C$DW$93, DW_AT_decl_line(0x9cc)
	.dwattr $C$DW$93, DW_AT_decl_column(0x06)
	.dwattr $C$DW$93, DW_AT_TI_max_frame_size(-4)
	.dwpsn	file "../sources/dual_axis_servo_drive.c",line 2509,column 1,is_stmt,address ||runSyncControl||,isa 0

	.dwfde $C$DW$CIE, ||runSyncControl||

;***************************************************************
;* FNAME: runSyncControl                FR SIZE:   2           *
;*                                                             *
;* FUNCTION ENVIRONMENT                                        *
;*                                                             *
;* FUNCTION PROPERTIES                                         *
;*                            0 Parameter,  0 Auto,  2 SOE     *
;***************************************************************

||runSyncControl||:
;* AR4   assigned to $O$C1
;* AR4   assigned to $O$C2
;* R0    assigned to $O$C3
	.dwcfi	cfa_offset, -2
	.dwcfi	save_reg_to_mem, 26, 0
        MOVW      DP,#||flagSyncRun||   ; [CPU_ARAU] 
	.dwpsn	file "../sources/dual_axis_servo_drive.c",line 2510,column 5,is_stmt,isa 0
        MOV       AL,@||flagSyncRun||   ; [CPU_ALU] |2510| 
        MOVL      *SP++,XAR1            ; [CPU_ALU] 
	.dwcfi	save_reg_to_mem, 7, 2
	.dwcfi	cfa_offset, -4
        B         ||$C$L4||,EQ          ; [CPU_ALU] |2510| 
        ; branchcc occurs ; [] |2510| 
	.dwpsn	file "../sources/dual_axis_servo_drive.c",line 2512,column 9,is_stmt,isa 0
        MOVL      XAR4,#||motorVars||   ; [CPU_ARAU] |2512| 
        MOVL      XAR0,#324             ; [CPU_ALU] |2512| 
        MOV       AL,*+XAR4[AR0]        ; [CPU_ALU] |2512| 
        B         ||$C$L1||,NEQ         ; [CPU_ALU] |2512| 
        ; branchcc occurs ; [] |2512| 
        MOVL      XAR0,#656             ; [CPU_ALU] |2512| 
        MOV       AL,*+XAR4[AR0]        ; [CPU_ALU] |2512| 
        B         ||$C$L1||,NEQ         ; [CPU_ALU] |2512| 
        ; branchcc occurs ; [] |2512| 
	.dwpsn	file "../sources/dual_axis_servo_drive.c",line 2517,column 13,is_stmt,isa 0
        MOVL      XAR0,#360             ; [CPU_ALU] |2517| 
	.dwpsn	file "../sources/dual_axis_servo_drive.c",line 2516,column 13,is_stmt,isa 0
        MOV32     R0H,@||speedRef||     ; [CPU_FPU] |2516| 
	.dwpsn	file "../sources/dual_axis_servo_drive.c",line 2528,column 13,is_stmt,isa 0
        MOV       AL,@||ctrlState||     ; [CPU_ALU] |2528| 
	.dwpsn	file "../sources/dual_axis_servo_drive.c",line 2529,column 13,is_stmt,isa 0
        MOV       AH,@||ctrlState||     ; [CPU_ALU] |2529| 
        MOVL      XAR1,#659             ; [CPU_ALU] |2529| 
	.dwpsn	file "../sources/dual_axis_servo_drive.c",line 2517,column 13,is_stmt,isa 0
        MOV32     *+XAR4[AR0],R0H       ; [CPU_FPU] |2517| 
        MOVW      DP,#||motorVars||+326 ; [CPU_ARAU] 
	.dwpsn	file "../sources/dual_axis_servo_drive.c",line 2528,column 13,is_stmt,isa 0
        MOVL      XAR0,#327             ; [CPU_ALU] |2528| 
	.dwpsn	file "../sources/dual_axis_servo_drive.c",line 2529,column 13,is_stmt,isa 0
        MOV       *+XAR4[AR1],AH        ; [CPU_ALU] |2529| 
	.dwpsn	file "../sources/dual_axis_servo_drive.c",line 2528,column 13,is_stmt,isa 0
        MOV       *+XAR4[AR0],AL        ; [CPU_ALU] |2528| 
	.dwpsn	file "../sources/dual_axis_servo_drive.c",line 2516,column 13,is_stmt,isa 0
        MOVB      XAR0,#28              ; [CPU_ALU] |2516| 
	.dwpsn	file "../sources/dual_axis_servo_drive.c",line 2539,column 9,is_stmt,isa 0
        MOV       AL,@||motorVars||+326 ; [CPU_ALU] |2539| 
	.dwpsn	file "../sources/dual_axis_servo_drive.c",line 2516,column 13,is_stmt,isa 0
        MOV32     *+XAR4[AR0],R0H       ; [CPU_FPU] |2516| 
	.dwpsn	file "../sources/dual_axis_servo_drive.c",line 2539,column 9,is_stmt,isa 0
        CMPB      AL,#1                 ; [CPU_ALU] |2539| 
        B         ||$C$L2||,EQ          ; [CPU_ALU] |2539| 
        ; branchcc occurs ; [] |2539| 
        B         ||$C$L3||,UNC         ; [CPU_ALU] |2539| 
        ; branch occurs ; [] |2539| 
||$C$L1||:    
	.dwpsn	file "../sources/dual_axis_servo_drive.c",line 2533,column 13,is_stmt,isa 0
        MOVL      XAR0,#327             ; [CPU_ALU] |2533| 
        MOVW      DP,#||motorVars||+326 ; [CPU_ARAU] 
        MOV       *+XAR4[AR0],#0        ; [CPU_ALU] |2533| 
	.dwpsn	file "../sources/dual_axis_servo_drive.c",line 2539,column 9,is_stmt,isa 0
        MOV       AL,@||motorVars||+326 ; [CPU_ALU] |2539| 
	.dwpsn	file "../sources/dual_axis_servo_drive.c",line 2536,column 13,is_stmt,isa 0
        MOVL      XAR1,#360             ; [CPU_ALU] |2536| 
        ZERO      R0H                   ; [CPU_FPU] |2536| 
	.dwpsn	file "../sources/dual_axis_servo_drive.c",line 2535,column 13,is_stmt,isa 0
        ZERO      R1H                   ; [CPU_FPU] |2535| 
	.dwpsn	file "../sources/dual_axis_servo_drive.c",line 2534,column 13,is_stmt,isa 0
        MOVL      XAR0,#659             ; [CPU_ALU] |2534| 
        MOV       *+XAR4[AR0],#0        ; [CPU_ALU] |2534| 
	.dwpsn	file "../sources/dual_axis_servo_drive.c",line 2539,column 9,is_stmt,isa 0
        CMPB      AL,#1                 ; [CPU_ALU] |2539| 
	.dwpsn	file "../sources/dual_axis_servo_drive.c",line 2535,column 13,is_stmt,isa 0
        MOVB      XAR0,#28              ; [CPU_ALU] |2535| 
	.dwpsn	file "../sources/dual_axis_servo_drive.c",line 2536,column 13,is_stmt,isa 0
        MOV32     *+XAR4[AR1],R0H       ; [CPU_FPU] |2536| 
	.dwpsn	file "../sources/dual_axis_servo_drive.c",line 2535,column 13,is_stmt,isa 0
        MOV32     *+XAR4[AR0],R1H       ; [CPU_FPU] |2535| 
	.dwpsn	file "../sources/dual_axis_servo_drive.c",line 2539,column 9,is_stmt,isa 0
        B         ||$C$L3||,NEQ         ; [CPU_ALU] |2539| 
        ; branchcc occurs ; [] |2539| 
||$C$L2||:    
        MOVW      DP,#||motorVars||+658 ; [CPU_ARAU] 
        MOV       AL,@||motorVars||+658 ; [CPU_ALU] |2539| 
        MOVW      DP,#||runMotor||      ; [CPU_ARAU] 
        CMPB      AL,#1                 ; [CPU_ALU] |2539| 
	.dwpsn	file "../sources/dual_axis_servo_drive.c",line 2542,column 13,is_stmt,isa 0
        MOVB      @||runMotor||,#1,EQ   ; [CPU_ALU] |2542| 
        B         ||$C$L4||,EQ          ; [CPU_ALU] 
        ; branchcc occurs ; [] 
||$C$L3||:    
        MOVW      DP,#||runMotor||      ; [CPU_ARAU] 
	.dwpsn	file "../sources/dual_axis_servo_drive.c",line 2546,column 13,is_stmt,isa 0
        MOV       @||runMotor||,#0      ; [CPU_ALU] |2546| 
||$C$L4||:    
        MOVL      XAR1,*--SP            ; [CPU_ALU] 
	.dwcfi	cfa_offset, -2
	.dwcfi	restore_reg, 7
$C$DW$94	.dwtag  DW_TAG_TI_branch
	.dwattr $C$DW$94, DW_AT_low_pc(0x00)
	.dwattr $C$DW$94, DW_AT_TI_return

        LRETR     ; [CPU_ALU] 
        ; return occurs ; [] 
	.dwattr $C$DW$93, DW_AT_TI_end_file("../sources/dual_axis_servo_drive.c")
	.dwattr $C$DW$93, DW_AT_TI_end_line(0x9f7)
	.dwattr $C$DW$93, DW_AT_TI_end_column(0x01)
	.dwendentry
	.dwendtag $C$DW$93

	.sect	".text:runMotorControl"
	.clink
	.global	||runMotorControl||

$C$DW$95	.dwtag  DW_TAG_subprogram
	.dwattr $C$DW$95, DW_AT_name("runMotorControl")
	.dwattr $C$DW$95, DW_AT_low_pc(||runMotorControl||)
	.dwattr $C$DW$95, DW_AT_high_pc(0x00)
	.dwattr $C$DW$95, DW_AT_linkage_name("runMotorControl")
	.dwattr $C$DW$95, DW_AT_external
	.dwattr $C$DW$95, DW_AT_decl_file("../sources/dual_axis_servo_drive.c")
	.dwattr $C$DW$95, DW_AT_decl_line(0x954)
	.dwattr $C$DW$95, DW_AT_decl_column(0x06)
	.dwattr $C$DW$95, DW_AT_TI_max_frame_size(-10)
	.dwpsn	file "../sources/dual_axis_servo_drive.c",line 2389,column 1,is_stmt,address ||runMotorControl||,isa 0

	.dwfde $C$DW$CIE, ||runMotorControl||
$C$DW$96	.dwtag  DW_TAG_formal_parameter
	.dwattr $C$DW$96, DW_AT_name("pMotor")
	.dwattr $C$DW$96, DW_AT_type(*$C$DW$T$148)
	.dwattr $C$DW$96, DW_AT_location[DW_OP_reg12]

$C$DW$97	.dwtag  DW_TAG_formal_parameter
	.dwattr $C$DW$97, DW_AT_name("mtrHandle")
	.dwattr $C$DW$97, DW_AT_type(*$C$DW$T$129)
	.dwattr $C$DW$97, DW_AT_location[DW_OP_reg14]


;***************************************************************
;* FNAME: runMotorControl               FR SIZE:   8           *
;*                                                             *
;* FUNCTION ENVIRONMENT                                        *
;*                                                             *
;* FUNCTION PROPERTIES                                         *
;*                            2 Parameter,  0 Auto,  6 SOE     *
;***************************************************************

||runMotorControl||:
;* AR7   assigned to $O$C6
;* AR7   assigned to $O$C7
;* PL    assigned to $O$C8
;* AR7   assigned to $O$C9
;* R0    assigned to $O$C10
;* AR6   assigned to $O$U27
;* AL    assigned to $O$R3
;* AL    assigned to $O$R4
;* AL    assigned to $O$R5
;* AR2   assigned to pMotor
$C$DW$98	.dwtag  DW_TAG_variable
	.dwattr $C$DW$98, DW_AT_name("pMotor")
	.dwattr $C$DW$98, DW_AT_type(*$C$DW$T$149)
	.dwattr $C$DW$98, DW_AT_location[DW_OP_reg8]

;* AR3   assigned to mtrHandle
$C$DW$99	.dwtag  DW_TAG_variable
	.dwattr $C$DW$99, DW_AT_name("mtrHandle")
	.dwattr $C$DW$99, DW_AT_type(*$C$DW$T$130)
	.dwattr $C$DW$99, DW_AT_location[DW_OP_reg10]

;* AL    assigned to base
$C$DW$100	.dwtag  DW_TAG_variable
	.dwattr $C$DW$100, DW_AT_name("base")
	.dwattr $C$DW$100, DW_AT_type(*$C$DW$T$22)
	.dwattr $C$DW$100, DW_AT_location[DW_OP_reg0]

;* AL    assigned to base
$C$DW$101	.dwtag  DW_TAG_variable
	.dwattr $C$DW$101, DW_AT_name("base")
	.dwattr $C$DW$101, DW_AT_type(*$C$DW$T$22)
	.dwattr $C$DW$101, DW_AT_location[DW_OP_reg0]

;* AL    assigned to base
$C$DW$102	.dwtag  DW_TAG_variable
	.dwattr $C$DW$102, DW_AT_name("base")
	.dwattr $C$DW$102, DW_AT_type(*$C$DW$T$22)
	.dwattr $C$DW$102, DW_AT_location[DW_OP_reg0]

;* AL    assigned to base
$C$DW$103	.dwtag  DW_TAG_variable
	.dwattr $C$DW$103, DW_AT_name("base")
	.dwattr $C$DW$103, DW_AT_type(*$C$DW$T$22)
	.dwattr $C$DW$103, DW_AT_location[DW_OP_reg0]

;* AL    assigned to base
$C$DW$104	.dwtag  DW_TAG_variable
	.dwattr $C$DW$104, DW_AT_name("base")
	.dwattr $C$DW$104, DW_AT_type(*$C$DW$T$22)
	.dwattr $C$DW$104, DW_AT_location[DW_OP_reg0]

;* AL    assigned to base
$C$DW$105	.dwtag  DW_TAG_variable
	.dwattr $C$DW$105, DW_AT_name("base")
	.dwattr $C$DW$105, DW_AT_type(*$C$DW$T$22)
	.dwattr $C$DW$105, DW_AT_location[DW_OP_reg0]

;* AR4   assigned to base
$C$DW$106	.dwtag  DW_TAG_variable
	.dwattr $C$DW$106, DW_AT_name("base")
	.dwattr $C$DW$106, DW_AT_type(*$C$DW$T$22)
	.dwattr $C$DW$106, DW_AT_location[DW_OP_reg12]

;* AR4   assigned to base
$C$DW$107	.dwtag  DW_TAG_variable
	.dwattr $C$DW$107, DW_AT_name("base")
	.dwattr $C$DW$107, DW_AT_type(*$C$DW$T$22)
	.dwattr $C$DW$107, DW_AT_location[DW_OP_reg12]

;* AR4   assigned to base
$C$DW$108	.dwtag  DW_TAG_variable
	.dwattr $C$DW$108, DW_AT_name("base")
	.dwattr $C$DW$108, DW_AT_type(*$C$DW$T$22)
	.dwattr $C$DW$108, DW_AT_location[DW_OP_reg12]

;* AR4   assigned to base
$C$DW$109	.dwtag  DW_TAG_variable
	.dwattr $C$DW$109, DW_AT_name("base")
	.dwattr $C$DW$109, DW_AT_type(*$C$DW$T$22)
	.dwattr $C$DW$109, DW_AT_location[DW_OP_reg12]

;* AR4   assigned to base
$C$DW$110	.dwtag  DW_TAG_variable
	.dwattr $C$DW$110, DW_AT_name("base")
	.dwattr $C$DW$110, DW_AT_type(*$C$DW$T$22)
	.dwattr $C$DW$110, DW_AT_location[DW_OP_reg12]

;* AR4   assigned to base
$C$DW$111	.dwtag  DW_TAG_variable
	.dwattr $C$DW$111, DW_AT_name("base")
	.dwattr $C$DW$111, DW_AT_type(*$C$DW$T$22)
	.dwattr $C$DW$111, DW_AT_location[DW_OP_reg12]

	.dwcfi	cfa_offset, -2
	.dwcfi	save_reg_to_mem, 26, 0
        MOVL      *SP++,XAR1            ; [CPU_ALU] 
	.dwcfi	save_reg_to_mem, 7, 2
	.dwcfi	cfa_offset, -4
        MOVL      *SP++,XAR2            ; [CPU_ALU] 
	.dwcfi	save_reg_to_mem, 9, 4
	.dwcfi	cfa_offset, -6
        MOVL      *SP++,XAR3            ; [CPU_ALU] 
	.dwcfi	save_reg_to_mem, 11, 6
	.dwcfi	cfa_offset, -8
        ADDB      SP,#2                 ; [CPU_ARAU] 
	.dwcfi	cfa_offset, -10
        MOVL      XAR2,XAR4             ; [CPU_ALU] |2389| 
	.dwpsn	file "../sources/dual_axis_servo_drive.c",line 2395,column 5,is_stmt,isa 0
        MOVB      XAR0,#16              ; [CPU_ALU] |2395| 
        MOV32     R0H,*+XAR2[AR0]       ; [CPU_FPU] |2395| 
        MOVB      XAR0,#52              ; [CPU_ALU] |2395| 
        MOV32     R1H,*+XAR2[AR0]       ; [CPU_FPU] |2395| 
        MPYF32    R0H,R1H,R0H           ; [CPU_FPU] |2395| 
        NOP       ; [CPU_ALU] 
        F32TOUI16 R0H,R0H               ; [CPU_FPU] |2395| 
	.dwpsn	file "../sources/dual_axis_servo_drive.c",line 2397,column 5,is_stmt,isa 0
        MOVL      XAR1,#319             ; [CPU_ALU] |2397| 
	.dwpsn	file "../sources/dual_axis_servo_drive.c",line 2395,column 5,is_stmt,isa 0
        MOVL      XAR0,#318             ; [CPU_ALU] |2395| 
        MOV32     ACC,R0H               ; [CPU_FPU] |2395| 
        ADD       AL,#2048              ; [CPU_ALU] |2395| 
        MOV       *+XAR2[AR0],AL        ; [CPU_ALU] |2395| 
	.dwpsn	file "../sources/dual_axis_servo_drive.c",line 2397,column 5,is_stmt,isa 0
        MOVB      XAR0,#16              ; [CPU_ALU] |2397| 
        MOV32     R0H,*+XAR2[AR0]       ; [CPU_FPU] |2397| 
        MOVB      XAR0,#52              ; [CPU_ALU] |2397| 
        MOV32     R1H,*+XAR2[AR0]       ; [CPU_FPU] |2397| 
        MPYF32    R0H,R1H,R0H           ; [CPU_FPU] |2397| 
	.dwpsn	file "../sources/dual_axis_servo_drive.c",line 2389,column 1,is_stmt,isa 0
        MOVL      XAR3,XAR5             ; [CPU_ALU] |2389| 
	.dwpsn	file "../sources/dual_axis_servo_drive.c",line 2397,column 5,is_stmt,isa 0
        F32TOUI16 R0H,R0H               ; [CPU_FPU] |2397| 
	.dwpsn	file "../sources/dual_axis_servo_drive.c",line 2389,column 1,is_stmt,isa 0
        MOVL      XAR4,XAR5             ; [CPU_ALU] |2389| 
	.dwpsn	file "../sources/dual_axis_servo_drive.c",line 2400,column 5,is_stmt,isa 0
        MOVL      XAR0,#318             ; [CPU_ALU] |2400| 
	.dwpsn	file "../sources/dual_axis_servo_drive.c",line 2397,column 5,is_stmt,isa 0
        MOV32     ACC,R0H               ; [CPU_FPU] |2397| 
        MOV       AH,#2048              ; [CPU_ALU] |2397| 
        SUB       AH,AL                 ; [CPU_ALU] |2397| 
        MOV       *+XAR2[AR1],AH        ; [CPU_ALU] |2397| 
	.dwpsn	file "../sources/dual_axis_servo_drive.c",line 2400,column 5,is_stmt,isa 0
        MOV       AL,*+XAR2[AR0]        ; [CPU_ALU] |2400| 
        MOVL      XAR0,#319             ; [CPU_ALU] |2400| 
        MOV       AH,*+XAR2[AR0]        ; [CPU_ALU] |2400| 
$C$DW$112	.dwtag  DW_TAG_TI_branch
	.dwattr $C$DW$112, DW_AT_low_pc(0x00)
	.dwattr $C$DW$112, DW_AT_name("HAL_setupCMPSS_DACValue")
	.dwattr $C$DW$112, DW_AT_TI_call

        LCR       #||HAL_setupCMPSS_DACValue|| ; [CPU_ALU] |2400| 
        ; call occurs [#||HAL_setupCMPSS_DACValue||] ; [] |2400| 
	.dwpsn	file "../sources/dual_axis_servo_drive.c",line 2403,column 5,is_stmt,isa 0
        MOVL      XAR1,#274             ; [CPU_ALU] |2403| 
        MOVIZ     R1H,#15948            ; [CPU_FPU] |2403| 
        MOVIZ     R0H,#16204            ; [CPU_FPU] |2403| 
        MOVL      XAR0,#300             ; [CPU_ALU] |2403| 
        MOVXI     R1H,#52429            ; [CPU_FPU] |2403| 
        MOVXI     R0H,#52429            ; [CPU_FPU] |2403| 
        MOV32     R3H,*+XAR2[AR1]       ; [CPU_FPU] |2403| 

        MPYF32    R1H,R1H,R3H           ; [CPU_FPU] |2403| 
||      MOV32     R2H,*+XAR2[AR0]       ; [CPU_FPU] |2403| 

        MPYF32    R0H,R0H,R2H           ; [CPU_FPU] |2403| 
        NOP       ; [CPU_ALU] 
        ADDF32    R0H,R0H,R1H           ; [CPU_FPU] |2403| 
        NOP       ; [CPU_ALU] 
        MOV32     *+XAR2[AR0],R0H       ; [CPU_FPU] |2403| 
	.dwpsn	file "../sources/dual_axis_servo_drive.c",line 2405,column 5,is_stmt,isa 0
        MOVL      XAR0,#302             ; [CPU_ALU] |2405| 
        MOV32     R1H,*+XAR2[AR0]       ; [CPU_FPU] |2405| 
        MOVL      XAR0,#300             ; [CPU_ALU] |2405| 
        MOV32     R0H,*+XAR2[AR0]       ; [CPU_FPU] |2405| 
        CMPF32    R0H,R1H               ; [CPU_FPU] |2405| 
        MOVST0    ZF, NF                ; [CPU_FPU] |2405| 
        B         ||$C$L5||,GT          ; [CPU_ALU] |2405| 
        ; branchcc occurs ; [] |2405| 
        MOVL      XAR0,#304             ; [CPU_ALU] |2405| 
        MOV32     R1H,*+XAR2[AR0]       ; [CPU_FPU] |2405| 
        CMPF32    R0H,R1H               ; [CPU_FPU] |2405| 
        MOVST0    ZF, NF                ; [CPU_FPU] |2405| 
        B         ||$C$L5||,LT          ; [CPU_ALU] |2405| 
        ; branchcc occurs ; [] |2405| 
	.dwpsn	file "../sources/dual_axis_servo_drive.c",line 2412,column 9,is_stmt,isa 0
        MOVL      ACC,XAR2              ; [CPU_ALU] |2412| 
        ADD       ACC,#81 << 2          ; [CPU_ALU] |2412| 
        MOVL      XAR4,ACC              ; [CPU_ALU] |2412| 
        AND       *+XAR4[0],#0xfffd     ; [CPU_ALU] |2412| 
        B         ||$C$L6||,UNC         ; [CPU_ALU] |2412| 
        ; branch occurs ; [] |2412| 
||$C$L5||:    
	.dwpsn	file "../sources/dual_axis_servo_drive.c",line 2408,column 9,is_stmt,isa 0
        MOVL      ACC,XAR2              ; [CPU_ALU] |2408| 
        ADD       ACC,#81 << 2          ; [CPU_ALU] |2408| 
        MOVL      XAR4,ACC              ; [CPU_ALU] |2408| 
        OR        *+XAR4[0],#0x0002     ; [CPU_ALU] |2408| 
||$C$L6||:    
	.dwpsn	file "D:/TI/c2000/C2000Ware_MotorControl_SDK_5_04_00_00/c2000ware/driverlib/f2837xd/driverlib/epwm.h",line 4391,column 5,is_stmt,isa 0
        MOVB      ACC,#147              ; [CPU_ALU] |4391| 
        ADDL      ACC,*+XAR3[0]         ; [CPU_ALU] |4391| 
        MOVL      XAR4,ACC              ; [CPU_ALU] |4391| 
        AND       AL,*+XAR4[0],#0x007f  ; [CPU_ALU] |4391| 
	.dwpsn	file "../sources/dual_axis_servo_drive.c",line 2416,column 5,is_stmt,isa 0
        TBIT      AL,#2                 ; [CPU_ALU] |2416| 
        B         ||$C$L7||,TC          ; [CPU_ALU] |2416| 
        ; branchcc occurs ; [] |2416| 
	.dwpsn	file "D:/TI/c2000/C2000Ware_MotorControl_SDK_5_04_00_00/c2000ware/driverlib/f2837xd/driverlib/epwm.h",line 4391,column 5,is_stmt,isa 0
        MOVB      ACC,#147              ; [CPU_ALU] |4391| 
        ADDL      ACC,*+XAR3[2]         ; [CPU_ALU] |4391| 
        MOVL      XAR4,ACC              ; [CPU_ALU] |4391| 
        AND       AL,*+XAR4[0],#0x007f  ; [CPU_ALU] |4391| 
	.dwpsn	file "../sources/dual_axis_servo_drive.c",line 2416,column 5,is_stmt,isa 0
        TBIT      AL,#2                 ; [CPU_ALU] |2416| 
        B         ||$C$L7||,TC          ; [CPU_ALU] |2416| 
        ; branchcc occurs ; [] |2416| 
	.dwpsn	file "D:/TI/c2000/C2000Ware_MotorControl_SDK_5_04_00_00/c2000ware/driverlib/f2837xd/driverlib/epwm.h",line 4391,column 5,is_stmt,isa 0
        MOVB      ACC,#147              ; [CPU_ALU] |4391| 
        ADDL      ACC,*+XAR3[4]         ; [CPU_ALU] |4391| 
        MOVL      XAR4,ACC              ; [CPU_ALU] |4391| 
        AND       AL,*+XAR4[0],#0x007f  ; [CPU_ALU] |4391| 
	.dwpsn	file "../sources/dual_axis_servo_drive.c",line 2416,column 5,is_stmt,isa 0
        TBIT      AL,#2                 ; [CPU_ALU] |2416| 
        B         ||$C$L8||,NTC         ; [CPU_ALU] |2416| 
        ; branchcc occurs ; [] |2416| 
||$C$L7||:    
	.dwpsn	file "D:/TI/c2000/C2000Ware_MotorControl_SDK_5_04_00_00/c2000ware/driverlib/f2837xd/driverlib/epwm.h",line 4643,column 1,is_stmt,isa 0
        MOVL      ACC,*+XAR3[0]         ; [CPU_ALU] |4643| 
	.dwpsn	file "D:/TI/c2000/C2000Ware_MotorControl_SDK_5_04_00_00/c2000ware/driverlib/f2837xd/driverlib/epwm.h",line 4653,column 5,is_stmt,isa 0
        EALLOW    ; [CPU_ALU] |4653| 
	.dwpsn	file "D:/TI/c2000/C2000Ware_MotorControl_SDK_5_04_00_00/c2000ware/driverlib/f2837xd/driverlib/epwm.h",line 4654,column 5,is_stmt,isa 0
        ADDB      ACC,#155              ; [CPU_ALU] |4654| 
        MOVL      XAR4,ACC              ; [CPU_ALU] |4654| 
        OR        *+XAR4[0],#0x0004     ; [CPU_ALU] |4654| 
	.dwpsn	file "D:/TI/c2000/C2000Ware_MotorControl_SDK_5_04_00_00/c2000ware/driverlib/f2837xd/driverlib/epwm.h",line 4655,column 5,is_stmt,isa 0
        EDIS      ; [CPU_ALU] |4655| 
	.dwpsn	file "D:/TI/c2000/C2000Ware_MotorControl_SDK_5_04_00_00/c2000ware/driverlib/f2837xd/driverlib/epwm.h",line 4643,column 1,is_stmt,isa 0
        MOVL      ACC,*+XAR3[2]         ; [CPU_ALU] |4643| 
	.dwpsn	file "D:/TI/c2000/C2000Ware_MotorControl_SDK_5_04_00_00/c2000ware/driverlib/f2837xd/driverlib/epwm.h",line 4653,column 5,is_stmt,isa 0
        EALLOW    ; [CPU_ALU] |4653| 
	.dwpsn	file "D:/TI/c2000/C2000Ware_MotorControl_SDK_5_04_00_00/c2000ware/driverlib/f2837xd/driverlib/epwm.h",line 4654,column 5,is_stmt,isa 0
        ADDB      ACC,#155              ; [CPU_ALU] |4654| 
        MOVL      XAR4,ACC              ; [CPU_ALU] |4654| 
        OR        *+XAR4[0],#0x0004     ; [CPU_ALU] |4654| 
	.dwpsn	file "D:/TI/c2000/C2000Ware_MotorControl_SDK_5_04_00_00/c2000ware/driverlib/f2837xd/driverlib/epwm.h",line 4655,column 5,is_stmt,isa 0
        EDIS      ; [CPU_ALU] |4655| 
	.dwpsn	file "D:/TI/c2000/C2000Ware_MotorControl_SDK_5_04_00_00/c2000ware/driverlib/f2837xd/driverlib/epwm.h",line 4643,column 1,is_stmt,isa 0
        MOVL      ACC,*+XAR3[4]         ; [CPU_ALU] |4643| 
	.dwpsn	file "D:/TI/c2000/C2000Ware_MotorControl_SDK_5_04_00_00/c2000ware/driverlib/f2837xd/driverlib/epwm.h",line 4653,column 5,is_stmt,isa 0
        EALLOW    ; [CPU_ALU] |4653| 
	.dwpsn	file "D:/TI/c2000/C2000Ware_MotorControl_SDK_5_04_00_00/c2000ware/driverlib/f2837xd/driverlib/epwm.h",line 4654,column 5,is_stmt,isa 0
        ADDB      ACC,#155              ; [CPU_ALU] |4654| 
        MOVL      XAR4,ACC              ; [CPU_ALU] |4654| 
        OR        *+XAR4[0],#0x0004     ; [CPU_ALU] |4654| 
	.dwpsn	file "D:/TI/c2000/C2000Ware_MotorControl_SDK_5_04_00_00/c2000ware/driverlib/f2837xd/driverlib/epwm.h",line 4655,column 5,is_stmt,isa 0
        EDIS      ; [CPU_ALU] |4655| 
	.dwpsn	file "D:/TI/c2000/C2000Ware_MotorControl_SDK_5_04_00_00/c2000ware/driverlib/f2837xd/driverlib/gpio.h",line 473,column 9,is_stmt,isa 0
        MOVL      XAR0,#320             ; [CPU_ALU] |473| 
        MOVZ      AR7,*+XAR2[AR0]       ; [CPU_ALU] |473| 
        MOVB      ACC,#1                ; [CPU_ALU] |473| 
        CLRC      SXM                   ; [CPU_ALU] 
        MOVL      XAR6,ACC              ; [CPU_ALU] |473| 
        AND       AL,AR7,#0x001f        ; [CPU_ALU] |473| 
        MOV       T,AL                  ; [CPU_ALU] |473| 
        MOVZ      AR4,AR7               ; [CPU_ALU] |473| 
        MOVL      ACC,XAR6              ; [CPU_ALU] |473| 
        LSLL      ACC,T                 ; [CPU_ALU] |473| 
        MOVL      XAR6,ACC              ; [CPU_ALU] |473| 
        MOVL      ACC,XAR4              ; [CPU_ALU] |473| 
        SFR       ACC,5                 ; [CPU_ALU] |473| 
        LSL       ACC,2                 ; [CPU_ALU] |473| 
        LSL       ACC,1                 ; [CPU_ALU] |473| 
        ADD       ACC,#127 << 8         ; [CPU_ALU] |473| 
        MOVL      XAR4,ACC              ; [CPU_ALU] |473| 
	.dwpsn	file "../sources/dual_axis_servo_drive.c",line 2428,column 9,is_stmt,isa 0
        MOVL      ACC,XAR2              ; [CPU_ALU] |2428| 
        ADD       ACC,#81 << 2          ; [CPU_ALU] |2428| 
	.dwpsn	file "D:/TI/c2000/C2000Ware_MotorControl_SDK_5_04_00_00/c2000ware/driverlib/f2837xd/driverlib/gpio.h",line 473,column 9,is_stmt,isa 0
        MOVL      *+XAR4[2],XAR6        ; [CPU_FPU] |473| 
	.dwpsn	file "../sources/dual_axis_servo_drive.c",line 2428,column 9,is_stmt,isa 0
        MOVL      XAR4,ACC              ; [CPU_ALU] |2428| 
        OR        *+XAR4[0],#0x0001     ; [CPU_ALU] |2428| 
||$C$L8||:    
	.dwpsn	file "../sources/dual_axis_servo_drive.c",line 2431,column 5,is_stmt,isa 0
        MOVL      ACC,XAR2              ; [CPU_ALU] |2431| 
        ADD       ACC,#325 << 0         ; [CPU_ALU] |2431| 
        MOVL      XAR4,ACC              ; [CPU_ALU] |2431| 
        MOVL      XAR0,#324             ; [CPU_ALU] |2431| 
	.dwpsn	file "../sources/dual_axis_servo_drive.c",line 2433,column 5,is_stmt,isa 0
        MOVZ      AR6,*+XAR2[AR0]       ; [CPU_ALU] |2433| 
	.dwpsn	file "../sources/dual_axis_servo_drive.c",line 2431,column 5,is_stmt,isa 0
        MOV       AL,*+XAR2[AR0]        ; [CPU_ALU] |2431| 
        OR        *+XAR4[0],AL          ; [CPU_ALU] |2431| 
	.dwpsn	file "../sources/dual_axis_servo_drive.c",line 2433,column 5,is_stmt,isa 0
        MOV       AL,AR6                ; [CPU_ALU] |2433| 
        B         ||$C$L9||,EQ          ; [CPU_ALU] |2433| 
        ; branchcc occurs ; [] |2433| 
	.dwpsn	file "D:/TI/c2000/C2000Ware_MotorControl_SDK_5_04_00_00/c2000ware/driverlib/f2837xd/driverlib/gpio.h",line 473,column 9,is_stmt,isa 0
        MOVL      XAR0,#320             ; [CPU_ALU] |473| 
        MOVB      ACC,#1                ; [CPU_ALU] |473| 
        MOV       PL,*+XAR2[AR0]        ; [CPU_ALU] |473| 
        MOVL      XAR7,ACC              ; [CPU_ALU] |473| 
        CLRC      SXM                   ; [CPU_ALU] 
        AND       AL,PL,#0x001f         ; [CPU_ALU] |473| 
        MOVZ      AR4,PL                ; [CPU_ALU] |473| 
	.dwpsn	file "../sources/dual_axis_servo_drive.c",line 2436,column 9,is_stmt,isa 0
        MOVL      XAR1,#327             ; [CPU_ALU] |2436| 
	.dwpsn	file "D:/TI/c2000/C2000Ware_MotorControl_SDK_5_04_00_00/c2000ware/driverlib/f2837xd/driverlib/gpio.h",line 473,column 9,is_stmt,isa 0
        MOV       T,AL                  ; [CPU_ALU] |473| 
	.dwpsn	file "../sources/dual_axis_servo_drive.c",line 2435,column 9,is_stmt,isa 0
        MOVL      XAR0,#326             ; [CPU_ALU] |2435| 
	.dwpsn	file "D:/TI/c2000/C2000Ware_MotorControl_SDK_5_04_00_00/c2000ware/driverlib/f2837xd/driverlib/gpio.h",line 473,column 9,is_stmt,isa 0
        MOVL      ACC,XAR7              ; [CPU_ALU] |473| 
        LSLL      ACC,T                 ; [CPU_ALU] |473| 
        MOVL      XAR7,ACC              ; [CPU_ALU] |473| 
        MOVL      ACC,XAR4              ; [CPU_ALU] |473| 
        SFR       ACC,5                 ; [CPU_ALU] |473| 
        LSL       ACC,2                 ; [CPU_ALU] |473| 
        LSL       ACC,1                 ; [CPU_ALU] |473| 
        ADD       ACC,#127 << 8         ; [CPU_ALU] |473| 
        MOVL      XAR4,ACC              ; [CPU_ALU] |473| 
	.dwpsn	file "../sources/dual_axis_servo_drive.c",line 2436,column 9,is_stmt,isa 0
        MOVB      *+XAR2[AR1],#4,UNC    ; [CPU_ALU] |2436| 
	.dwpsn	file "../sources/dual_axis_servo_drive.c",line 2435,column 9,is_stmt,isa 0
        MOV       *+XAR2[AR0],#0        ; [CPU_ALU] |2435| 
	.dwpsn	file "D:/TI/c2000/C2000Ware_MotorControl_SDK_5_04_00_00/c2000ware/driverlib/f2837xd/driverlib/gpio.h",line 473,column 9,is_stmt,isa 0
        MOV       AL,AR6                ; [CPU_ALU] |473| 
        MOVL      *+XAR4[2],XAR7        ; [CPU_ALU] |473| 
	.dwpsn	file "../sources/dual_axis_servo_drive.c",line 2442,column 5,is_stmt,isa 0
        B         ||$C$L9||,EQ          ; [CPU_ALU] |2442| 
        ; branchcc occurs ; [] |2442| 
        MOVL      XAR0,#328             ; [CPU_ALU] |2442| 
        MOV       AL,*+XAR2[AR0]        ; [CPU_ALU] |2442| 
        CMPB      AL,#1                 ; [CPU_ALU] |2442| 
        B         ||$C$L10||,NEQ        ; [CPU_ALU] |2442| 
        ; branchcc occurs ; [] |2442| 
	.dwpsn	file "../sources/dual_axis_servo_drive.c",line 2444,column 9,is_stmt,isa 0
        MOVL      ACC,XAR2              ; [CPU_ALU] |2444| 
        ADD       ACC,#323 << 0         ; [CPU_ALU] |2444| 
        MOVL      XAR4,ACC              ; [CPU_ALU] |2444| 
        INC       *+XAR4[0]             ; [CPU_ALU] |2444| 
||$C$L9||:    
	.dwpsn	file "../sources/dual_axis_servo_drive.c",line 2448,column 5,is_stmt,isa 0
        MOVL      XAR0,#328             ; [CPU_ALU] |2448| 
        MOV       AL,*+XAR2[AR0]        ; [CPU_ALU] |2448| 
        CMPB      AL,#1                 ; [CPU_ALU] |2448| 
        B         ||$C$L10||,NEQ        ; [CPU_ALU] |2448| 
        ; branchcc occurs ; [] |2448| 
	.dwpsn	file "../sources/dual_axis_servo_drive.c",line 2451,column 9,is_stmt,isa 0
        MOVB      ACC,#38               ; [CPU_ALU] |2451| 
$C$DW$113	.dwtag  DW_TAG_TI_branch
	.dwattr $C$DW$113, DW_AT_low_pc(0x00)
	.dwattr $C$DW$113, DW_AT_name("SysCtl_delay")
	.dwattr $C$DW$113, DW_AT_TI_call

        LCR       #||SysCtl_delay||     ; [CPU_ALU] |2451| 
        ; call occurs [#||SysCtl_delay||] ; [] |2451| 
	.dwpsn	file "D:/TI/c2000/C2000Ware_MotorControl_SDK_5_04_00_00/c2000ware/driverlib/f2837xd/driverlib/epwm.h",line 4529,column 1,is_stmt,isa 0
        MOVL      ACC,*+XAR3[0]         ; [CPU_ALU] |4529| 
	.dwpsn	file "D:/TI/c2000/C2000Ware_MotorControl_SDK_5_04_00_00/c2000ware/driverlib/f2837xd/driverlib/epwm.h",line 4539,column 5,is_stmt,isa 0
        EALLOW    ; [CPU_ALU] |4539| 
	.dwpsn	file "D:/TI/c2000/C2000Ware_MotorControl_SDK_5_04_00_00/c2000ware/driverlib/f2837xd/driverlib/epwm.h",line 4540,column 5,is_stmt,isa 0
        ADDB      ACC,#151              ; [CPU_ALU] |4540| 
        MOVL      XAR4,ACC              ; [CPU_ALU] |4540| 
        OR        *+XAR4[0],#0x000c     ; [CPU_ALU] |4540| 
	.dwpsn	file "D:/TI/c2000/C2000Ware_MotorControl_SDK_5_04_00_00/c2000ware/driverlib/f2837xd/driverlib/epwm.h",line 4541,column 5,is_stmt,isa 0
        EDIS      ; [CPU_ALU] |4541| 
	.dwpsn	file "D:/TI/c2000/C2000Ware_MotorControl_SDK_5_04_00_00/c2000ware/driverlib/f2837xd/driverlib/epwm.h",line 4529,column 1,is_stmt,isa 0
        MOVL      ACC,*+XAR3[2]         ; [CPU_ALU] |4529| 
	.dwpsn	file "D:/TI/c2000/C2000Ware_MotorControl_SDK_5_04_00_00/c2000ware/driverlib/f2837xd/driverlib/epwm.h",line 4539,column 5,is_stmt,isa 0
        EALLOW    ; [CPU_ALU] |4539| 
	.dwpsn	file "D:/TI/c2000/C2000Ware_MotorControl_SDK_5_04_00_00/c2000ware/driverlib/f2837xd/driverlib/epwm.h",line 4540,column 5,is_stmt,isa 0
        ADDB      ACC,#151              ; [CPU_ALU] |4540| 
        MOVL      XAR4,ACC              ; [CPU_ALU] |4540| 
        OR        *+XAR4[0],#0x000c     ; [CPU_ALU] |4540| 
	.dwpsn	file "D:/TI/c2000/C2000Ware_MotorControl_SDK_5_04_00_00/c2000ware/driverlib/f2837xd/driverlib/epwm.h",line 4541,column 5,is_stmt,isa 0
        EDIS      ; [CPU_ALU] |4541| 
	.dwpsn	file "D:/TI/c2000/C2000Ware_MotorControl_SDK_5_04_00_00/c2000ware/driverlib/f2837xd/driverlib/epwm.h",line 4529,column 1,is_stmt,isa 0
        MOVL      ACC,*+XAR3[4]         ; [CPU_ALU] |4529| 
	.dwpsn	file "D:/TI/c2000/C2000Ware_MotorControl_SDK_5_04_00_00/c2000ware/driverlib/f2837xd/driverlib/epwm.h",line 4539,column 5,is_stmt,isa 0
        EALLOW    ; [CPU_ALU] |4539| 
	.dwpsn	file "D:/TI/c2000/C2000Ware_MotorControl_SDK_5_04_00_00/c2000ware/driverlib/f2837xd/driverlib/epwm.h",line 4540,column 5,is_stmt,isa 0
        ADDB      ACC,#151              ; [CPU_ALU] |4540| 
        MOVL      XAR4,ACC              ; [CPU_ALU] |4540| 
        OR        *+XAR4[0],#0x000c     ; [CPU_ALU] |4540| 
	.dwpsn	file "D:/TI/c2000/C2000Ware_MotorControl_SDK_5_04_00_00/c2000ware/driverlib/f2837xd/driverlib/epwm.h",line 4541,column 5,is_stmt,isa 0
        EDIS      ; [CPU_ALU] |4541| 
	.dwpsn	file "D:/TI/c2000/C2000Ware_MotorControl_SDK_5_04_00_00/c2000ware/driverlib/f2837xd/driverlib/cmpss.h",line 768,column 1,is_stmt,isa 0
        MOVL      XAR4,*+XAR3[6]        ; [CPU_ALU] |768| 
	.dwpsn	file "D:/TI/c2000/C2000Ware_MotorControl_SDK_5_04_00_00/c2000ware/driverlib/f2837xd/driverlib/cmpss.h",line 777,column 5,is_stmt,isa 0
        EALLOW    ; [CPU_ALU] |777| 
	.dwpsn	file "D:/TI/c2000/C2000Ware_MotorControl_SDK_5_04_00_00/c2000ware/driverlib/f2837xd/driverlib/cmpss.h",line 779,column 5,is_stmt,isa 0
        OR        *+XAR4[3],#0x0002     ; [CPU_ALU] |779| 
	.dwpsn	file "D:/TI/c2000/C2000Ware_MotorControl_SDK_5_04_00_00/c2000ware/driverlib/f2837xd/driverlib/cmpss.h",line 781,column 5,is_stmt,isa 0
        EDIS      ; [CPU_ALU] |781| 
	.dwpsn	file "D:/TI/c2000/C2000Ware_MotorControl_SDK_5_04_00_00/c2000ware/driverlib/f2837xd/driverlib/cmpss.h",line 768,column 1,is_stmt,isa 0
        MOVB      XAR0,#8               ; [CPU_ALU] |768| 
        MOVL      XAR4,*+XAR3[AR0]      ; [CPU_ALU] |768| 
	.dwpsn	file "D:/TI/c2000/C2000Ware_MotorControl_SDK_5_04_00_00/c2000ware/driverlib/f2837xd/driverlib/cmpss.h",line 777,column 5,is_stmt,isa 0
        EALLOW    ; [CPU_ALU] |777| 
	.dwpsn	file "D:/TI/c2000/C2000Ware_MotorControl_SDK_5_04_00_00/c2000ware/driverlib/f2837xd/driverlib/cmpss.h",line 779,column 5,is_stmt,isa 0
        OR        *+XAR4[3],#0x0002     ; [CPU_ALU] |779| 
	.dwpsn	file "D:/TI/c2000/C2000Ware_MotorControl_SDK_5_04_00_00/c2000ware/driverlib/f2837xd/driverlib/cmpss.h",line 781,column 5,is_stmt,isa 0
        EDIS      ; [CPU_ALU] |781| 
	.dwpsn	file "D:/TI/c2000/C2000Ware_MotorControl_SDK_5_04_00_00/c2000ware/driverlib/f2837xd/driverlib/cmpss.h",line 768,column 1,is_stmt,isa 0
        MOVB      XAR0,#10              ; [CPU_ALU] |768| 
        MOVL      XAR4,*+XAR3[AR0]      ; [CPU_ALU] |768| 
	.dwpsn	file "D:/TI/c2000/C2000Ware_MotorControl_SDK_5_04_00_00/c2000ware/driverlib/f2837xd/driverlib/cmpss.h",line 777,column 5,is_stmt,isa 0
        EALLOW    ; [CPU_ALU] |777| 
	.dwpsn	file "D:/TI/c2000/C2000Ware_MotorControl_SDK_5_04_00_00/c2000ware/driverlib/f2837xd/driverlib/cmpss.h",line 779,column 5,is_stmt,isa 0
        OR        *+XAR4[3],#0x0002     ; [CPU_ALU] |779| 
	.dwpsn	file "D:/TI/c2000/C2000Ware_MotorControl_SDK_5_04_00_00/c2000ware/driverlib/f2837xd/driverlib/cmpss.h",line 781,column 5,is_stmt,isa 0
        EDIS      ; [CPU_ALU] |781| 
	.dwpsn	file "D:/TI/c2000/C2000Ware_MotorControl_SDK_5_04_00_00/c2000ware/driverlib/f2837xd/driverlib/cmpss.h",line 798,column 1,is_stmt,isa 0
        MOVL      XAR4,*+XAR3[6]        ; [CPU_ALU] |798| 
	.dwpsn	file "D:/TI/c2000/C2000Ware_MotorControl_SDK_5_04_00_00/c2000ware/driverlib/f2837xd/driverlib/cmpss.h",line 807,column 5,is_stmt,isa 0
        EALLOW    ; [CPU_ALU] |807| 
	.dwpsn	file "D:/TI/c2000/C2000Ware_MotorControl_SDK_5_04_00_00/c2000ware/driverlib/f2837xd/driverlib/cmpss.h",line 809,column 5,is_stmt,isa 0
        OR        *+XAR4[3],#0x0200     ; [CPU_ALU] |809| 
	.dwpsn	file "D:/TI/c2000/C2000Ware_MotorControl_SDK_5_04_00_00/c2000ware/driverlib/f2837xd/driverlib/cmpss.h",line 811,column 5,is_stmt,isa 0
        EDIS      ; [CPU_ALU] |811| 
	.dwpsn	file "D:/TI/c2000/C2000Ware_MotorControl_SDK_5_04_00_00/c2000ware/driverlib/f2837xd/driverlib/cmpss.h",line 798,column 1,is_stmt,isa 0
        MOVB      XAR0,#8               ; [CPU_ALU] |798| 
        MOVL      XAR4,*+XAR3[AR0]      ; [CPU_ALU] |798| 
	.dwpsn	file "D:/TI/c2000/C2000Ware_MotorControl_SDK_5_04_00_00/c2000ware/driverlib/f2837xd/driverlib/cmpss.h",line 807,column 5,is_stmt,isa 0
        EALLOW    ; [CPU_ALU] |807| 
	.dwpsn	file "D:/TI/c2000/C2000Ware_MotorControl_SDK_5_04_00_00/c2000ware/driverlib/f2837xd/driverlib/cmpss.h",line 809,column 5,is_stmt,isa 0
        OR        *+XAR4[3],#0x0200     ; [CPU_ALU] |809| 
	.dwpsn	file "D:/TI/c2000/C2000Ware_MotorControl_SDK_5_04_00_00/c2000ware/driverlib/f2837xd/driverlib/cmpss.h",line 811,column 5,is_stmt,isa 0
        EDIS      ; [CPU_ALU] |811| 
	.dwpsn	file "D:/TI/c2000/C2000Ware_MotorControl_SDK_5_04_00_00/c2000ware/driverlib/f2837xd/driverlib/cmpss.h",line 798,column 1,is_stmt,isa 0
        MOVB      XAR0,#10              ; [CPU_ALU] |798| 
        MOVL      XAR4,*+XAR3[AR0]      ; [CPU_ALU] |798| 
	.dwpsn	file "D:/TI/c2000/C2000Ware_MotorControl_SDK_5_04_00_00/c2000ware/driverlib/f2837xd/driverlib/cmpss.h",line 807,column 5,is_stmt,isa 0
        EALLOW    ; [CPU_ALU] |807| 
	.dwpsn	file "D:/TI/c2000/C2000Ware_MotorControl_SDK_5_04_00_00/c2000ware/driverlib/f2837xd/driverlib/cmpss.h",line 809,column 5,is_stmt,isa 0
        OR        *+XAR4[3],#0x0200     ; [CPU_ALU] |809| 
	.dwpsn	file "D:/TI/c2000/C2000Ware_MotorControl_SDK_5_04_00_00/c2000ware/driverlib/f2837xd/driverlib/cmpss.h",line 811,column 5,is_stmt,isa 0
        EDIS      ; [CPU_ALU] |811| 
	.dwpsn	file "../sources/dual_axis_servo_drive.c",line 2476,column 9,is_stmt,isa 0
        MOVL      XAR0,#324             ; [CPU_ALU] |2476| 
        MOV       *+XAR2[AR0],#0        ; [CPU_ALU] |2476| 
	.dwpsn	file "../sources/dual_axis_servo_drive.c",line 2477,column 9,is_stmt,isa 0
        MOVL      XAR0,#328             ; [CPU_ALU] |2477| 
        MOV       *+XAR2[AR0],#0        ; [CPU_ALU] |2477| 
	.dwpsn	file "../sources/dual_axis_servo_drive.c",line 2479,column 9,is_stmt,isa 0
        MOVL      XAR0,#280             ; [CPU_ALU] |2479| 
        MOVL      XAR4,*+XAR2[AR0]      ; [CPU_ALU] |2479| 
	.dwpsn	file "../sources/dual_axis_servo_drive.c",line 2478,column 9,is_stmt,isa 0
        MOVL      XAR0,#327             ; [CPU_ALU] |2478| 
        MOV       *+XAR2[AR0],#0        ; [CPU_ALU] |2478| 
	.dwpsn	file "../sources/dual_axis_servo_drive.c",line 2479,column 9,is_stmt,isa 0
        MOV       *+XAR4[0],#0          ; [CPU_ALU] |2479| 
||$C$L10||:    
	.dwpsn	file "../sources/dual_axis_servo_drive.c",line 2482,column 5,is_stmt,isa 0
        MOVL      XAR0,#327             ; [CPU_ALU] |2482| 
        MOV       AL,*+XAR2[AR0]        ; [CPU_ALU] |2482| 
        CMPB      AL,#1                 ; [CPU_ALU] |2482| 
        B         ||$C$L11||,EQ         ; [CPU_ALU] |2482| 
        ; branchcc occurs ; [] |2482| 
	.dwpsn	file "../sources/dual_axis_servo_drive.c",line 2494,column 9,is_stmt,isa 0
        MOVL      XAR0,#326             ; [CPU_ALU] |2494| 
        MOV       AL,*+XAR2[AR0]        ; [CPU_ALU] |2494| 
        CMPB      AL,#1                 ; [CPU_ALU] |2494| 
        B         ||$C$L12||,NEQ        ; [CPU_ALU] |2494| 
        ; branchcc occurs ; [] |2494| 
	.dwpsn	file "../sources/dual_axis_servo_drive.c",line 2496,column 13,is_stmt,isa 0
        MOV       *+XAR2[AR0],#0        ; [CPU_ALU] |2496| 
	.dwpsn	file "D:/TI/c2000/C2000Ware_MotorControl_SDK_5_04_00_00/c2000ware/driverlib/f2837xd/driverlib/gpio.h",line 473,column 9,is_stmt,isa 0
        MOVL      XAR0,#320             ; [CPU_ALU] |473| 
        MOVZ      AR7,*+XAR2[AR0]       ; [CPU_ALU] |473| 
        MOVB      ACC,#1                ; [CPU_ALU] |473| 
        MOVL      XAR6,ACC              ; [CPU_ALU] |473| 
        CLRC      SXM                   ; [CPU_ALU] 
        AND       AL,AR7,#0x001f        ; [CPU_ALU] |473| 
        MOVZ      AR4,AR7               ; [CPU_ALU] |473| 
        MOV       T,AL                  ; [CPU_ALU] |473| 
        MOVL      ACC,XAR6              ; [CPU_ALU] |473| 
        LSLL      ACC,T                 ; [CPU_ALU] |473| 
        MOVL      XAR6,ACC              ; [CPU_ALU] |473| 
        MOVL      ACC,XAR4              ; [CPU_ALU] |473| 
        SFR       ACC,5                 ; [CPU_ALU] |473| 
        LSL       ACC,2                 ; [CPU_ALU] |473| 
        LSL       ACC,1                 ; [CPU_ALU] |473| 
        ADD       ACC,#127 << 8         ; [CPU_ALU] |473| 
        MOVL      XAR4,ACC              ; [CPU_ALU] |473| 
        MOVL      *+XAR4[2],XAR6        ; [CPU_ALU] |473| 
	.dwpsn	file "../sources/dual_axis_servo_drive.c",line 2499,column 13,is_stmt,isa 0
        B         ||$C$L12||,UNC        ; [CPU_ALU] |2499| 
        ; branch occurs ; [] |2499| 
||$C$L11||:    
	.dwpsn	file "../sources/dual_axis_servo_drive.c",line 2484,column 9,is_stmt,isa 0
        MOVL      XAR0,#326             ; [CPU_ALU] |2484| 
        MOV       AL,*+XAR2[AR0]        ; [CPU_ALU] |2484| 
        B         ||$C$L12||,NEQ        ; [CPU_ALU] |2484| 
        ; branchcc occurs ; [] |2484| 
	.dwpsn	file "../sources/dual_axis_servo_drive.c",line 2486,column 13,is_stmt,isa 0
        MOVB      *+XAR2[AR0],#1,UNC    ; [CPU_ALU] |2486| 
	.dwpsn	file "D:/TI/c2000/C2000Ware_MotorControl_SDK_5_04_00_00/c2000ware/driverlib/f2837xd/driverlib/gpio.h",line 469,column 9,is_stmt,isa 0
        MOVL      XAR0,#320             ; [CPU_ALU] |469| 
        MOVZ      AR7,*+XAR2[AR0]       ; [CPU_ALU] |469| 
        MOVB      ACC,#1                ; [CPU_ALU] |469| 
        MOVL      XAR6,ACC              ; [CPU_ALU] |469| 
        CLRC      SXM                   ; [CPU_ALU] 
        AND       AL,AR7,#0x001f        ; [CPU_ALU] |469| 
        MOVZ      AR4,AR7               ; [CPU_ALU] |469| 
        MOV       T,AL                  ; [CPU_ALU] |469| 
        MOVL      ACC,XAR6              ; [CPU_ALU] |469| 
        LSLL      ACC,T                 ; [CPU_ALU] |469| 
        MOVL      XAR6,ACC              ; [CPU_ALU] |469| 
        MOVL      ACC,XAR4              ; [CPU_ALU] |469| 
        SFR       ACC,5                 ; [CPU_ALU] |469| 
        LSL       ACC,2                 ; [CPU_ALU] |469| 
        LSL       ACC,1                 ; [CPU_ALU] |469| 
        ADD       ACC,#127 << 8         ; [CPU_ALU] |469| 
        MOVL      XAR4,ACC              ; [CPU_ALU] |469| 
        MOVL      *+XAR4[4],XAR6        ; [CPU_ALU] |469| 
||$C$L12||:    
        SUBB      SP,#2                 ; [CPU_ARAU] 
	.dwcfi	cfa_offset, -8
        MOVL      XAR3,*--SP            ; [CPU_ALU] 
	.dwcfi	cfa_offset, -6
	.dwcfi	restore_reg, 11
        MOVL      XAR2,*--SP            ; [CPU_ALU] 
	.dwcfi	cfa_offset, -4
	.dwcfi	restore_reg, 9
        MOVL      XAR1,*--SP            ; [CPU_ALU] 
	.dwcfi	cfa_offset, -2
	.dwcfi	restore_reg, 7
$C$DW$114	.dwtag  DW_TAG_TI_branch
	.dwattr $C$DW$114, DW_AT_low_pc(0x00)
	.dwattr $C$DW$114, DW_AT_TI_return

        LRETR     ; [CPU_ALU] 
        ; return occurs ; [] 
	.dwattr $C$DW$95, DW_AT_TI_end_file("../sources/dual_axis_servo_drive.c")
	.dwattr $C$DW$95, DW_AT_TI_end_line(0x9c8)
	.dwattr $C$DW$95, DW_AT_TI_end_column(0x01)
	.dwendentry
	.dwendtag $C$DW$95

	.sect	".text:ramper"
	.clink
	.global	||ramper||

$C$DW$115	.dwtag  DW_TAG_subprogram
	.dwattr $C$DW$115, DW_AT_name("ramper")
	.dwattr $C$DW$115, DW_AT_low_pc(||ramper||)
	.dwattr $C$DW$115, DW_AT_high_pc(0x00)
	.dwattr $C$DW$115, DW_AT_linkage_name("ramper")
	.dwattr $C$DW$115, DW_AT_external
	.dwattr $C$DW$115, DW_AT_type(*$C$DW$T$19)
	.dwattr $C$DW$115, DW_AT_decl_file("../sources/dual_axis_servo_drive.c")
	.dwattr $C$DW$115, DW_AT_decl_line(0x920)
	.dwattr $C$DW$115, DW_AT_decl_column(0x0b)
	.dwattr $C$DW$115, DW_AT_TI_max_frame_size(-6)
	.dwpsn	file "../sources/dual_axis_servo_drive.c",line 2337,column 1,is_stmt,address ||ramper||,isa 0

	.dwfde $C$DW$CIE, ||ramper||
$C$DW$116	.dwtag  DW_TAG_formal_parameter
	.dwattr $C$DW$116, DW_AT_name("in")
	.dwattr $C$DW$116, DW_AT_type(*$C$DW$T$19)
	.dwattr $C$DW$116, DW_AT_location[DW_OP_regx 0x2b]

$C$DW$117	.dwtag  DW_TAG_formal_parameter
	.dwattr $C$DW$117, DW_AT_name("out")
	.dwattr $C$DW$117, DW_AT_type(*$C$DW$T$19)
	.dwattr $C$DW$117, DW_AT_location[DW_OP_regx 0x2f]

$C$DW$118	.dwtag  DW_TAG_formal_parameter
	.dwattr $C$DW$118, DW_AT_name("rampDelta")
	.dwattr $C$DW$118, DW_AT_type(*$C$DW$T$19)
	.dwattr $C$DW$118, DW_AT_location[DW_OP_regx 0x33]


;***************************************************************
;* FNAME: ramper                        FR SIZE:   4           *
;*                                                             *
;* FUNCTION ENVIRONMENT                                        *
;*                                                             *
;* FUNCTION PROPERTIES                                         *
;*                            2 Parameter,  0 Auto,  2 SOE     *
;***************************************************************

||ramper||:
;* R4    assigned to $O$K3
;* R0    assigned to in
$C$DW$119	.dwtag  DW_TAG_variable
	.dwattr $C$DW$119, DW_AT_name("in")
	.dwattr $C$DW$119, DW_AT_type(*$C$DW$T$173)
	.dwattr $C$DW$119, DW_AT_location[DW_OP_regx 0x2b]

;* R1    assigned to out
$C$DW$120	.dwtag  DW_TAG_variable
	.dwattr $C$DW$120, DW_AT_name("out")
	.dwattr $C$DW$120, DW_AT_type(*$C$DW$T$173)
	.dwattr $C$DW$120, DW_AT_location[DW_OP_regx 0x2f]

;* R2    assigned to rampDelta
$C$DW$121	.dwtag  DW_TAG_variable
	.dwattr $C$DW$121, DW_AT_name("rampDelta")
	.dwattr $C$DW$121, DW_AT_type(*$C$DW$T$173)
	.dwattr $C$DW$121, DW_AT_location[DW_OP_regx 0x33]

	.dwcfi	cfa_offset, -2
	.dwcfi	save_reg_to_mem, 26, 0
        MOV32     *SP++,R4H             ; [CPU_FPU] 
	.dwcfi	save_reg_to_mem, 59, 2
	.dwcfi	cfa_offset, -4
        ADDB      SP,#2                 ; [CPU_ARAU] 
	.dwcfi	cfa_offset, -6
	.dwpsn	file "../sources/dual_axis_servo_drive.c",line 2342,column 5,is_stmt,isa 0
        SUBF32    R4H,R0H,R1H           ; [CPU_FPU] |2342| 
        NOP       ; [CPU_ALU] 
	.dwpsn	file "../sources/dual_axis_servo_drive.c",line 2344,column 9,is_stmt,isa 0
        CMPF32    R4H,R2H               ; [CPU_FPU] |2344| 
        MOVST0    ZF, NF                ; [CPU_FPU] |2344| 
        B         ||$C$L13||,LEQ        ; [CPU_ALU] |2344| 
        ; branchcc occurs ; [] |2344| 
        ADDF32    R0H,R2H,R1H           ; [CPU_FPU] |2344| 
        B         ||$C$L14||,UNC        ; [CPU_ALU] |2344| 
        ; branch occurs ; [] |2344| 
||$C$L13||:    
        MOV32     R3H,R2H               ; [CPU_FPU] |2344| 
        NEGF32    R3H,R3H               ; [CPU_FPU] |2344| 
        CMPF32    R4H,R3H               ; [CPU_FPU] |2344| 
        MOVST0    ZF, NF                ; [CPU_FPU] |2344| 
        B         ||$C$L14||,GEQ        ; [CPU_ALU] |2344| 
        ; branchcc occurs ; [] |2344| 
        SUBF32    R0H,R1H,R2H           ; [CPU_FPU] |2344| 
        NOP       ; [CPU_ALU] 
||$C$L14||:    
        SUBB      SP,#2                 ; [CPU_ARAU] 
	.dwcfi	cfa_offset, -4
        MOV32     R4H,*--SP             ; [CPU_FPU] 
	.dwcfi	cfa_offset, -2
	.dwcfi	restore_reg, 59
$C$DW$122	.dwtag  DW_TAG_TI_branch
	.dwattr $C$DW$122, DW_AT_low_pc(0x00)
	.dwattr $C$DW$122, DW_AT_TI_return

        LRETR     ; [CPU_ALU] 
        ; return occurs ; [] 
	.dwattr $C$DW$115, DW_AT_TI_end_file("../sources/dual_axis_servo_drive.c")
	.dwattr $C$DW$115, DW_AT_TI_end_line(0x932)
	.dwattr $C$DW$115, DW_AT_TI_end_column(0x01)
	.dwendentry
	.dwendtag $C$DW$115

	.sect	".text:refPosGen"
	.clink
	.global	||refPosGen||

$C$DW$123	.dwtag  DW_TAG_subprogram
	.dwattr $C$DW$123, DW_AT_name("refPosGen")
	.dwattr $C$DW$123, DW_AT_low_pc(||refPosGen||)
	.dwattr $C$DW$123, DW_AT_high_pc(0x00)
	.dwattr $C$DW$123, DW_AT_linkage_name("refPosGen")
	.dwattr $C$DW$123, DW_AT_external
	.dwattr $C$DW$123, DW_AT_type(*$C$DW$T$19)
	.dwattr $C$DW$123, DW_AT_decl_file("../sources/dual_axis_servo_drive.c")
	.dwattr $C$DW$123, DW_AT_decl_line(0x937)
	.dwattr $C$DW$123, DW_AT_decl_column(0x0b)
	.dwattr $C$DW$123, DW_AT_TI_max_frame_size(-6)
	.dwpsn	file "../sources/dual_axis_servo_drive.c",line 2360,column 1,is_stmt,address ||refPosGen||,isa 0

	.dwfde $C$DW$CIE, ||refPosGen||
$C$DW$124	.dwtag  DW_TAG_formal_parameter
	.dwattr $C$DW$124, DW_AT_name("out")
	.dwattr $C$DW$124, DW_AT_type(*$C$DW$T$19)
	.dwattr $C$DW$124, DW_AT_location[DW_OP_regx 0x2b]

$C$DW$125	.dwtag  DW_TAG_formal_parameter
	.dwattr $C$DW$125, DW_AT_name("pMotor")
	.dwattr $C$DW$125, DW_AT_type(*$C$DW$T$148)
	.dwattr $C$DW$125, DW_AT_location[DW_OP_reg12]


;***************************************************************
;* FNAME: refPosGen                     FR SIZE:   4           *
;*                                                             *
;* FUNCTION ENVIRONMENT                                        *
;*                                                             *
;* FUNCTION PROPERTIES                                         *
;*                            2 Parameter,  0 Auto,  2 SOE     *
;***************************************************************

||refPosGen||:
;* R4    assigned to $O$C16
;* R0    assigned to out
$C$DW$126	.dwtag  DW_TAG_variable
	.dwattr $C$DW$126, DW_AT_name("out")
	.dwattr $C$DW$126, DW_AT_type(*$C$DW$T$19)
	.dwattr $C$DW$126, DW_AT_location[DW_OP_regx 0x2b]

;* AR4   assigned to pMotor
$C$DW$127	.dwtag  DW_TAG_variable
	.dwattr $C$DW$127, DW_AT_name("pMotor")
	.dwattr $C$DW$127, DW_AT_type(*$C$DW$T$149)
	.dwattr $C$DW$127, DW_AT_location[DW_OP_reg12]

;* R4    assigned to in
$C$DW$128	.dwtag  DW_TAG_variable
	.dwattr $C$DW$128, DW_AT_name("in")
	.dwattr $C$DW$128, DW_AT_type(*$C$DW$T$19)
	.dwattr $C$DW$128, DW_AT_location[DW_OP_regx 0x3b]

	.dwcfi	cfa_offset, -2
	.dwcfi	save_reg_to_mem, 26, 0
        MOV32     *SP++,R4H             ; [CPU_FPU] 
	.dwcfi	save_reg_to_mem, 59, 2
	.dwcfi	cfa_offset, -4
        ADDB      SP,#2                 ; [CPU_ARAU] 
	.dwcfi	cfa_offset, -6
	.dwpsn	file "../sources/dual_axis_servo_drive.c",line 2361,column 18,is_stmt,isa 0
        MOVL      XAR0,#317             ; [CPU_ALU] |2361| 
        CLRC      SXM                   ; [CPU_ALU] 
        MOVL      XAR5,#||posArray||    ; [CPU_ARAU] |2361| 
        MOV       ACC,*+XAR4[AR0] << 1  ; [CPU_ALU] |2361| 
        ADDL      XAR5,ACC              ; [CPU_ALU] |2361| 
	.dwpsn	file "../sources/dual_axis_servo_drive.c",line 2363,column 5,is_stmt,isa 0
        MOV32     R2H,*+XAR4[4]         ; [CPU_FPU] |2363| 
        MOV32     R1H,R0H               ; [CPU_FPU] |2363| 
	.dwpsn	file "../sources/dual_axis_servo_drive.c",line 2361,column 18,is_stmt,isa 0
        MOV32     R4H,*+XAR5[0]         ; [CPU_FPU] |2361| 
	.dwpsn	file "../sources/dual_axis_servo_drive.c",line 2363,column 5,is_stmt,isa 0
        MOV32     R0H,R4H               ; [CPU_FPU] |2363| 
$C$DW$129	.dwtag  DW_TAG_TI_branch
	.dwattr $C$DW$129, DW_AT_low_pc(0x00)
	.dwattr $C$DW$129, DW_AT_name("ramper")
	.dwattr $C$DW$129, DW_AT_TI_call

        LCR       #||ramper||           ; [CPU_ALU] |2363| 
        ; call occurs [#||ramper||] ; [] |2363| 
	.dwpsn	file "../sources/dual_axis_servo_drive.c",line 2365,column 5,is_stmt,isa 0
        CMPF32    R4H,R0H               ; [CPU_FPU] |2365| 
        MOVST0    ZF, NF                ; [CPU_FPU] |2365| 
        B         ||$C$L15||,NEQ        ; [CPU_ALU] |2365| 
        ; branchcc occurs ; [] |2365| 
	.dwpsn	file "../sources/dual_axis_servo_drive.c",line 2367,column 9,is_stmt,isa 0
        MOVB      ACC,#1                ; [CPU_ALU] |2367| 
        ADDL      *+XAR4[0],ACC         ; [CPU_ALU] |2367| 
	.dwpsn	file "../sources/dual_axis_servo_drive.c",line 2369,column 9,is_stmt,isa 0
        MOVL      ACC,*+XAR4[2]         ; [CPU_ALU] |2369| 
        CMPL      ACC,*+XAR4[0]         ; [CPU_ALU] |2369| 
        B         ||$C$L15||,HIS        ; [CPU_ALU] |2369| 
        ; branchcc occurs ; [] |2369| 
	.dwpsn	file "../sources/dual_axis_servo_drive.c",line 2373,column 13,is_stmt,isa 0
        MOVL      ACC,XAR4              ; [CPU_ALU] |2373| 
	.dwpsn	file "../sources/dual_axis_servo_drive.c",line 2375,column 13,is_stmt,isa 0
        MOVL      XAR0,#316             ; [CPU_ALU] |2375| 
	.dwpsn	file "../sources/dual_axis_servo_drive.c",line 2371,column 13,is_stmt,isa 0
        MOVB      XAR6,#0               ; [CPU_ALU] |2371| 
	.dwpsn	file "../sources/dual_axis_servo_drive.c",line 2373,column 13,is_stmt,isa 0
        ADD       ACC,#317 << 0         ; [CPU_ALU] |2373| 
        MOVL      XAR5,ACC              ; [CPU_ALU] |2373| 
	.dwpsn	file "../sources/dual_axis_servo_drive.c",line 2375,column 13,is_stmt,isa 0
        MOV       AL,*+XAR4[AR0]        ; [CPU_ALU] |2375| 
	.dwpsn	file "../sources/dual_axis_servo_drive.c",line 2371,column 13,is_stmt,isa 0
        MOVL      *+XAR4[0],XAR6        ; [CPU_ALU] |2371| 
	.dwpsn	file "../sources/dual_axis_servo_drive.c",line 2375,column 13,is_stmt,isa 0
        MOVL      XAR0,#317             ; [CPU_ALU] |2375| 
	.dwpsn	file "../sources/dual_axis_servo_drive.c",line 2373,column 13,is_stmt,isa 0
        INC       *+XAR5[0]             ; [CPU_ALU] |2373| 
	.dwpsn	file "../sources/dual_axis_servo_drive.c",line 2375,column 13,is_stmt,isa 0
        CMP       AL,*+XAR4[AR0]        ; [CPU_ALU] |2375| 
        B         ||$C$L15||,HI         ; [CPU_ALU] |2375| 
        ; branchcc occurs ; [] |2375| 
	.dwpsn	file "../sources/dual_axis_servo_drive.c",line 2377,column 17,is_stmt,isa 0
        MOV       *+XAR4[AR0],#0        ; [CPU_ALU] |2377| 
||$C$L15||:    
        SUBB      SP,#2                 ; [CPU_ARAU] 
	.dwcfi	cfa_offset, -4
        MOV32     R4H,*--SP             ; [CPU_FPU] 
	.dwcfi	cfa_offset, -2
	.dwcfi	restore_reg, 59
$C$DW$130	.dwtag  DW_TAG_TI_branch
	.dwattr $C$DW$130, DW_AT_low_pc(0x00)
	.dwattr $C$DW$130, DW_AT_TI_return

        LRETR     ; [CPU_ALU] 
        ; return occurs ; [] 
	.dwattr $C$DW$123, DW_AT_TI_end_file("../sources/dual_axis_servo_drive.c")
	.dwattr $C$DW$123, DW_AT_TI_end_line(0x94f)
	.dwattr $C$DW$123, DW_AT_TI_end_column(0x01)
	.dwendentry
	.dwendtag $C$DW$123

	.sect	".text:motor2ControlISR"
	.align	2
	.retain
	.retainrefs
	.global	||motor2ControlISR||

$C$DW$131	.dwtag  DW_TAG_subprogram
	.dwattr $C$DW$131, DW_AT_name("motor2ControlISR")
	.dwattr $C$DW$131, DW_AT_low_pc(||motor2ControlISR||)
	.dwattr $C$DW$131, DW_AT_high_pc(0x00)
	.dwattr $C$DW$131, DW_AT_linkage_name("motor2ControlISR")
	.dwattr $C$DW$131, DW_AT_external
	.dwattr $C$DW$131, DW_AT_decl_file("../sources/dual_axis_servo_drive.c")
	.dwattr $C$DW$131, DW_AT_decl_line(0x8fe)
	.dwattr $C$DW$131, DW_AT_decl_column(0x12)
	.dwattr $C$DW$131, DW_AT_TI_interrupt
	.dwattr $C$DW$131, DW_AT_TI_max_frame_size(-34)
	.dwpsn	file "../sources/dual_axis_servo_drive.c",line 2303,column 1,is_stmt,address ||motor2ControlISR||,isa 0

	.dwfde $C$DW$CIE, ||motor2ControlISR||

;***************************************************************
;* FNAME: motor2ControlISR              FR SIZE:  32           *
;*                                                             *
;* FUNCTION ENVIRONMENT                                        *
;*                                                             *
;* FUNCTION PROPERTIES                                         *
;*                            2 Parameter,  0 Auto, 30 SOE     *
;***************************************************************

||motor2ControlISR||:
;* AR5   assigned to $O$C6
;* AR4   assigned to $O$C7
;* AR4   assigned to $O$C8
;* AR4   assigned to $O$C9
;* AR4   assigned to $O$C10
;* AR5   assigned to $O$C11
;* AR4   assigned to $O$C12
;* AR4   assigned to $O$C13
;* AR4   assigned to $O$C14
;* AR4   assigned to $O$C15
;* AR5   assigned to $O$C16
;* AR3   assigned to $O$C17
;* AL    assigned to $O$C18
;* AR4   assigned to $O$C19
;* AR4   assigned to $O$C20
;* AR2   assigned to $O$C21
;* AL    assigned to $O$U59
;* AR2   assigned to $O$K3
;* R0    assigned to $O$U116
;* AL    assigned to $O$R1
;* AL    assigned to $O$R2
;* R0    assigned to $O$S1
;* R0    assigned to $O$S2
;* R1    assigned to vdc
$C$DW$132	.dwtag  DW_TAG_variable
	.dwattr $C$DW$132, DW_AT_name("vdc")
	.dwattr $C$DW$132, DW_AT_type(*$C$DW$T$19)
	.dwattr $C$DW$132, DW_AT_location[DW_OP_regx 0x2f]

;* AR4   assigned to in
$C$DW$133	.dwtag  DW_TAG_variable
	.dwattr $C$DW$133, DW_AT_name("in")
	.dwattr $C$DW$133, DW_AT_type(*$C$DW$T$115)
	.dwattr $C$DW$133, DW_AT_location[DW_OP_reg12]

;* R0    assigned to $O$S1
	.dwcfi	cfa_offset, -2
	.dwcfi	save_reg_to_mem, 26, 0
        ASP       ; [CPU_ALU] 
        PUSH      RB                    ; [CPU_FPU] 
	.dwcfi	save_reg_to_mem, 74, 4
	.dwcfi	cfa_offset, -4
        PUSH      AR1H:AR0H             ; [CPU_ALU] 
	.dwcfi	save_reg_to_mem, 5, 4
	.dwcfi	save_reg_to_mem, 7, 5
	.dwcfi	cfa_offset, -6
        MOVL      *SP++,XT              ; [CPU_ALU] 
	.dwcfi	save_reg_to_mem, 21, 6
	.dwcfi	save_reg_to_mem, 22, 7
	.dwcfi	cfa_offset, -8
        MOVL      *SP++,XAR2            ; [CPU_ALU] 
	.dwcfi	save_reg_to_mem, 8, 8
	.dwcfi	save_reg_to_mem, 9, 9
	.dwcfi	cfa_offset, -10
        MOVL      *SP++,XAR3            ; [CPU_ALU] 
	.dwcfi	save_reg_to_mem, 10, 10
	.dwcfi	save_reg_to_mem, 11, 11
	.dwcfi	cfa_offset, -12
        MOVL      *SP++,XAR4            ; [CPU_ALU] 
	.dwcfi	save_reg_to_mem, 12, 12
	.dwcfi	save_reg_to_mem, 13, 13
	.dwcfi	cfa_offset, -14
        MOVL      *SP++,XAR5            ; [CPU_ALU] 
	.dwcfi	save_reg_to_mem, 14, 14
	.dwcfi	save_reg_to_mem, 15, 15
	.dwcfi	cfa_offset, -16
        MOVL      *SP++,XAR6            ; [CPU_ALU] 
	.dwcfi	save_reg_to_mem, 16, 16
	.dwcfi	save_reg_to_mem, 17, 17
	.dwcfi	cfa_offset, -18
        MOVL      *SP++,XAR7            ; [CPU_ALU] 
	.dwcfi	save_reg_to_mem, 18, 18
	.dwcfi	save_reg_to_mem, 19, 19
	.dwcfi	cfa_offset, -20
        MOV32     *SP++,STF             ; [CPU_FPU] 
	.dwcfi	save_reg_to_mem, 40, 22
	.dwcfi	cfa_offset, -22
        MOV32     *SP++,R0H             ; [CPU_FPU] 
	.dwcfi	save_reg_to_mem, 43, 24
	.dwcfi	cfa_offset, -24
        MOV32     *SP++,R1H             ; [CPU_FPU] 
	.dwcfi	save_reg_to_mem, 47, 26
	.dwcfi	cfa_offset, -26
        MOV32     *SP++,R2H             ; [CPU_FPU] 
	.dwcfi	save_reg_to_mem, 51, 28
	.dwcfi	cfa_offset, -28
        MOV32     *SP++,R3H             ; [CPU_FPU] 
	.dwcfi	save_reg_to_mem, 55, 30
	.dwcfi	cfa_offset, -30
        MOV32     *SP++,R4H             ; [CPU_FPU] 
	.dwcfi	save_reg_to_mem, 59, 32
	.dwcfi	cfa_offset, -32
        SETFLG    RNDF32=1, RNDF64=1    ; [CPU_FPU] 
        ADDB      SP,#2                 ; [CPU_ARAU] 
	.dwcfi	cfa_offset, -34
        SPM       0                     ; [CPU_ALU] 
        CLRC      PAGE0,OVM             ; [CPU_ALU] 
        CLRC      AMODE                 ; [CPU_ALU] 
	.dwpsn	file "../sources/dual_axis_servo_drive.c",line 1586,column 5,is_stmt,isa 0
        MOVL      XAR2,#||motorVars||+332 ; [CPU_ARAU] |1586| 
        MOVL      XAR4,XAR2             ; [CPU_ALU] |1586| 
$C$DW$134	.dwtag  DW_TAG_TI_branch
	.dwattr $C$DW$134, DW_AT_low_pc(0x00)
	.dwattr $C$DW$134, DW_AT_name("FCL_runPICtrl_M2")
	.dwattr $C$DW$134, DW_AT_TI_call

        LCR       #||FCL_runPICtrl_M2|| ; [CPU_ALU] |1586| 
        ; call occurs [#||FCL_runPICtrl_M2||] ; [] |1586| 
        MOVW      DP,#||halMtrHandle||+2 ; [CPU_ARAU] 
	.dwpsn	file "D:/TI/c2000/C2000Ware_MotorControl_SDK_5_04_00_00/c2000ware/driverlib/f2837xd/driverlib/epwm.h",line 1987,column 5,is_stmt,isa 0
        MOVL      XAR4,@||halMtrHandle||+2 ; [CPU_ALU] |1987| 
        MOVL      XAR4,*+XAR4[0]        ; [CPU_ALU] |1987| 
        MOVW      DP,#||FCL_cycleCount||+1 ; [CPU_ARAU] 
        MOV       AL,*+XAR4[4]          ; [CPU_ALU] |1987| 
	.dwpsn	file "D:/TI/c2000/C2000Ware_MotorControl_SDK_5_04_00_00/solutions/common/sensored_foc/include/dual_axis_servo_drive.h",line 187,column 5,is_stmt,isa 0
        CMP       AL,@||FCL_cycleCount||+1 ; [CPU_ALU] |187| 
        B         ||$C$L16||,HIS        ; [CPU_ALU] |187| 
        ; branchcc occurs ; [] |187| 
        MOVW      DP,#||halMtrHandle||+2 ; [CPU_ARAU] 
	.dwpsn	file "D:/TI/c2000/C2000Ware_MotorControl_SDK_5_04_00_00/c2000ware/driverlib/f2837xd/driverlib/epwm.h",line 2207,column 5,is_stmt,isa 0
        MOVL      XAR5,@||halMtrHandle||+2 ; [CPU_ALU] |2207| 
        MOVB      ACC,#99               ; [CPU_ALU] |2207| 
        ADDL      ACC,*+XAR5[0]         ; [CPU_ALU] |2207| 
        MOVL      XAR4,ACC              ; [CPU_ALU] |2207| 
        MOVW      DP,#||FCL_cycleCount||+1 ; [CPU_ARAU] 
        MOV       AL,*+XAR4[0]          ; [CPU_ALU] |2207| 
	.dwpsn	file "D:/TI/c2000/C2000Ware_MotorControl_SDK_5_04_00_00/solutions/common/sensored_foc/include/dual_axis_servo_drive.h",line 190,column 9,is_stmt,isa 0
        SUBR      @||FCL_cycleCount||+1,AL ; [CPU_ALU] |190| 
||$C$L16||:    
	.dwpsn	file "D:/TI/c2000/C2000Ware_MotorControl_SDK_5_04_00_00/solutions/common/sensored_foc/include/dual_axis_servo_drive.h",line 195,column 5,is_stmt,isa 0
        MOV       AL,@||FCL_cycleCount||+1 ; [CPU_ALU] |195| 
        MOVW      DP,#||motorVars||+643 ; [CPU_ARAU] 
        CMP       AL,@||motorVars||+643 ; [CPU_ALU] |195| 
        B         ||$C$L17||,LOS        ; [CPU_ALU] |195| 
        ; branchcc occurs ; [] |195| 
        MOVW      DP,#||FCL_cycleCount||+1 ; [CPU_ARAU] 
	.dwpsn	file "D:/TI/c2000/C2000Ware_MotorControl_SDK_5_04_00_00/solutions/common/sensored_foc/include/dual_axis_servo_drive.h",line 197,column 9,is_stmt,isa 0
        MOV       AL,@||FCL_cycleCount||+1 ; [CPU_ALU] |197| 
        MOVW      DP,#||motorVars||+643 ; [CPU_ARAU] 
        MOV       @||motorVars||+643,AL ; [CPU_ALU] |197| 
||$C$L17||:    
	.dwpsn	file "D:/TI/c2000/C2000Ware_MotorControl_SDK_5_04_00_00/solutions/common/sensored_foc/include/dual_axis_servo_drive.h",line 201,column 5,is_stmt,isa 0
        MOVL      XAR4,#||motorVars||   ; [CPU_ARAU] |201| 
        MOVL      XAR0,#642             ; [CPU_ALU] |201| 
        MOV       AL,*+XAR4[AR0]        ; [CPU_ALU] |201| 
        B         ||$C$L18||,EQ         ; [CPU_ALU] |201| 
        ; branchcc occurs ; [] |201| 
        MOVW      DP,#||motorVars||+642 ; [CPU_ARAU] 
	.dwpsn	file "D:/TI/c2000/C2000Ware_MotorControl_SDK_5_04_00_00/solutions/common/sensored_foc/include/dual_axis_servo_drive.h",line 203,column 9,is_stmt,isa 0
        MOVL      XAR0,#643             ; [CPU_ALU] |203| 
	.dwpsn	file "D:/TI/c2000/C2000Ware_MotorControl_SDK_5_04_00_00/solutions/common/sensored_foc/include/dual_axis_servo_drive.h",line 204,column 9,is_stmt,isa 0
        MOV       @||motorVars||+642,#0 ; [CPU_ALU] |204| 
	.dwpsn	file "D:/TI/c2000/C2000Ware_MotorControl_SDK_5_04_00_00/solutions/common/sensored_foc/include/dual_axis_servo_drive.h",line 203,column 9,is_stmt,isa 0
        MOV       *+XAR4[AR0],#0        ; [CPU_ALU] |203| 
||$C$L18||:    
	.dwpsn	file "D:/TI/c2000/C2000Ware_MotorControl_SDK_5_04_00_00/solutions/common/sensored_foc/include/dual_axis_servo_drive.h",line 223,column 5,is_stmt,isa 0
        MOVL      XAR0,#404             ; [CPU_ALU] |223| 
        MOVL      XAR1,#380             ; [CPU_ALU] |223| 
        MOVL      XAR5,*+XAR4[AR0]      ; [CPU_ALU] |223| 
	.dwpsn	file "D:/TI/c2000/C2000Ware_MotorControl_SDK_5_04_00_00/solutions/common/sensored_foc/include/dual_axis_servo_drive.h",line 208,column 5,is_stmt,isa 0
        MOVIZ     R0H,#15395            ; [CPU_FPU] |208| 
	.dwpsn	file "D:/TI/c2000/C2000Ware_MotorControl_SDK_5_04_00_00/solutions/common/sensored_foc/include/dual_axis_servo_drive.h",line 223,column 5,is_stmt,isa 0
        MOV32     R2H,*+XAR4[AR1]       ; [CPU_FPU] |223| 
	.dwpsn	file "D:/TI/c2000/C2000Ware_MotorControl_SDK_5_04_00_00/solutions/common/sensored_foc/include/dual_axis_servo_drive.h",line 208,column 5,is_stmt,isa 0
        MOVL      XAR0,#643             ; [CPU_ALU] |208| 
	.dwpsn	file "../sources/dual_axis_servo_drive.c",line 1602,column 5,is_stmt,isa 0
        MOVL      XAR3,#||motorVars||   ; [CPU_ARAU] |1602| 
	.dwpsn	file "D:/TI/c2000/C2000Ware_MotorControl_SDK_5_04_00_00/solutions/common/sensored_foc/include/dual_axis_servo_drive.h",line 208,column 5,is_stmt,isa 0
        UI16TOF32 R3H,*+XAR4[AR0]       ; [CPU_FPU] |208| 
        MOVL      XAR1,#640             ; [CPU_ALU] |208| 
        MOVXI     R0H,#55050            ; [CPU_FPU] |208| 
	.dwpsn	file "D:/TI/c2000/C2000Ware_MotorControl_SDK_5_04_00_00/solutions/common/sensored_foc/include/dual_axis_servo_drive.h",line 223,column 5,is_stmt,isa 0
        UI16TOF32 R1H,*+XAR5[0]         ; [CPU_FPU] |223| 
	.dwpsn	file "../sources/dual_axis_servo_drive.c",line 1602,column 5,is_stmt,isa 0
        MOVL      XAR0,#606             ; [CPU_ALU] |1602| 
	.dwpsn	file "D:/TI/c2000/C2000Ware_MotorControl_SDK_5_04_00_00/solutions/common/sensored_foc/include/dual_axis_servo_drive.h",line 208,column 5,is_stmt,isa 0
        MPYF32    R0H,R0H,R3H           ; [CPU_FPU] |208| 
	.dwpsn	file "D:/TI/c2000/C2000Ware_MotorControl_SDK_5_04_00_00/solutions/common/sensored_foc/include/dual_axis_servo_drive.h",line 223,column 5,is_stmt,isa 0
        MPYF32    R1H,R2H,R1H           ; [CPU_FPU] |223| 
	.dwpsn	file "D:/TI/c2000/C2000Ware_MotorControl_SDK_5_04_00_00/solutions/common/sensored_foc/include/dual_axis_servo_drive.h",line 208,column 5,is_stmt,isa 0
        MOV32     *+XAR4[AR1],R0H       ; [CPU_FPU] |208| 
	.dwpsn	file "D:/TI/c2000/C2000Ware_MotorControl_SDK_5_04_00_00/solutions/common/sensored_foc/include/dual_axis_servo_drive.h",line 227,column 9,is_stmt,isa 0
        MAXF32    R1H,#16256            ; [CPU_FPU] |227| 
	.dwpsn	file "../sources/dual_axis_servo_drive.c",line 1608,column 5,is_stmt,isa 0
        MOVL      XAR4,XAR2             ; [CPU_ALU] |1608| 
	.dwpsn	file "../sources/dual_axis_servo_drive.c",line 1602,column 5,is_stmt,isa 0
        MOV32     *+XAR3[AR0],R1H       ; [CPU_FPU] |1602| 
	.dwpsn	file "../sources/dual_axis_servo_drive.c",line 1608,column 5,is_stmt,isa 0
$C$DW$135	.dwtag  DW_TAG_TI_branch
	.dwattr $C$DW$135, DW_AT_low_pc(0x00)
	.dwattr $C$DW$135, DW_AT_name("FCL_runPICtrlWrap_M2")
	.dwattr $C$DW$135, DW_AT_TI_call

        LCR       #||FCL_runPICtrlWrap_M2|| ; [CPU_ALU] |1608| 
        ; call occurs [#||FCL_runPICtrlWrap_M2||] ; [] |1608| 
	.dwpsn	file "../sources/dual_axis_servo_drive.c",line 1620,column 5,is_stmt,isa 0
        MOVL      XAR0,#658             ; [CPU_ALU] |1620| 
        MOV       AL,*+XAR3[AR0]        ; [CPU_ALU] |1620| 
        CMPB      AL,#1                 ; [CPU_ALU] |1620| 
        B         ||$C$L26||,NEQ        ; [CPU_ALU] |1620| 
        ; branchcc occurs ; [] |1620| 
	.dwpsn	file "../sources/dual_axis_servo_drive.c",line 1622,column 9,is_stmt,isa 0
        MOVL      XAR0,#612             ; [CPU_ALU] |1622| 
        MOVL      XAR4,*+XAR3[AR0]      ; [CPU_ALU] |1622| 
        MOV       AL,*+XAR4[0]          ; [CPU_ALU] |1622| 
        CMPB      AL,#2                 ; [CPU_ALU] |1622| 
        B         ||$C$L25||,EQ         ; [CPU_ALU] |1622| 
        ; branchcc occurs ; [] |1622| 
	.dwpsn	file "../sources/dual_axis_servo_drive.c",line 1627,column 14,is_stmt,isa 0
        CMPB      AL,#1                 ; [CPU_ALU] |1627| 
        B         ||$C$L19||,EQ         ; [CPU_ALU] |1627| 
        ; branchcc occurs ; [] |1627| 
	.dwpsn	file "../sources/dual_axis_servo_drive.c",line 1639,column 14,is_stmt,isa 0
        CMPB      AL,#0                 ; [CPU_ALU] |1639| 
        B         ||$C$L27||,NEQ        ; [CPU_ALU] |1639| 
        ; branchcc occurs ; [] |1639| 
	.dwpsn	file "../sources/dual_axis_servo_drive.c",line 1641,column 13,is_stmt,isa 0
        MOVL      XAR0,#422             ; [CPU_ALU] |1641| 
        ZERO      R0H                   ; [CPU_FPU] |1641| 
        MOV32     *+XAR3[AR0],R0H       ; [CPU_FPU] |1641| 
        MOVW      DP,#||motorVars||+356 ; [CPU_ARAU] 
	.dwpsn	file "../sources/dual_axis_servo_drive.c",line 1642,column 13,is_stmt,isa 0
        ZERO      R2H                   ; [CPU_FPU] |1642| 
	.dwpsn	file "../sources/dual_axis_servo_drive.c",line 1645,column 13,is_stmt,isa 0
        MOVL      XAR0,#352             ; [CPU_ALU] |1645| 
        MOVL      ACC,*+XAR3[AR0]       ; [CPU_ALU] |1645| 
        MOVL      XAR0,#356             ; [CPU_ALU] |1645| 
        MOVL      *+XAR3[AR0],ACC       ; [CPU_ALU] |1645| 
	.dwpsn	file "../sources/dual_axis_servo_drive.c",line 1648,column 13,is_stmt,isa 0
        MOVL      XAR0,#350             ; [CPU_ALU] |1648| 
        MOV32     R1H,*+XAR3[AR0]       ; [CPU_FPU] |1648| 
	.dwpsn	file "../sources/dual_axis_servo_drive.c",line 1642,column 13,is_stmt,isa 0
        MOVL      XAR0,#432             ; [CPU_ALU] |1642| 
	.dwpsn	file "../sources/dual_axis_servo_drive.c",line 1648,column 13,is_stmt,isa 0
        MOV32     R0H,@||motorVars||+356 ; [CPU_FPU] |1648| 
	.dwpsn	file "../sources/dual_axis_servo_drive.c",line 1642,column 13,is_stmt,isa 0
        MOV32     *+XAR3[AR0],R2H       ; [CPU_FPU] |1642| 
	.dwpsn	file "../sources/dual_axis_servo_drive.c",line 1648,column 13,is_stmt,isa 0
        CMPF32    R1H,R0H               ; [CPU_FPU] |1648| 
        MOVST0    ZF, NF                ; [CPU_FPU] |1648| 
        B         ||$C$L27||,LT         ; [CPU_ALU] |1648| 
        ; branchcc occurs ; [] |1648| 
	.dwpsn	file "../sources/dual_axis_servo_drive.c",line 1650,column 17,is_stmt,isa 0
        MOVL      ACC,XAR3              ; [CPU_ALU] |1650| 
        ADD       ACC,#323 << 1         ; [CPU_ALU] |1650| 
        MOVL      XAR4,ACC              ; [CPU_ALU] |1650| 
	.dwpsn	file "../sources/dual_axis_servo_drive.c",line 1652,column 17,is_stmt,isa 0
        MOVL      XAR0,#647             ; [CPU_ALU] |1652| 
        MOVW      DP,#||motorVars||+646 ; [CPU_ARAU] 
        MOV       AL,*+XAR3[AR0]        ; [CPU_ALU] |1652| 
	.dwpsn	file "../sources/dual_axis_servo_drive.c",line 1650,column 17,is_stmt,isa 0
        INC       *+XAR4[0]             ; [CPU_ALU] |1650| 
	.dwpsn	file "../sources/dual_axis_servo_drive.c",line 1652,column 17,is_stmt,isa 0
        CMP       AL,@||motorVars||+646 ; [CPU_ALU] |1652| 
        B         ||$C$L27||,HI         ; [CPU_ALU] |1652| 
        ; branchcc occurs ; [] |1652| 
        MOVW      DP,#||motorVars||+612 ; [CPU_ARAU] 
	.dwpsn	file "../sources/dual_axis_servo_drive.c",line 1657,column 21,is_stmt,isa 0
        MOVL      XAR4,@||motorVars||+612 ; [CPU_ALU] |1657| 
        MOVW      DP,#||motorVars||+646 ; [CPU_ARAU] 
	.dwpsn	file "../sources/dual_axis_servo_drive.c",line 1654,column 21,is_stmt,isa 0
        MOV       @||motorVars||+646,#0 ; [CPU_ALU] |1654| 
	.dwpsn	file "../sources/dual_axis_servo_drive.c",line 1657,column 21,is_stmt,isa 0
        MOVB      *+XAR4[0],#1,UNC      ; [CPU_ALU] |1657| 
        B         ||$C$L27||,UNC        ; [CPU_ALU] |1657| 
        ; branch occurs ; [] |1657| 
||$C$L19||:    
        MOVW      DP,#||motorVars||+360 ; [CPU_ARAU] 
	.dwpsn	file "../sources/dual_axis_servo_drive.c",line 1629,column 13,is_stmt,isa 0
        MOV32     R0H,@||motorVars||+360 ; [CPU_FPU] |1629| 
        CMPF32    R0H,#0                ; [CPU_FPU] |1629| 
        MOVST0    ZF, NF                ; [CPU_FPU] |1629| 
        B         ||$C$L20||,GT         ; [CPU_ALU] |1629| 
        ; branchcc occurs ; [] |1629| 
        MOVIZ     R0H,#49024            ; [CPU_FPU] |1629| 
        B         ||$C$L21||,UNC        ; [CPU_ALU] |1629| 
        ; branch occurs ; [] |1629| 
||$C$L20||:    
        MOVIZ     R0H,#16256            ; [CPU_FPU] |1629| 
||$C$L21||:    
        MOVL      XAR0,#364             ; [CPU_ALU] |1629| 
        MOVL      XAR5,#||motorVars||   ; [CPU_ARAU] |1629| 
        MOV32     R1H,*+XAR5[AR0]       ; [CPU_FPU] |1629| 
	.dwpsn	file "../sources/dual_axis_servo_drive.c",line 1635,column 17,is_stmt,isa 0
        MOVB      ACC,#20               ; [CPU_ALU] |1635| 
	.dwpsn	file "../sources/dual_axis_servo_drive.c",line 1629,column 13,is_stmt,isa 0
        MPYF32    R0H,R0H,R1H           ; [CPU_FPU] |1629| 
        MOVL      XAR0,#422             ; [CPU_ALU] |1629| 
        MOV32     *+XAR5[AR0],R0H       ; [CPU_FPU] |1629| 
	.dwpsn	file "../sources/dual_axis_servo_drive.c",line 1635,column 17,is_stmt,isa 0
        MOVL      XAR0,#432             ; [CPU_ALU] |1635| 
        MOVL      XAR6,*+XAR5[AR0]      ; [CPU_ALU] |1635| 
        MOVL      XAR0,#612             ; [CPU_ALU] |1635| 
        ADDL      ACC,*+XAR5[AR0]       ; [CPU_ALU] |1635| 
        MOVL      XAR4,ACC              ; [CPU_ALU] |1635| 
        MOVW      DP,#||motorVars||+612 ; [CPU_ARAU] 
	.dwpsn	file "D:/TI/c2000/C2000Ware_MotorControl_SDK_5_04_00_00/libraries/utilities/math_blocks/include/v4.3/rampgen.h",line 66,column 1,is_stmt,isa 0
        MOVB      ACC,#20               ; [CPU_ALU] |66| 
	.dwpsn	file "../sources/dual_axis_servo_drive.c",line 1635,column 17,is_stmt,isa 0
        MOVL      *+XAR4[0],XAR6        ; [CPU_ALU] |1635| 
	.dwpsn	file "D:/TI/c2000/C2000Ware_MotorControl_SDK_5_04_00_00/libraries/utilities/math_blocks/include/v4.3/rampgen.h",line 66,column 1,is_stmt,isa 0
        ADDL      ACC,@||motorVars||+612 ; [CPU_ALU] |66| 
        MOVL      XAR4,ACC              ; [CPU_ALU] |66| 
	.dwpsn	file "D:/TI/c2000/C2000Ware_MotorControl_SDK_5_04_00_00/libraries/utilities/math_blocks/include/v4.3/rampgen.h",line 68,column 2,is_stmt,isa 0
        MOV32     R1H,*+XAR4[0]         ; [CPU_FPU] |68| 
        MOV32     R0H,*+XAR4[2]         ; [CPU_FPU] |68| 
        MPYF32    R1H,R1H,R0H           ; [CPU_FPU] |68| 
        MOV32     R0H,*+XAR4[4]         ; [CPU_FPU] |68| 
        ADDF32    R0H,R0H,R1H           ; [CPU_FPU] |68| 
        NOP       ; [CPU_ALU] 
        MOV32     *+XAR4[4],R0H         ; [CPU_FPU] |68| 
	.dwpsn	file "D:/TI/c2000/C2000Ware_MotorControl_SDK_5_04_00_00/libraries/utilities/math_blocks/include/v4.3/rampgen.h",line 71,column 2,is_stmt,isa 0
        MOV32     R0H,*+XAR4[4]         ; [CPU_FPU] |71| 
        CMPF32    R0H,#16256            ; [CPU_FPU] |71| 
        MOVST0    ZF, NF                ; [CPU_FPU] |71| 
        B         ||$C$L22||,GT         ; [CPU_ALU] |71| 
        ; branchcc occurs ; [] |71| 
	.dwpsn	file "D:/TI/c2000/C2000Ware_MotorControl_SDK_5_04_00_00/libraries/utilities/math_blocks/include/v4.3/rampgen.h",line 75,column 7,is_stmt,isa 0
        CMPF32    R0H,#49024            ; [CPU_FPU] |75| 
        MOVST0    ZF, NF                ; [CPU_FPU] |75| 
        B         ||$C$L24||,GEQ        ; [CPU_ALU] |75| 
        ; branchcc occurs ; [] |75| 
	.dwpsn	file "D:/TI/c2000/C2000Ware_MotorControl_SDK_5_04_00_00/libraries/utilities/math_blocks/include/v4.3/rampgen.h",line 77,column 3,is_stmt,isa 0
        ADDF32    R0H,R0H,#16256        ; [CPU_FPU] |77| 
        B         ||$C$L23||,UNC        ; [CPU_ALU] |77| 
        ; branch occurs ; [] |77| 
||$C$L22||:    
	.dwpsn	file "D:/TI/c2000/C2000Ware_MotorControl_SDK_5_04_00_00/libraries/utilities/math_blocks/include/v4.3/rampgen.h",line 73,column 3,is_stmt,isa 0
        MOV32     R0H,*+XAR4[4]         ; [CPU_FPU] |73| 
        ADDF32    R0H,R0H,#49024        ; [CPU_FPU] |73| 
        NOP       ; [CPU_ALU] 
||$C$L23||:    
        MOV32     *+XAR4[4],R0H         ; [CPU_FPU] |73| 
        MOV32     R0H,*+XAR4[4]         ; [CPU_FPU] 
||$C$L24||:    
	.dwpsn	file "D:/TI/c2000/C2000Ware_MotorControl_SDK_5_04_00_00/libraries/utilities/math_blocks/include/v4.3/rampgen.h",line 80,column 2,is_stmt,isa 0
        MOVB      XAR0,#8               ; [CPU_ALU] |80| 
        MOV32     *+XAR4[AR0],R0H       ; [CPU_FPU] |80| 
        B         ||$C$L27||,UNC        ; [CPU_ALU] 
        ; branch occurs ; [] 
||$C$L25||:    
	.dwpsn	file "../sources/dual_axis_servo_drive.c",line 1624,column 13,is_stmt,isa 0
        MOVL      XAR4,#||motorVars||   ; [CPU_ARAU] |1624| 
	.dwpsn	file "../sources/dual_axis_servo_drive.c",line 1625,column 13,is_stmt,isa 0
        MOVL      XAR0,#360             ; [CPU_ALU] |1625| 
	.dwpsn	file "../sources/dual_axis_servo_drive.c",line 1624,column 13,is_stmt,isa 0
        MOVL      XAR1,#354             ; [CPU_ALU] |1624| 
	.dwpsn	file "../sources/dual_axis_servo_drive.c",line 1625,column 13,is_stmt,isa 0
        MOVL      ACC,*+XAR4[AR0]       ; [CPU_ALU] |1625| 
	.dwpsn	file "../sources/dual_axis_servo_drive.c",line 1624,column 13,is_stmt,isa 0
        MOVL      XAR6,*+XAR4[AR1]      ; [CPU_ALU] |1624| 
	.dwpsn	file "../sources/dual_axis_servo_drive.c",line 1625,column 13,is_stmt,isa 0
        MOVL      XAR0,#422             ; [CPU_ALU] |1625| 
	.dwpsn	file "../sources/dual_axis_servo_drive.c",line 1624,column 13,is_stmt,isa 0
        MOVL      XAR1,#356             ; [CPU_ALU] |1624| 
	.dwpsn	file "../sources/dual_axis_servo_drive.c",line 1625,column 13,is_stmt,isa 0
        MOVL      *+XAR4[AR0],ACC       ; [CPU_ALU] |1625| 
	.dwpsn	file "../sources/dual_axis_servo_drive.c",line 1624,column 13,is_stmt,isa 0
        MOVL      *+XAR4[AR1],XAR6      ; [CPU_ALU] |1624| 
        B         ||$C$L27||,UNC        ; [CPU_ALU] 
        ; branch occurs ; [] 
||$C$L26||:    
	.dwpsn	file "../sources/dual_axis_servo_drive.c",line 1664,column 9,is_stmt,isa 0
        MOVL      XAR0,#356             ; [CPU_ALU] |1664| 
        MOVL      XAR4,#||motorVars||   ; [CPU_ARAU] |1664| 
        ZERO      R0H                   ; [CPU_FPU] |1664| 
	.dwpsn	file "../sources/dual_axis_servo_drive.c",line 1665,column 9,is_stmt,isa 0
        MOVL      XAR1,#350             ; [CPU_ALU] |1665| 
        ZERO      R1H                   ; [CPU_FPU] |1665| 
	.dwpsn	file "../sources/dual_axis_servo_drive.c",line 1664,column 9,is_stmt,isa 0
        MOV32     *+XAR4[AR0],R0H       ; [CPU_FPU] |1664| 
	.dwpsn	file "../sources/dual_axis_servo_drive.c",line 1665,column 9,is_stmt,isa 0
        MOV32     *+XAR4[AR1],R1H       ; [CPU_FPU] |1665| 
	.dwpsn	file "../sources/dual_axis_servo_drive.c",line 1667,column 9,is_stmt,isa 0
        MOVL      XAR0,#422             ; [CPU_ALU] |1667| 
        MOV32     *+XAR4[AR0],R0H       ; [CPU_FPU] |1667| 
	.dwpsn	file "../sources/dual_axis_servo_drive.c",line 1669,column 9,is_stmt,isa 0
        MOVL      XAR4,XAR2             ; [CPU_ALU] |1669| 
$C$DW$136	.dwtag  DW_TAG_TI_branch
	.dwattr $C$DW$136, DW_AT_low_pc(0x00)
	.dwattr $C$DW$136, DW_AT_name("FCL_resetController")
	.dwattr $C$DW$136, DW_AT_TI_call

        LCR       #||FCL_resetController|| ; [CPU_ALU] |1669| 
        ; call occurs [#||FCL_resetController||] ; [] |1669| 
||$C$L27||:    
	.dwpsn	file "D:/TI/c2000/C2000Ware_MotorControl_SDK_5_04_00_00/libraries/utilities/math_blocks/include/v4.3/rmp_cntl.h",line 73,column 2,is_stmt,isa 0
        MOVL      XAR4,#||motorVars||   ; [CPU_ARAU] |73| 
        MOVL      XAR0,#432             ; [CPU_ALU] |73| 
        MOVL      XAR1,#422             ; [CPU_ALU] |73| 
	.dwpsn	file "D:/TI/c2000/C2000Ware_MotorControl_SDK_5_04_00_00/libraries/utilities/math_blocks/include/v4.3/rmp_cntl.h",line 76,column 5,is_stmt,isa 0
        MOVIZ     R0H,#14207            ; [CPU_FPU] |76| 
        MOVW      DP,#||motorVars||+436 ; [CPU_ARAU] 
	.dwpsn	file "D:/TI/c2000/C2000Ware_MotorControl_SDK_5_04_00_00/libraries/utilities/math_blocks/include/v4.3/rmp_cntl.h",line 73,column 2,is_stmt,isa 0
        MOV32     R1H,*+XAR4[AR0]       ; [CPU_FPU] |73| 
        MOV32     R2H,*+XAR4[AR1]       ; [CPU_FPU] |73| 
        MOVL      XAR0,#436             ; [CPU_ALU] |73| 
        SUBF32    R1H,R2H,R1H           ; [CPU_FPU] |73| 
	.dwpsn	file "D:/TI/c2000/C2000Ware_MotorControl_SDK_5_04_00_00/libraries/utilities/math_blocks/include/v4.3/rmp_cntl.h",line 76,column 5,is_stmt,isa 0
        MOVXI     R0H,#55872            ; [CPU_FPU] |76| 
	.dwpsn	file "D:/TI/c2000/C2000Ware_MotorControl_SDK_5_04_00_00/libraries/utilities/math_blocks/include/v4.3/rmp_cntl.h",line 73,column 2,is_stmt,isa 0
        MOV32     *+XAR4[AR0],R1H       ; [CPU_FPU] |73| 
	.dwpsn	file "D:/TI/c2000/C2000Ware_MotorControl_SDK_5_04_00_00/libraries/utilities/math_blocks/include/v4.3/rmp_cntl.h",line 76,column 5,is_stmt,isa 0
        MOV32     R1H,@||motorVars||+436 ; [CPU_FPU] |76| 
        ABSF32    R1H,R1H               ; [CPU_FPU] |76| 
        CMPF32    R1H,R0H               ; [CPU_FPU] |76| 
        MOVST0    ZF, NF                ; [CPU_FPU] |76| 
        B         ||$C$L30||,LT         ; [CPU_ALU] |76| 
        ; branchcc occurs ; [] |76| 
	.dwpsn	file "D:/TI/c2000/C2000Ware_MotorControl_SDK_5_04_00_00/libraries/utilities/math_blocks/include/v4.3/rmp_cntl.h",line 83,column 3,is_stmt,isa 0
        MOVL      ACC,XAR4              ; [CPU_ALU] |83| 
        ADD       ACC,#215 << 1         ; [CPU_ALU] |83| 
        MOVL      XAR5,ACC              ; [CPU_ALU] |83| 
	.dwpsn	file "D:/TI/c2000/C2000Ware_MotorControl_SDK_5_04_00_00/libraries/utilities/math_blocks/include/v4.3/rmp_cntl.h",line 85,column 3,is_stmt,isa 0
        MOVL      XAR0,#424             ; [CPU_ALU] |85| 
        MOVW      DP,#||motorVars||+430 ; [CPU_ARAU] 
	.dwpsn	file "D:/TI/c2000/C2000Ware_MotorControl_SDK_5_04_00_00/libraries/utilities/math_blocks/include/v4.3/rmp_cntl.h",line 83,column 3,is_stmt,isa 0
        MOVB      ACC,#1                ; [CPU_ALU] |83| 
        ADDL      *+XAR5[0],ACC         ; [CPU_ALU] |83| 
	.dwpsn	file "D:/TI/c2000/C2000Ware_MotorControl_SDK_5_04_00_00/libraries/utilities/math_blocks/include/v4.3/rmp_cntl.h",line 85,column 3,is_stmt,isa 0
        MOVL      ACC,*+XAR4[AR0]       ; [CPU_ALU] |85| 
        CMPL      ACC,@||motorVars||+430 ; [CPU_ALU] |85| 
        B         ||$C$L31||,HI         ; [CPU_ALU] |85| 
        ; branchcc occurs ; [] |85| 
        MOVW      DP,#||motorVars||+432 ; [CPU_ARAU] 
	.dwpsn	file "D:/TI/c2000/C2000Ware_MotorControl_SDK_5_04_00_00/libraries/utilities/math_blocks/include/v4.3/rmp_cntl.h",line 87,column 4,is_stmt,isa 0
        MOV32     R0H,@||motorVars||+432 ; [CPU_FPU] |87| 
        MOVW      DP,#||motorVars||+422 ; [CPU_ARAU] 
        MOV32     R1H,@||motorVars||+422 ; [CPU_FPU] |87| 
        CMPF32    R1H,R0H               ; [CPU_FPU] |87| 
        MOVST0    ZF, NF                ; [CPU_FPU] |87| 
        B         ||$C$L28||,GEQ        ; [CPU_ALU] |87| 
        ; branchcc occurs ; [] |87| 
        MOVW      DP,#||motorVars||+432 ; [CPU_ARAU] 
	.dwpsn	file "D:/TI/c2000/C2000Ware_MotorControl_SDK_5_04_00_00/libraries/utilities/math_blocks/include/v4.3/rmp_cntl.h",line 93,column 5,is_stmt,isa 0
        MOVIZ     R0H,#14207            ; [CPU_FPU] |93| 
        MOV32     R1H,@||motorVars||+432 ; [CPU_FPU] |93| 
        MOVXI     R0H,#55872            ; [CPU_FPU] |93| 
        SUBF32    R0H,R1H,R0H           ; [CPU_FPU] |93| 
        B         ||$C$L29||,UNC        ; [CPU_ALU] |93| 
        ; branch occurs ; [] |93| 
||$C$L28||:    
        MOVW      DP,#||motorVars||+432 ; [CPU_ARAU] 
	.dwpsn	file "D:/TI/c2000/C2000Ware_MotorControl_SDK_5_04_00_00/libraries/utilities/math_blocks/include/v4.3/rmp_cntl.h",line 89,column 5,is_stmt,isa 0
        MOVIZ     R0H,#14207            ; [CPU_FPU] |89| 
        MOV32     R1H,@||motorVars||+432 ; [CPU_FPU] |89| 
        MOVXI     R0H,#55872            ; [CPU_FPU] |89| 
        ADDF32    R0H,R0H,R1H           ; [CPU_FPU] |89| 
        NOP       ; [CPU_ALU] 
||$C$L29||:    
        MOV32     @||motorVars||+432,R0H ; [CPU_FPU] |89| 
	.dwpsn	file "D:/TI/c2000/C2000Ware_MotorControl_SDK_5_04_00_00/libraries/utilities/math_blocks/include/v4.3/rmp_cntl.h",line 96,column 4,is_stmt,isa 0
        MOVB      ACC,#0                ; [CPU_ALU] |96| 
        MOVW      DP,#||motorVars||+430 ; [CPU_ARAU] 
        MOVL      @||motorVars||+430,ACC ; [CPU_ALU] |96| 
        B         ||$C$L31||,UNC        ; [CPU_ALU] |96| 
        ; branch occurs ; [] |96| 
||$C$L30||:    
	.dwpsn	file "D:/TI/c2000/C2000Ware_MotorControl_SDK_5_04_00_00/libraries/utilities/math_blocks/include/v4.3/rmp_cntl.h",line 101,column 6,is_stmt,isa 0
        MOVL      XAR0,#422             ; [CPU_ALU] |101| 
	.dwpsn	file "D:/TI/c2000/C2000Ware_MotorControl_SDK_5_04_00_00/libraries/utilities/math_blocks/include/v4.3/rmp_cntl.h",line 102,column 3,is_stmt,isa 0
        MOV       AL,#65535             ; [CPU_ALU] |102| 
        MOV       AH,#32767             ; [CPU_ALU] |102| 
	.dwpsn	file "D:/TI/c2000/C2000Ware_MotorControl_SDK_5_04_00_00/libraries/utilities/math_blocks/include/v4.3/rmp_cntl.h",line 101,column 6,is_stmt,isa 0
        MOVL      XAR6,*+XAR4[AR0]      ; [CPU_ALU] |101| 
        MOVL      XAR1,#432             ; [CPU_ALU] |101| 
	.dwpsn	file "D:/TI/c2000/C2000Ware_MotorControl_SDK_5_04_00_00/libraries/utilities/math_blocks/include/v4.3/rmp_cntl.h",line 102,column 3,is_stmt,isa 0
        MOVL      XAR0,#434             ; [CPU_ALU] |102| 
        MOVL      *+XAR4[AR0],ACC       ; [CPU_ALU] |102| 
	.dwpsn	file "D:/TI/c2000/C2000Ware_MotorControl_SDK_5_04_00_00/libraries/utilities/math_blocks/include/v4.3/rmp_cntl.h",line 101,column 6,is_stmt,isa 0
        MOVL      *+XAR4[AR1],XAR6      ; [CPU_ALU] |101| 
||$C$L31||:    
	.dwpsn	file "D:/TI/c2000/C2000Ware_MotorControl_SDK_5_04_00_00/libraries/utilities/math_blocks/include/v4.3/rmp_cntl.h",line 109,column 5,is_stmt,isa 0
        MOVL      XAR0,#428             ; [CPU_ALU] |109| 
        MOVL      XAR5,#||motorVars||   ; [CPU_ARAU] |109| 
        MOV32     R2H,*+XAR5[AR0]       ; [CPU_FPU] |109| 
	.dwpsn	file "../sources/dual_axis_servo_drive.c",line 1680,column 5,is_stmt,isa 0
        MOVB      ACC,#54               ; [CPU_ALU] |1680| 
        MOVW      DP,#||motorVars||+432 ; [CPU_ARAU] 
	.dwpsn	file "D:/TI/c2000/C2000Ware_MotorControl_SDK_5_04_00_00/libraries/utilities/math_blocks/include/v4.3/rmp_cntl.h",line 109,column 5,is_stmt,isa 0
        MOVL      XAR0,#432             ; [CPU_ALU] |109| 
        MOV32     R0H,*+XAR5[AR0]       ; [CPU_FPU] |109| 
        MOVL      XAR0,#426             ; [CPU_ALU] |109| 
        MOV32     R1H,*+XAR5[AR0]       ; [CPU_FPU] |109| 
        MINF32    R0H,R2H               ; [CPU_FPU] |109| 
	.dwpsn	file "../sources/dual_axis_servo_drive.c",line 1680,column 5,is_stmt,isa 0
        MOVL      XAR0,#612             ; [CPU_ALU] |1680| 
	.dwpsn	file "D:/TI/c2000/C2000Ware_MotorControl_SDK_5_04_00_00/libraries/utilities/math_blocks/include/v4.3/rmp_cntl.h",line 109,column 5,is_stmt,isa 0
        MAXF32    R0H,R1H               ; [CPU_FPU] |109| 
	.dwpsn	file "../sources/dual_axis_servo_drive.c",line 1680,column 5,is_stmt,isa 0
        ADDL      ACC,*+XAR5[AR0]       ; [CPU_ALU] |1680| 
        MOVL      XAR4,ACC              ; [CPU_ALU] |1680| 
	.dwpsn	file "D:/TI/c2000/C2000Ware_MotorControl_SDK_5_04_00_00/libraries/utilities/math_blocks/include/v4.3/rmp_cntl.h",line 109,column 5,is_stmt,isa 0
        MOV32     @||motorVars||+432,R0H ; [CPU_FPU] |109| 
	.dwpsn	file "../sources/dual_axis_servo_drive.c",line 1680,column 5,is_stmt,isa 0
        MOVL      XAR0,#388             ; [CPU_ALU] |1680| 
        MOVW      DP,#||motorVars||+612 ; [CPU_ARAU] 
        MOVL      ACC,*+XAR4[0]         ; [CPU_ALU] |1680| 
        MOVL      *+XAR5[AR0],ACC       ; [CPU_ALU] |1680| 
	.dwpsn	file "D:/TI/c2000/C2000Ware_MotorControl_SDK_5_04_00_00/libraries/utilities/math_blocks/include/v4.3/speed_fr.h",line 76,column 2,is_stmt,isa 0
        MOVL      XAR0,#480             ; [CPU_ALU] |76| 
	.dwpsn	file "../sources/dual_axis_servo_drive.c",line 1681,column 5,is_stmt,isa 0
        MOVB      ACC,#56               ; [CPU_ALU] |1681| 
        ADDL      ACC,@||motorVars||+612 ; [CPU_ALU] |1681| 
	.dwpsn	file "D:/TI/c2000/C2000Ware_MotorControl_SDK_5_04_00_00/libraries/utilities/math_blocks/include/v4.3/speed_fr.h",line 76,column 2,is_stmt,isa 0
        MOV32     R0H,*+XAR5[AR0]       ; [CPU_FPU] |76| 
        MOVW      DP,#||motorVars||+388 ; [CPU_ARAU] 
	.dwpsn	file "../sources/dual_axis_servo_drive.c",line 1681,column 5,is_stmt,isa 0
        MOVL      XAR4,ACC              ; [CPU_ALU] |1681| 
	.dwpsn	file "../sources/dual_axis_servo_drive.c",line 1682,column 5,is_stmt,isa 0
        MOVL      XAR1,#476             ; [CPU_ALU] |1682| 
	.dwpsn	file "D:/TI/c2000/C2000Ware_MotorControl_SDK_5_04_00_00/libraries/utilities/math_blocks/include/v4.3/speed_fr.h",line 76,column 2,is_stmt,isa 0
        MOVL      XAR0,#494             ; [CPU_ALU] |76| 
	.dwpsn	file "../sources/dual_axis_servo_drive.c",line 1682,column 5,is_stmt,isa 0
        MOVL      ACC,@||motorVars||+388 ; [CPU_ALU] |1682| 
	.dwpsn	file "../sources/dual_axis_servo_drive.c",line 1681,column 5,is_stmt,isa 0
        MOVL      XAR6,*+XAR4[0]        ; [CPU_ALU] |1681| 
        MOVW      DP,#||motorVars||+476 ; [CPU_ARAU] 
	.dwpsn	file "../sources/dual_axis_servo_drive.c",line 1682,column 5,is_stmt,isa 0
        MOVL      *+XAR5[AR1],ACC       ; [CPU_ALU] |1682| 
	.dwpsn	file "../sources/dual_axis_servo_drive.c",line 1681,column 5,is_stmt,isa 0
        MOVL      XAR1,#390             ; [CPU_ALU] |1681| 
	.dwpsn	file "D:/TI/c2000/C2000Ware_MotorControl_SDK_5_04_00_00/libraries/utilities/math_blocks/include/v4.3/speed_fr.h",line 76,column 2,is_stmt,isa 0
        MOV32     R1H,@||motorVars||+476 ; [CPU_FPU] |76| 
        MOVW      DP,#||motorVars||+494 ; [CPU_ARAU] 
        SUBF32    R0H,R1H,R0H           ; [CPU_FPU] |76| 
	.dwpsn	file "../sources/dual_axis_servo_drive.c",line 1681,column 5,is_stmt,isa 0
        MOVL      *+XAR5[AR1],XAR6      ; [CPU_ALU] |1681| 
	.dwpsn	file "D:/TI/c2000/C2000Ware_MotorControl_SDK_5_04_00_00/libraries/utilities/math_blocks/include/v4.3/speed_fr.h",line 76,column 2,is_stmt,isa 0
        MOV32     *+XAR5[AR0],R0H       ; [CPU_FPU] |76| 
	.dwpsn	file "D:/TI/c2000/C2000Ware_MotorControl_SDK_5_04_00_00/libraries/utilities/math_blocks/include/v4.3/speed_fr.h",line 78,column 2,is_stmt,isa 0
        MOV32     R0H,@||motorVars||+494 ; [CPU_FPU] |78| 
        CMPF32    R0H,#48896            ; [CPU_FPU] |78| 
        MOVST0    ZF, NF                ; [CPU_FPU] |78| 
        B         ||$C$L32||,LT         ; [CPU_ALU] |78| 
        ; branchcc occurs ; [] |78| 
	.dwpsn	file "D:/TI/c2000/C2000Ware_MotorControl_SDK_5_04_00_00/libraries/utilities/math_blocks/include/v4.3/speed_fr.h",line 82,column 7,is_stmt,isa 0
        CMPF32    R0H,#16128            ; [CPU_FPU] |82| 
        MOVST0    ZF, NF                ; [CPU_FPU] |82| 
        B         ||$C$L34||,LEQ        ; [CPU_ALU] |82| 
        ; branchcc occurs ; [] |82| 
	.dwpsn	file "D:/TI/c2000/C2000Ware_MotorControl_SDK_5_04_00_00/libraries/utilities/math_blocks/include/v4.3/speed_fr.h",line 84,column 3,is_stmt,isa 0
        ADDF32    R0H,R0H,#49024        ; [CPU_FPU] |84| 
        B         ||$C$L33||,UNC        ; [CPU_ALU] |84| 
        ; branch occurs ; [] |84| 
||$C$L32||:    
	.dwpsn	file "D:/TI/c2000/C2000Ware_MotorControl_SDK_5_04_00_00/libraries/utilities/math_blocks/include/v4.3/speed_fr.h",line 80,column 3,is_stmt,isa 0
        ADDF32    R0H,R0H,#16256        ; [CPU_FPU] |80| 
        NOP       ; [CPU_ALU] 
        NOP       ; [CPU_ALU] 
||$C$L33||:    
        MOV32     @||motorVars||+494,R0H ; [CPU_FPU] |80| 
||$C$L34||:    
	.dwpsn	file "D:/TI/c2000/C2000Ware_MotorControl_SDK_5_04_00_00/libraries/utilities/math_blocks/include/v4.3/speed_fr.h",line 87,column 2,is_stmt,isa 0
        MOVL      XAR4,#||motorVars||   ; [CPU_ARAU] |87| 
        MOV32     R3H,*+XAR4[AR0]       ; [CPU_FPU] |87| 
	.dwpsn	file "D:/TI/c2000/C2000Ware_MotorControl_SDK_5_04_00_00/libraries/utilities/math_blocks/include/v4.3/speed_fr.h",line 104,column 2,is_stmt,isa 0
        MOVL      XAR1,#476             ; [CPU_ALU] |104| 
	.dwpsn	file "D:/TI/c2000/C2000Ware_MotorControl_SDK_5_04_00_00/libraries/utilities/math_blocks/include/v4.3/speed_fr.h",line 87,column 2,is_stmt,isa 0
        MOVL      XAR0,#486             ; [CPU_ALU] |87| 
	.dwpsn	file "../sources/dual_axis_servo_drive.c",line 1704,column 5,is_stmt,isa 0
        MOVL      ACC,XAR4              ; [CPU_ALU] |1704| 
	.dwpsn	file "D:/TI/c2000/C2000Ware_MotorControl_SDK_5_04_00_00/libraries/utilities/math_blocks/include/v4.3/speed_fr.h",line 87,column 2,is_stmt,isa 0
        MOV32     R4H,*+XAR4[AR0]       ; [CPU_FPU] |87| 
	.dwpsn	file "../sources/dual_axis_servo_drive.c",line 1704,column 5,is_stmt,isa 0
        ADD       ACC,#645 << 0         ; [CPU_ALU] |1704| 
	.dwpsn	file "D:/TI/c2000/C2000Ware_MotorControl_SDK_5_04_00_00/libraries/utilities/math_blocks/include/v4.3/speed_fr.h",line 87,column 2,is_stmt,isa 0
        MOVL      XAR0,#482             ; [CPU_ALU] |87| 
	.dwpsn	file "D:/TI/c2000/C2000Ware_MotorControl_SDK_5_04_00_00/libraries/utilities/math_blocks/include/v4.3/speed_fr.h",line 104,column 2,is_stmt,isa 0
        MOVL      XAR6,*+XAR4[AR1]      ; [CPU_FPU] |104| 
	.dwpsn	file "../sources/dual_axis_servo_drive.c",line 1704,column 5,is_stmt,isa 0
        MOVL      XAR5,ACC              ; [CPU_ALU] |1704| 
	.dwpsn	file "D:/TI/c2000/C2000Ware_MotorControl_SDK_5_04_00_00/libraries/utilities/math_blocks/include/v4.3/speed_fr.h",line 87,column 2,is_stmt,isa 0
        MOV32     R1H,*+XAR4[AR0]       ; [CPU_FPU] |87| 
        MOVL      XAR0,#488             ; [CPU_ALU] |87| 

        MOV32     R0H,*+XAR4[AR0]       ; [CPU_FPU] |87| 
||      MPYF32    R3H,R4H,R3H           ; [CPU_FPU] |87| 

        MOVL      XAR0,#490             ; [CPU_ALU] |87| 
	.dwpsn	file "../sources/dual_axis_servo_drive.c",line 1704,column 5,is_stmt,isa 0
        INC       *+XAR5[0]             ; [CPU_ALU] |1704| 
	.dwpsn	file "D:/TI/c2000/C2000Ware_MotorControl_SDK_5_04_00_00/libraries/utilities/math_blocks/include/v4.3/speed_fr.h",line 87,column 2,is_stmt,isa 0

        MPYF32    R0H,R1H,R0H           ; [CPU_FPU] |87| 
||      MOV32     R2H,*+XAR4[AR0]       ; [CPU_FPU] |87| 

	.dwpsn	file "../sources/dual_axis_servo_drive.c",line 1706,column 5,is_stmt,isa 0
        MOVL      XAR0,#644             ; [CPU_ALU] |1706| 
	.dwpsn	file "D:/TI/c2000/C2000Ware_MotorControl_SDK_5_04_00_00/libraries/utilities/math_blocks/include/v4.3/speed_fr.h",line 87,column 2,is_stmt,isa 0
        MPYF32    R1H,R3H,R2H           ; [CPU_FPU] |87| 
	.dwpsn	file "../sources/dual_axis_servo_drive.c",line 1706,column 5,is_stmt,isa 0
        MOV       AL,*+XAR4[AR0]        ; [CPU_ALU] |1706| 
	.dwpsn	file "D:/TI/c2000/C2000Ware_MotorControl_SDK_5_04_00_00/libraries/utilities/math_blocks/include/v4.3/speed_fr.h",line 87,column 2,is_stmt,isa 0
        ADDF32    R0H,R0H,R1H           ; [CPU_FPU] |87| 
	.dwpsn	file "D:/TI/c2000/C2000Ware_MotorControl_SDK_5_04_00_00/libraries/utilities/math_blocks/include/v4.3/speed_fr.h",line 104,column 2,is_stmt,isa 0
        MOVL      XAR0,#480             ; [CPU_ALU] |104| 
	.dwpsn	file "D:/TI/c2000/C2000Ware_MotorControl_SDK_5_04_00_00/libraries/utilities/math_blocks/include/v4.3/speed_fr.h",line 87,column 2,is_stmt,isa 0
        MOV32     @||motorVars||+494,R0H ; [CPU_FPU] |87| 
        MOVW      DP,#||motorVars||+482 ; [CPU_ARAU] 
	.dwpsn	file "D:/TI/c2000/C2000Ware_MotorControl_SDK_5_04_00_00/libraries/utilities/math_blocks/include/v4.3/speed_fr.h",line 104,column 2,is_stmt,isa 0
        MOVL      *+XAR4[AR0],XAR6      ; [CPU_ALU] |104| 
	.dwpsn	file "D:/TI/c2000/C2000Ware_MotorControl_SDK_5_04_00_00/libraries/utilities/math_blocks/include/v4.3/speed_fr.h",line 94,column 2,is_stmt,isa 0
        MAXF32    R0H,#49024            ; [CPU_FPU] |94| 
        MINF32    R0H,#16256            ; [CPU_FPU] |94| 
        MOV32     @||motorVars||+482,R0H ; [CPU_FPU] |94| 
        MOVW      DP,#||motorVars||+645 ; [CPU_ARAU] 
	.dwpsn	file "../sources/dual_axis_servo_drive.c",line 1706,column 5,is_stmt,isa 0
        CMP       AL,@||motorVars||+645 ; [CPU_ALU] |1706| 
        B         ||$C$L37||,HI         ; [CPU_ALU] |1706| 
        ; branchcc occurs ; [] |1706| 
	.dwpsn	file "../sources/dual_axis_servo_drive.c",line 1714,column 9,is_stmt,isa 0
        MOVL      XAR0,#432             ; [CPU_ALU] |1714| 
        MOVL      XAR1,#542             ; [CPU_ALU] |1714| 
        MOVL      ACC,*+XAR4[AR0]       ; [CPU_ALU] |1714| 
        MOVW      DP,#||motorVars||+482 ; [CPU_ARAU] 
	.dwpsn	file "D:/TI/c2000/C2000Ware_MotorControl_SDK_5_04_00_00/libraries/utilities/math_blocks/include/v4.3/pid_grando.h",line 116,column 2,is_stmt,isa 0
        MOVL      XAR0,#552             ; [CPU_ALU] |116| 
        MOV32     R0H,*+XAR4[AR0]       ; [CPU_FPU] |116| 
	.dwpsn	file "../sources/dual_axis_servo_drive.c",line 1714,column 9,is_stmt,isa 0
        MOVL      *+XAR4[AR1],ACC       ; [CPU_ALU] |1714| 
	.dwpsn	file "../sources/dual_axis_servo_drive.c",line 1718,column 9,is_stmt,isa 0
        MOVL      XAR0,#544             ; [CPU_ALU] |1718| 
        MOVL      ACC,@||motorVars||+482 ; [CPU_ALU] |1718| 
        MOVW      DP,#||motorVars||+542 ; [CPU_ARAU] 
        MOVL      *+XAR4[AR0],ACC       ; [CPU_ALU] |1718| 
	.dwpsn	file "D:/TI/c2000/C2000Ware_MotorControl_SDK_5_04_00_00/libraries/utilities/math_blocks/include/v4.3/pid_grando.h",line 116,column 2,is_stmt,isa 0
        MOV32     R1H,@||motorVars||+542 ; [CPU_FPU] |116| 
        MOVW      DP,#||motorVars||+544 ; [CPU_ARAU] 
        MOVL      XAR0,#566             ; [CPU_ALU] |116| 
        MPYF32    R1H,R1H,R0H           ; [CPU_FPU] |116| 
        MOV32     R0H,@||motorVars||+544 ; [CPU_FPU] |116| 
        SUBF32    R0H,R1H,R0H           ; [CPU_FPU] |116| 
        MOVW      DP,#||motorVars||+542 ; [CPU_ARAU] 
        MOV32     *+XAR4[AR0],R0H       ; [CPU_FPU] |116| 
	.dwpsn	file "D:/TI/c2000/C2000Ware_MotorControl_SDK_5_04_00_00/libraries/utilities/math_blocks/include/v4.3/pid_grando.h",line 125,column 2,is_stmt,isa 0
        MOVL      XAR0,#550             ; [CPU_ALU] |125| 
	.dwpsn	file "D:/TI/c2000/C2000Ware_MotorControl_SDK_5_04_00_00/libraries/utilities/math_blocks/include/v4.3/pid_grando.h",line 119,column 2,is_stmt,isa 0
        MOV32     R1H,@||motorVars||+542 ; [CPU_FPU] |119| 
	.dwpsn	file "D:/TI/c2000/C2000Ware_MotorControl_SDK_5_04_00_00/libraries/utilities/math_blocks/include/v4.3/pid_grando.h",line 125,column 2,is_stmt,isa 0
        MOV32     R4H,*+XAR4[AR0]       ; [CPU_FPU] |125| 
        MOVW      DP,#||motorVars||+544 ; [CPU_ARAU] 
	.dwpsn	file "D:/TI/c2000/C2000Ware_MotorControl_SDK_5_04_00_00/libraries/utilities/math_blocks/include/v4.3/pid_grando.h",line 119,column 2,is_stmt,isa 0
        MOVL      XAR0,#580             ; [CPU_ALU] |119| 
        MOV32     R0H,@||motorVars||+544 ; [CPU_FPU] |119| 
        MOVW      DP,#||motorVars||+566 ; [CPU_ARAU] 

        MOV32     R0H,*+XAR4[AR0]       ; [CPU_FPU] |119| 
||      SUBF32    R1H,R1H,R0H           ; [CPU_FPU] |119| 

        MOVL      XAR0,#556             ; [CPU_ALU] |119| 

        MOV32     R0H,*+XAR4[AR0]       ; [CPU_FPU] |119| 
||      MPYF32    R1H,R1H,R0H           ; [CPU_FPU] |119| 

        MOVL      XAR0,#574             ; [CPU_ALU] |119| 
        MPYF32    R0H,R1H,R0H           ; [CPU_FPU] |119| 
        MOV32     R1H,*+XAR4[AR0]       ; [CPU_FPU] |119| 
        ADDF32    R0H,R0H,R1H           ; [CPU_FPU] |119| 
        MOVL      XAR0,#568             ; [CPU_ALU] |119| 
        MOV32     *+XAR4[AR0],R0H       ; [CPU_FPU] |119| 
	.dwpsn	file "D:/TI/c2000/C2000Ware_MotorControl_SDK_5_04_00_00/libraries/utilities/math_blocks/include/v4.3/pid_grando.h",line 123,column 2,is_stmt,isa 0
        MOVL      XAR0,#560             ; [CPU_ALU] |123| 
        MOV32     R2H,*+XAR4[AR0]       ; [CPU_FPU] |123| 
	.dwpsn	file "D:/TI/c2000/C2000Ware_MotorControl_SDK_5_04_00_00/libraries/utilities/math_blocks/include/v4.3/pid_grando.h",line 128,column 2,is_stmt,isa 0
        MOV32     R0H,@||motorVars||+566 ; [CPU_FPU] |128| 
        MOVW      DP,#||motorVars||+568 ; [CPU_ARAU] 
	.dwpsn	file "D:/TI/c2000/C2000Ware_MotorControl_SDK_5_04_00_00/libraries/utilities/math_blocks/include/v4.3/pid_grando.h",line 123,column 2,is_stmt,isa 0
        MOVL      XAR0,#548             ; [CPU_ALU] |123| 
	.dwpsn	file "D:/TI/c2000/C2000Ware_MotorControl_SDK_5_04_00_00/libraries/utilities/math_blocks/include/v4.3/pid_grando.h",line 128,column 2,is_stmt,isa 0
        MOV32     R1H,@||motorVars||+568 ; [CPU_FPU] |128| 
        MOVW      DP,#||motorVars||+542 ; [CPU_ARAU] 
	.dwpsn	file "D:/TI/c2000/C2000Ware_MotorControl_SDK_5_04_00_00/libraries/utilities/math_blocks/include/v4.3/pid_grando.h",line 123,column 2,is_stmt,isa 0

        MOV32     R1H,@||motorVars||+542 ; [CPU_FPU] |123| 
||      ADDF32    R0H,R0H,R1H           ; [CPU_FPU] |128| 

        MOVW      DP,#||motorVars||+544 ; [CPU_ARAU] 

        MOV32     R1H,@||motorVars||+544 ; [CPU_FPU] |123| 
||      MPYF32    R2H,R2H,R1H           ; [CPU_FPU] |123| 

        MOVW      DP,#||motorVars||+578 ; [CPU_ARAU] 

        MOV32     R1H,*+XAR4[AR0]       ; [CPU_FPU] |123| 
||      SUBF32    R2H,R2H,R1H           ; [CPU_FPU] |123| 

        MOVL      XAR0,#558             ; [CPU_ALU] |123| 

        MOV32     R1H,*+XAR4[AR0]       ; [CPU_FPU] |123| 
||      MPYF32    R2H,R2H,R1H           ; [CPU_FPU] |123| 

        MOVL      XAR0,#578             ; [CPU_ALU] |123| 

        MOV32     R1H,*+XAR4[AR0]       ; [CPU_FPU] |123| 
||      MPYF32    R2H,R2H,R1H           ; [CPU_FPU] |123| 

	.dwpsn	file "D:/TI/c2000/C2000Ware_MotorControl_SDK_5_04_00_00/libraries/utilities/math_blocks/include/v4.3/pid_grando.h",line 124,column 2,is_stmt,isa 0
        MOVL      XAR0,#576             ; [CPU_ALU] |124| 
	.dwpsn	file "D:/TI/c2000/C2000Ware_MotorControl_SDK_5_04_00_00/libraries/utilities/math_blocks/include/v4.3/pid_grando.h",line 123,column 2,is_stmt,isa 0

        MOV32     R2H,*+XAR4[AR0]       ; [CPU_FPU] |124| 
||      SUBF32    R1H,R2H,R1H           ; [CPU_FPU] |123| 

	.dwpsn	file "D:/TI/c2000/C2000Ware_MotorControl_SDK_5_04_00_00/libraries/utilities/math_blocks/include/v4.3/pid_grando.h",line 124,column 2,is_stmt,isa 0
        MOVL      XAR0,#570             ; [CPU_ALU] |124| 
	.dwpsn	file "D:/TI/c2000/C2000Ware_MotorControl_SDK_5_04_00_00/libraries/utilities/math_blocks/include/v4.3/pid_grando.h",line 123,column 2,is_stmt,isa 0

        ADDF32    R1H,R1H,R2H           ; [CPU_FPU] |124| 
||      MOV32     @||motorVars||+578,R1H ; [CPU_FPU] |123| 

        MOVW      DP,#||motorVars||+570 ; [CPU_ARAU] 
	.dwpsn	file "D:/TI/c2000/C2000Ware_MotorControl_SDK_5_04_00_00/libraries/utilities/math_blocks/include/v4.3/pid_grando.h",line 124,column 2,is_stmt,isa 0
        MOV32     *+XAR4[AR0],R1H       ; [CPU_FPU] |124| 
	.dwpsn	file "D:/TI/c2000/C2000Ware_MotorControl_SDK_5_04_00_00/libraries/utilities/math_blocks/include/v4.3/pid_grando.h",line 128,column 2,is_stmt,isa 0
        MOVL      XAR0,#554             ; [CPU_ALU] |128| 
        MOV32     R1H,@||motorVars||+570 ; [CPU_FPU] |128| 
        MOVW      DP,#||motorVars||+572 ; [CPU_ARAU] 
        ADDF32    R1H,R1H,R0H           ; [CPU_FPU] |128| 
        MOV32     R0H,*+XAR4[AR0]       ; [CPU_FPU] |128| 
        MPYF32    R0H,R1H,R0H           ; [CPU_FPU] |128| 
        MOVL      XAR0,#572             ; [CPU_ALU] |128| 
        MOV32     *+XAR4[AR0],R0H       ; [CPU_FPU] |128| 
	.dwpsn	file "D:/TI/c2000/C2000Ware_MotorControl_SDK_5_04_00_00/libraries/utilities/math_blocks/include/v4.3/pid_grando.h",line 131,column 5,is_stmt,isa 0
        MOVL      XAR0,#562             ; [CPU_ALU] |131| 
        MOV32     R2H,*+XAR4[AR0]       ; [CPU_FPU] |131| 
        MOV32     R0H,@||motorVars||+572 ; [CPU_FPU] |131| 
        MOVL      XAR0,#564             ; [CPU_ALU] |131| 
        MOVW      DP,#||motorVars||+568 ; [CPU_ARAU] 
        MOV32     R1H,*+XAR4[AR0]       ; [CPU_FPU] |131| 
	.dwpsn	file "D:/TI/c2000/C2000Ware_MotorControl_SDK_5_04_00_00/libraries/utilities/math_blocks/include/v4.3/pid_grando.h",line 120,column 2,is_stmt,isa 0
        MOVL      ACC,@||motorVars||+568 ; [CPU_ALU] |120| 
	.dwpsn	file "D:/TI/c2000/C2000Ware_MotorControl_SDK_5_04_00_00/libraries/utilities/math_blocks/include/v4.3/pid_grando.h",line 131,column 5,is_stmt,isa 0
        MINF32    R0H,R2H               ; [CPU_FPU] |131| 
        MOVW      DP,#||motorVars||+570 ; [CPU_ARAU] 
        MOVL      XAR0,#546             ; [CPU_ALU] |131| 
	.dwpsn	file "D:/TI/c2000/C2000Ware_MotorControl_SDK_5_04_00_00/libraries/utilities/math_blocks/include/v4.3/pid_grando.h",line 125,column 2,is_stmt,isa 0
        MOV32     R3H,@||motorVars||+570 ; [CPU_FPU] |125| 
	.dwpsn	file "D:/TI/c2000/C2000Ware_MotorControl_SDK_5_04_00_00/libraries/utilities/math_blocks/include/v4.3/pid_grando.h",line 131,column 5,is_stmt,isa 0
        MAXF32    R0H,R1H               ; [CPU_FPU] |131| 
        MOVW      DP,#||motorVars||+572 ; [CPU_ARAU] 
        MOV32     *+XAR4[AR0],R0H       ; [CPU_FPU] |131| 
	.dwpsn	file "D:/TI/c2000/C2000Ware_MotorControl_SDK_5_04_00_00/libraries/utilities/math_blocks/include/v4.3/pid_grando.h",line 140,column 2,is_stmt,isa 0
        MOV32     R0H,@||motorVars||+572 ; [CPU_FPU] |140| 
        MOVW      DP,#||motorVars||+546 ; [CPU_ARAU] 
	.dwpsn	file "D:/TI/c2000/C2000Ware_MotorControl_SDK_5_04_00_00/libraries/utilities/math_blocks/include/v4.3/pid_grando.h",line 125,column 2,is_stmt,isa 0

        MOV32     R1H,@||motorVars||+546 ; [CPU_FPU] |140| 
||      MPYF32    R2H,R4H,R3H           ; [CPU_FPU] |125| 

        MOVW      DP,#||motorVars||+574 ; [CPU_ARAU] 
	.dwpsn	file "D:/TI/c2000/C2000Ware_MotorControl_SDK_5_04_00_00/libraries/utilities/math_blocks/include/v4.3/pid_grando.h",line 120,column 2,is_stmt,isa 0
        MOVL      @||motorVars||+574,ACC ; [CPU_ALU] |120| 
        MOVW      DP,#||motorVars||+576 ; [CPU_ARAU] 
	.dwpsn	file "D:/TI/c2000/C2000Ware_MotorControl_SDK_5_04_00_00/libraries/utilities/math_blocks/include/v4.3/pid_grando.h",line 125,column 2,is_stmt,isa 0
        MOV32     @||motorVars||+576,R2H ; [CPU_FPU] |125| 
	.dwpsn	file "D:/TI/c2000/C2000Ware_MotorControl_SDK_5_04_00_00/libraries/utilities/math_blocks/include/v4.3/pid_grando.h",line 140,column 2,is_stmt,isa 0
        CMPF32    R1H,R0H               ; [CPU_FPU] |140| 
        MOVST0    ZF, NF                ; [CPU_FPU] |140| 
        B         ||$C$L35||,EQ         ; [CPU_ALU] |140| 
        ; branchcc occurs ; [] |140| 
        ZERO      R0H                   ; [CPU_FPU] |140| 
        B         ||$C$L36||,UNC        ; [CPU_ALU] |140| 
        ; branch occurs ; [] |140| 
||$C$L35||:    
        MOVIZ     R0H,#16256            ; [CPU_FPU] |140| 
||$C$L36||:    
        MOVL      XAR1,#580             ; [CPU_ALU] |140| 
	.dwpsn	file "../sources/dual_axis_servo_drive.c",line 1721,column 9,is_stmt,isa 0
        MOVL      XAR0,#645             ; [CPU_ALU] |1721| 
	.dwpsn	file "D:/TI/c2000/C2000Ware_MotorControl_SDK_5_04_00_00/libraries/utilities/math_blocks/include/v4.3/pid_grando.h",line 140,column 2,is_stmt,isa 0
        MOV32     *+XAR4[AR1],R0H       ; [CPU_FPU] |140| 
	.dwpsn	file "../sources/dual_axis_servo_drive.c",line 1721,column 9,is_stmt,isa 0
        MOV       *+XAR4[AR0],#0        ; [CPU_ALU] |1721| 
||$C$L37||:    
	.dwpsn	file "../sources/dual_axis_servo_drive.c",line 1724,column 5,is_stmt,isa 0
        MOVL      XAR0,#612             ; [CPU_ALU] |1724| 
        MOVL      XAR5,*+XAR4[AR0]      ; [CPU_ALU] |1724| 
        MOV       AL,*+XAR5[0]          ; [CPU_ALU] |1724| 
        CMPB      AL,#2                 ; [CPU_ALU] |1724| 
        B         ||$C$L38||,NEQ        ; [CPU_ALU] |1724| 
        ; branchcc occurs ; [] |1724| 
        MOVL      XAR0,#658             ; [CPU_ALU] |1724| 
        MOV       AH,*+XAR4[AR0]        ; [CPU_ALU] |1724| 
        B         ||$C$L39||,NEQ        ; [CPU_ALU] |1724| 
        ; branchcc occurs ; [] |1724| 
||$C$L38||:    
	.dwpsn	file "../sources/dual_axis_servo_drive.c",line 1727,column 9,is_stmt,isa 0
        MOVL      XAR0,#576             ; [CPU_ALU] |1727| 
        ZERO      R0H                   ; [CPU_FPU] |1727| 
        MOV32     *+XAR4[AR0],R0H       ; [CPU_FPU] |1727| 
	.dwpsn	file "../sources/dual_axis_servo_drive.c",line 1731,column 9,is_stmt,isa 0
        MOVL      XAR1,#568             ; [CPU_ALU] |1731| 
        ZERO      R1H                   ; [CPU_FPU] |1731| 
	.dwpsn	file "../sources/dual_axis_servo_drive.c",line 1728,column 9,is_stmt,isa 0
        MOVL      XAR0,#578             ; [CPU_ALU] |1728| 
        MOV32     *+XAR4[AR0],R0H       ; [CPU_FPU] |1728| 
	.dwpsn	file "../sources/dual_axis_servo_drive.c",line 1729,column 9,is_stmt,isa 0
        MOVL      XAR0,#574             ; [CPU_ALU] |1729| 
        MOV32     *+XAR4[AR0],R0H       ; [CPU_FPU] |1729| 
	.dwpsn	file "../sources/dual_axis_servo_drive.c",line 1730,column 9,is_stmt,isa 0
        MOVL      XAR0,#570             ; [CPU_ALU] |1730| 
        MOV32     *+XAR4[AR0],R0H       ; [CPU_FPU] |1730| 
        MOVL      XAR0,#612             ; [CPU_ALU] 
        MOVL      XAR5,*+XAR4[AR0]      ; [CPU_ALU] 
	.dwpsn	file "../sources/dual_axis_servo_drive.c",line 1731,column 9,is_stmt,isa 0
        MOV32     *+XAR4[AR1],R1H       ; [CPU_FPU] |1731| 
	.dwpsn	file "../sources/dual_axis_servo_drive.c",line 1732,column 9,is_stmt,isa 0
        MOVL      XAR0,#566             ; [CPU_ALU] |1732| 
        MOV32     *+XAR4[AR0],R0H       ; [CPU_FPU] |1732| 
        MOV       AL,*+XAR5[0]          ; [CPU_ALU] 
||$C$L39||:    
	.dwpsn	file "../sources/dual_axis_servo_drive.c",line 1753,column 5,is_stmt,isa 0
        CMPB      AL,#0                 ; [CPU_ALU] |1753| 
        B         ||$C$L41||,EQ         ; [CPU_ALU] |1753| 
        ; branchcc occurs ; [] |1753| 
        CMPB      AL,#1                 ; [CPU_ALU] |1753| 
        B         ||$C$L40||,NEQ        ; [CPU_ALU] |1753| 
        ; branchcc occurs ; [] |1753| 
        MOVW      DP,#||motorVars||+358 ; [CPU_ARAU] 
        MOV32     R0H,@||motorVars||+358 ; [CPU_FPU] |1753| 
        B         ||$C$L42||,UNC        ; [CPU_ALU] |1753| 
        ; branch occurs ; [] |1753| 
||$C$L40||:    
        MOVW      DP,#||motorVars||+546 ; [CPU_ARAU] 
        MOV32     R0H,@||motorVars||+546 ; [CPU_FPU] |1753| 
        B         ||$C$L42||,UNC        ; [CPU_ALU] |1753| 
        ; branch occurs ; [] |1753| 
||$C$L41||:    
        ZERO      R0H                   ; [CPU_FPU] |1753| 
||$C$L42||:    
        MOVB      ACC,#32               ; [CPU_ALU] |1753| 
        MOVL      XAR5,#||motorVars||   ; [CPU_ARAU] |1753| 
        MOVL      XAR0,#612             ; [CPU_ALU] |1753| 
	.dwpsn	file "../sources/dual_axis_servo_drive.c",line 1759,column 5,is_stmt,isa 0
        MOVIZ     R2H,#14119            ; [CPU_FPU] |1759| 
	.dwpsn	file "../sources/dual_axis_servo_drive.c",line 1753,column 5,is_stmt,isa 0
        ADDL      ACC,*+XAR5[AR0]       ; [CPU_ALU] |1753| 
        MOVL      XAR4,ACC              ; [CPU_ALU] |1753| 
	.dwpsn	file "../sources/dual_axis_servo_drive.c",line 1759,column 5,is_stmt,isa 0
        MOVXI     R2H,#50604            ; [CPU_FPU] |1759| 
        MOVL      XAR1,#356             ; [CPU_ALU] |1759| 
        MOVL      XAR0,#350             ; [CPU_ALU] |1759| 
	.dwpsn	file "../sources/dual_axis_servo_drive.c",line 1753,column 5,is_stmt,isa 0
        MOV32     *+XAR4[0],R0H         ; [CPU_FPU] |1753| 
	.dwpsn	file "../sources/dual_axis_servo_drive.c",line 1759,column 5,is_stmt,isa 0
        MOV32     R1H,*+XAR5[AR0]       ; [CPU_FPU] |1759| 
        MOV32     R0H,*+XAR5[AR1]       ; [CPU_FPU] |1759| 
$C$DW$137	.dwtag  DW_TAG_TI_branch
	.dwattr $C$DW$137, DW_AT_low_pc(0x00)
	.dwattr $C$DW$137, DW_AT_name("ramper")
	.dwattr $C$DW$137, DW_AT_TI_call

        LCR       #||ramper||           ; [CPU_ALU] |1759| 
        ; call occurs [#||ramper||] ; [] |1759| 
        MOVW      DP,#||halMtrHandle||+2 ; [CPU_ARAU] 
	.dwpsn	file "D:/TI/c2000/C2000Ware_MotorControl_SDK_5_04_00_00/c2000ware/driverlib/f2837xd/driverlib/epwm.h",line 4872,column 5,is_stmt,isa 0
        MOVL      XAR4,@||halMtrHandle||+2 ; [CPU_ALU] |4872| 
        MOVB      ACC,#170              ; [CPU_ALU] |4872| 
	.dwpsn	file "D:/TI/c2000/C2000Ware_MotorControl_SDK_5_04_00_00/c2000ware/driverlib/f2837xd/driverlib/adc.h",line 819,column 5,is_stmt,isa 0
        MOVB      XAR6,#2               ; [CPU_ALU] |819| 
        MOVW      DP,#||motorVars||+350 ; [CPU_ARAU] 
	.dwpsn	file "D:/TI/c2000/C2000Ware_MotorControl_SDK_5_04_00_00/c2000ware/driverlib/f2837xd/driverlib/epwm.h",line 4872,column 5,is_stmt,isa 0
        ADDL      ACC,*+XAR4[0]         ; [CPU_ALU] |4872| 
        MOVL      XAR4,ACC              ; [CPU_ALU] |4872| 
	.dwpsn	file "D:\TI\c2000\C2000Ware_MotorControl_SDK_5_04_00_00\c2000ware\driverlib\f2837xd\driverlib\interrupt.h",line 379,column 5,is_stmt,isa 0
        MOVL      XAR7,#1028            ; [CPU_ALU] |379| 
	.dwpsn	file "../sources/dual_axis_servo_drive.c",line 1759,column 5,is_stmt,isa 0
        MOV32     @||motorVars||+350,R0H ; [CPU_FPU] |1759| 
	.dwpsn	file "../sources/dual_axis_servo_drive.c",line 2328,column 5,is_stmt,isa 0
        MOVL      ACC,XAR5              ; [CPU_ALU] |2328| 
	.dwpsn	file "D:/TI/c2000/C2000Ware_MotorControl_SDK_5_04_00_00/c2000ware/driverlib/f2837xd/driverlib/epwm.h",line 4872,column 5,is_stmt,isa 0
        OR        *+XAR4[0],#0x0001     ; [CPU_ALU] |4872| 
	.dwpsn	file "../sources/dual_axis_servo_drive.c",line 2328,column 5,is_stmt,isa 0
        ADD       ACC,#319 << 1         ; [CPU_ALU] |2328| 
	.dwpsn	file "D:/TI/c2000/C2000Ware_MotorControl_SDK_5_04_00_00/c2000ware/driverlib/f2837xd/driverlib/adc.h",line 819,column 5,is_stmt,isa 0
        MOV       *(0:0x7404),AR6       ; [CPU_ALU] |819| 
	.dwpsn	file "../sources/dual_axis_servo_drive.c",line 2328,column 5,is_stmt,isa 0
        MOVL      XAR4,ACC              ; [CPU_ALU] |2328| 
	.dwpsn	file "../sources/dual_axis_servo_drive.c",line 1761,column 5,is_stmt,isa 0
        MOVL      XAR0,#496             ; [CPU_ALU] |1761| 
	.dwpsn	file "D:\TI\c2000\C2000Ware_MotorControl_SDK_5_04_00_00\c2000ware\driverlib\f2837xd\driverlib\interrupt.h",line 379,column 5,is_stmt,isa 0
        MOV       *(0:0x0ce1),AR7       ; [CPU_ALU] |379| 
	.dwpsn	file "../sources/dual_axis_servo_drive.c",line 2328,column 5,is_stmt,isa 0
        MOVB      ACC,#1                ; [CPU_ALU] |2328| 
        ADDL      *+XAR4[0],ACC         ; [CPU_ALU] |2328| 
	.dwpsn	file "../sources/dual_axis_servo_drive.c",line 1761,column 5,is_stmt,isa 0
        MOVL      ACC,@||motorVars||+350 ; [CPU_ALU] |1761| 
        MOVL      *+XAR5[AR0],ACC       ; [CPU_ALU] |1761| 
        SUBB      SP,#2                 ; [CPU_ARAU] 
	.dwcfi	cfa_offset, -32
        MOV32     R4H,*--SP             ; [CPU_FPU] 
	.dwcfi	cfa_offset, -30
	.dwcfi	restore_reg, 59
        MOV32     R3H,*--SP             ; [CPU_FPU] 
	.dwcfi	cfa_offset, -28
	.dwcfi	restore_reg, 55
        MOV32     R2H,*--SP             ; [CPU_FPU] 
	.dwcfi	cfa_offset, -26
	.dwcfi	restore_reg, 51
        MOV32     R1H,*--SP             ; [CPU_FPU] 
	.dwcfi	cfa_offset, -24
	.dwcfi	restore_reg, 47
        MOV32     R0H,*--SP             ; [CPU_FPU] 
	.dwcfi	cfa_offset, -22
	.dwcfi	restore_reg, 43
        MOV32     STF,*--SP             ; [CPU_FPU] 
	.dwcfi	cfa_offset, -20
	.dwcfi	restore_reg, 40
        MOVL      XAR7,*--SP            ; [CPU_ALU] 
	.dwcfi	cfa_offset, -18
	.dwcfi	restore_reg, 18
        MOVL      XAR6,*--SP            ; [CPU_ALU] 
	.dwcfi	cfa_offset, -16
	.dwcfi	restore_reg, 16
        MOVL      XAR5,*--SP            ; [CPU_ALU] 
	.dwcfi	cfa_offset, -14
	.dwcfi	restore_reg, 14
        MOVL      XAR4,*--SP            ; [CPU_ALU] 
	.dwcfi	cfa_offset, -12
	.dwcfi	restore_reg, 12
        MOVL      XAR3,*--SP            ; [CPU_ALU] 
	.dwcfi	cfa_offset, -10
	.dwcfi	restore_reg, 10
        MOVL      XAR2,*--SP            ; [CPU_ALU] 
	.dwcfi	cfa_offset, -8
	.dwcfi	restore_reg, 8
        MOVL      XT,*--SP              ; [CPU_ALU] 
	.dwcfi	cfa_offset, -6
	.dwcfi	restore_reg, 22
	.dwcfi	restore_reg, 21
        POP       AR1H:AR0H             ; [CPU_ALU] 
	.dwcfi	cfa_offset, -4
	.dwcfi	restore_reg, 5
	.dwcfi	restore_reg, 7
        SETC      INTM, DBGM            ; [CPU_ALU] 
        POP       RB                    ; [CPU_FPU] 
	.dwcfi	cfa_offset, -2
	.dwcfi	restore_reg, 74
        NASP      ; [CPU_ALU] 
$C$DW$138	.dwtag  DW_TAG_TI_branch
	.dwattr $C$DW$138, DW_AT_low_pc(0x00)
	.dwattr $C$DW$138, DW_AT_TI_return

        IRET      ; [CPU_ALU] 
        ; return occurs ; [] 
	.dwattr $C$DW$131, DW_AT_TI_end_file("../sources/dual_axis_servo_drive.c")
	.dwattr $C$DW$131, DW_AT_TI_end_line(0x919)
	.dwattr $C$DW$131, DW_AT_TI_end_column(0x01)
	.dwendentry
	.dwendtag $C$DW$131

	.sect	".text:motor1ControlISR"
	.align	2
	.retain
	.retainrefs
	.global	||motor1ControlISR||

$C$DW$139	.dwtag  DW_TAG_subprogram
	.dwattr $C$DW$139, DW_AT_name("motor1ControlISR")
	.dwattr $C$DW$139, DW_AT_low_pc(||motor1ControlISR||)
	.dwattr $C$DW$139, DW_AT_high_pc(0x00)
	.dwattr $C$DW$139, DW_AT_linkage_name("motor1ControlISR")
	.dwattr $C$DW$139, DW_AT_external
	.dwattr $C$DW$139, DW_AT_decl_file("../sources/dual_axis_servo_drive.c")
	.dwattr $C$DW$139, DW_AT_decl_line(0x86b)
	.dwattr $C$DW$139, DW_AT_decl_column(0x12)
	.dwattr $C$DW$139, DW_AT_TI_interrupt
	.dwattr $C$DW$139, DW_AT_TI_max_frame_size(-34)
	.dwpsn	file "../sources/dual_axis_servo_drive.c",line 2156,column 1,is_stmt,address ||motor1ControlISR||,isa 0

	.dwfde $C$DW$CIE, ||motor1ControlISR||

;***************************************************************
;* FNAME: motor1ControlISR              FR SIZE:  32           *
;*                                                             *
;* FUNCTION ENVIRONMENT                                        *
;*                                                             *
;* FUNCTION PROPERTIES                                         *
;*                            2 Parameter,  0 Auto, 30 SOE     *
;***************************************************************

||motor1ControlISR||:
;* AR1   assigned to $O$C6
;* R0    assigned to $O$C7
;* R1    assigned to $O$C8
;* AR4   assigned to $O$C9
;* R3    assigned to $O$C10
;* R0    assigned to $O$C11
;* R2    assigned to $O$C12
;* R2    assigned to $O$C13
;* R1    assigned to $O$C14
;* R0    assigned to $O$C15
;* R0    assigned to $O$C16
;* R0    assigned to $O$C17
;* AR5   assigned to $O$C18
;* AR4   assigned to $O$C19
;* R1    assigned to $O$C20
;* AR5   assigned to $O$C21
;* R2    assigned to $O$C22
;* AR4   assigned to $O$C23
;* AR4   assigned to $O$C24
;* AL    assigned to $O$C25
;* AR1   assigned to $O$K1
;* AR4   assigned to $O$K1
;* AR4   assigned to $O$K1
;* AR4   assigned to $O$K1
;* AR4   assigned to $O$K1
;* AR4   assigned to $O$K1
;* AR4   assigned to $O$K1
;* AR4   assigned to $O$K1
;* AR4   assigned to $O$K1
;* AR4   assigned to $O$K1
;* AR4   assigned to $O$K1
;* AR2   assigned to $O$K1
;* AR2   assigned to $O$K1
;* AR2   assigned to $O$K1
;* AR4   assigned to $O$K1
;* AR4   assigned to $O$K1
;* AL    assigned to $O$U40
;* R0    assigned to $O$U81
;* AR5   assigned to $O$U38
;* AL    assigned to $O$R1
;* AL    assigned to $O$R2
;* R0    assigned to $O$S1
;* R0    assigned to $O$S2
;* R0    assigned to vdc
$C$DW$140	.dwtag  DW_TAG_variable
	.dwattr $C$DW$140, DW_AT_name("vdc")
	.dwattr $C$DW$140, DW_AT_type(*$C$DW$T$19)
	.dwattr $C$DW$140, DW_AT_location[DW_OP_regx 0x2b]

;* AR5   assigned to in
$C$DW$141	.dwtag  DW_TAG_variable
	.dwattr $C$DW$141, DW_AT_name("in")
	.dwattr $C$DW$141, DW_AT_type(*$C$DW$T$115)
	.dwattr $C$DW$141, DW_AT_location[DW_OP_reg14]

;* R0    assigned to $O$S1
	.dwcfi	cfa_offset, -2
	.dwcfi	save_reg_to_mem, 26, 0
        ASP       ; [CPU_ALU] 
        PUSH      RB                    ; [CPU_FPU] 
	.dwcfi	save_reg_to_mem, 74, 4
	.dwcfi	cfa_offset, -4
        PUSH      AR1H:AR0H             ; [CPU_ALU] 
	.dwcfi	save_reg_to_mem, 5, 4
	.dwcfi	save_reg_to_mem, 7, 5
	.dwcfi	cfa_offset, -6
        MOVL      *SP++,XT              ; [CPU_ALU] 
	.dwcfi	save_reg_to_mem, 21, 6
	.dwcfi	save_reg_to_mem, 22, 7
	.dwcfi	cfa_offset, -8
        MOVL      *SP++,XAR2            ; [CPU_ALU] 
	.dwcfi	save_reg_to_mem, 8, 8
	.dwcfi	save_reg_to_mem, 9, 9
	.dwcfi	cfa_offset, -10
        MOVL      *SP++,XAR4            ; [CPU_ALU] 
	.dwcfi	save_reg_to_mem, 12, 10
	.dwcfi	save_reg_to_mem, 13, 11
	.dwcfi	cfa_offset, -12
        MOVL      *SP++,XAR5            ; [CPU_ALU] 
	.dwcfi	save_reg_to_mem, 14, 12
	.dwcfi	save_reg_to_mem, 15, 13
	.dwcfi	cfa_offset, -14
        MOVL      *SP++,XAR6            ; [CPU_ALU] 
	.dwcfi	save_reg_to_mem, 16, 14
	.dwcfi	save_reg_to_mem, 17, 15
	.dwcfi	cfa_offset, -16
        MOVL      *SP++,XAR7            ; [CPU_ALU] 
	.dwcfi	save_reg_to_mem, 18, 16
	.dwcfi	save_reg_to_mem, 19, 17
	.dwcfi	cfa_offset, -18
        MOV32     *SP++,STF             ; [CPU_FPU] 
	.dwcfi	save_reg_to_mem, 40, 20
	.dwcfi	cfa_offset, -20
        MOV32     *SP++,R0H             ; [CPU_FPU] 
	.dwcfi	save_reg_to_mem, 43, 22
	.dwcfi	cfa_offset, -22
        MOV32     *SP++,R1H             ; [CPU_FPU] 
	.dwcfi	save_reg_to_mem, 47, 24
	.dwcfi	cfa_offset, -24
        MOV32     *SP++,R2H             ; [CPU_FPU] 
	.dwcfi	save_reg_to_mem, 51, 26
	.dwcfi	cfa_offset, -26
        MOV32     *SP++,R3H             ; [CPU_FPU] 
	.dwcfi	save_reg_to_mem, 55, 28
	.dwcfi	cfa_offset, -28
        MOV32     *SP++,R4H             ; [CPU_FPU] 
	.dwcfi	save_reg_to_mem, 59, 30
	.dwcfi	cfa_offset, -30
        MOV32     *SP++,R5H             ; [CPU_FPU] 
	.dwcfi	save_reg_to_mem, 63, 32
	.dwcfi	cfa_offset, -32
        SETFLG    RNDF32=1, RNDF64=1    ; [CPU_FPU] 
        ADDB      SP,#2                 ; [CPU_ARAU] 
	.dwcfi	cfa_offset, -34
        SPM       0                     ; [CPU_ALU] 
        CLRC      PAGE0,OVM             ; [CPU_ALU] 
        CLRC      AMODE                 ; [CPU_ALU] 
	.dwpsn	file "../sources/dual_axis_servo_drive.c",line 1397,column 5,is_stmt,isa 0
        MOVL      XAR4,#||motorVars||   ; [CPU_ARAU] |1397| 
$C$DW$142	.dwtag  DW_TAG_TI_branch
	.dwattr $C$DW$142, DW_AT_low_pc(0x00)
	.dwattr $C$DW$142, DW_AT_name("FCL_runPICtrl_M1")
	.dwattr $C$DW$142, DW_AT_TI_call

        LCR       #||FCL_runPICtrl_M1|| ; [CPU_ALU] |1397| 
        ; call occurs [#||FCL_runPICtrl_M1||] ; [] |1397| 
        MOVW      DP,#||halMtrHandle||  ; [CPU_ARAU] 
	.dwpsn	file "D:/TI/c2000/C2000Ware_MotorControl_SDK_5_04_00_00/c2000ware/driverlib/f2837xd/driverlib/epwm.h",line 1987,column 5,is_stmt,isa 0
        MOVL      XAR4,@||halMtrHandle|| ; [CPU_ALU] |1987| 
        MOVL      XAR4,*+XAR4[0]        ; [CPU_ALU] |1987| 
        MOVW      DP,#||FCL_cycleCount|| ; [CPU_ARAU] 
        MOV       AL,*+XAR4[4]          ; [CPU_ALU] |1987| 
	.dwpsn	file "D:/TI/c2000/C2000Ware_MotorControl_SDK_5_04_00_00/solutions/common/sensored_foc/include/dual_axis_servo_drive.h",line 187,column 5,is_stmt,isa 0
        CMP       AL,@||FCL_cycleCount|| ; [CPU_ALU] |187| 
        B         ||$C$L43||,HIS        ; [CPU_ALU] |187| 
        ; branchcc occurs ; [] |187| 
        MOVW      DP,#||halMtrHandle||  ; [CPU_ARAU] 
	.dwpsn	file "D:/TI/c2000/C2000Ware_MotorControl_SDK_5_04_00_00/c2000ware/driverlib/f2837xd/driverlib/epwm.h",line 2207,column 5,is_stmt,isa 0
        MOVL      XAR5,@||halMtrHandle|| ; [CPU_ALU] |2207| 
        MOVB      ACC,#99               ; [CPU_ALU] |2207| 
        ADDL      ACC,*+XAR5[0]         ; [CPU_ALU] |2207| 
        MOVL      XAR4,ACC              ; [CPU_ALU] |2207| 
        MOVW      DP,#||FCL_cycleCount|| ; [CPU_ARAU] 
        MOV       AL,*+XAR4[0]          ; [CPU_ALU] |2207| 
	.dwpsn	file "D:/TI/c2000/C2000Ware_MotorControl_SDK_5_04_00_00/solutions/common/sensored_foc/include/dual_axis_servo_drive.h",line 190,column 9,is_stmt,isa 0
        SUBR      @||FCL_cycleCount||,AL ; [CPU_ALU] |190| 
||$C$L43||:    
	.dwpsn	file "D:/TI/c2000/C2000Ware_MotorControl_SDK_5_04_00_00/solutions/common/sensored_foc/include/dual_axis_servo_drive.h",line 195,column 5,is_stmt,isa 0
        MOV       AL,@||FCL_cycleCount|| ; [CPU_ALU] |195| 
        MOVL      XAR4,#||motorVars||   ; [CPU_ARAU] |195| 
        MOVL      XAR0,#311             ; [CPU_ALU] |195| 
        CMP       AL,*+XAR4[AR0]        ; [CPU_ALU] |195| 
        B         ||$C$L44||,LOS        ; [CPU_ALU] |195| 
        ; branchcc occurs ; [] |195| 
	.dwpsn	file "D:/TI/c2000/C2000Ware_MotorControl_SDK_5_04_00_00/solutions/common/sensored_foc/include/dual_axis_servo_drive.h",line 197,column 9,is_stmt,isa 0
        MOV       AL,@||FCL_cycleCount|| ; [CPU_ALU] |197| 
        MOV       *+XAR4[AR0],AL        ; [CPU_ALU] |197| 
||$C$L44||:    
	.dwpsn	file "D:/TI/c2000/C2000Ware_MotorControl_SDK_5_04_00_00/solutions/common/sensored_foc/include/dual_axis_servo_drive.h",line 201,column 5,is_stmt,isa 0
        MOVL      XAR0,#310             ; [CPU_ALU] |201| 
        MOV       AL,*+XAR4[AR0]        ; [CPU_ALU] |201| 
        B         ||$C$L45||,EQ         ; [CPU_ALU] |201| 
        ; branchcc occurs ; [] |201| 
	.dwpsn	file "D:/TI/c2000/C2000Ware_MotorControl_SDK_5_04_00_00/solutions/common/sensored_foc/include/dual_axis_servo_drive.h",line 203,column 9,is_stmt,isa 0
        MOVL      XAR1,#311             ; [CPU_ALU] |203| 
	.dwpsn	file "D:/TI/c2000/C2000Ware_MotorControl_SDK_5_04_00_00/solutions/common/sensored_foc/include/dual_axis_servo_drive.h",line 204,column 9,is_stmt,isa 0
        MOV       *+XAR4[AR0],#0        ; [CPU_ALU] |204| 
	.dwpsn	file "D:/TI/c2000/C2000Ware_MotorControl_SDK_5_04_00_00/solutions/common/sensored_foc/include/dual_axis_servo_drive.h",line 203,column 9,is_stmt,isa 0
        MOV       *+XAR4[AR1],#0        ; [CPU_ALU] |203| 
||$C$L45||:    
        MOVW      DP,#||motorVars||+311 ; [CPU_ARAU] 
	.dwpsn	file "D:/TI/c2000/C2000Ware_MotorControl_SDK_5_04_00_00/solutions/common/sensored_foc/include/dual_axis_servo_drive.h",line 208,column 5,is_stmt,isa 0
        UI16TOF32 R1H,@||motorVars||+311 ; [CPU_FPU] |208| 
        MOVIZ     R0H,#15395            ; [CPU_FPU] |208| 
        MOVW      DP,#||motorVars||+72  ; [CPU_ARAU] 
	.dwpsn	file "D:/TI/c2000/C2000Ware_MotorControl_SDK_5_04_00_00/solutions/common/sensored_foc/include/dual_axis_servo_drive.h",line 223,column 5,is_stmt,isa 0
        MOVL      XAR4,@||motorVars||+72 ; [CPU_ALU] |223| 
	.dwpsn	file "../sources/dual_axis_servo_drive.c",line 1413,column 5,is_stmt,isa 0
        MOVL      XAR2,#||motorVars||   ; [CPU_ARAU] |1413| 
	.dwpsn	file "D:/TI/c2000/C2000Ware_MotorControl_SDK_5_04_00_00/solutions/common/sensored_foc/include/dual_axis_servo_drive.h",line 208,column 5,is_stmt,isa 0
        MOVXI     R0H,#55050            ; [CPU_FPU] |208| 
        MOVW      DP,#||motorVars||+48  ; [CPU_ARAU] 

        MOV32     R1H,@||motorVars||+48 ; [CPU_FPU] |223| 
||      MPYF32    R0H,R0H,R1H           ; [CPU_FPU] |208| 

        MOVW      DP,#||motorVars||+308 ; [CPU_ARAU] 
        MOV32     @||motorVars||+308,R0H ; [CPU_FPU] |208| 
	.dwpsn	file "D:/TI/c2000/C2000Ware_MotorControl_SDK_5_04_00_00/solutions/common/sensored_foc/include/dual_axis_servo_drive.h",line 223,column 5,is_stmt,isa 0
        UI16TOF32 R0H,*+XAR4[0]         ; [CPU_FPU] |223| 
	.dwpsn	file "../sources/dual_axis_servo_drive.c",line 1413,column 5,is_stmt,isa 0
        MOVL      XAR0,#274             ; [CPU_ALU] |1413| 
	.dwpsn	file "D:/TI/c2000/C2000Ware_MotorControl_SDK_5_04_00_00/solutions/common/sensored_foc/include/dual_axis_servo_drive.h",line 223,column 5,is_stmt,isa 0
        MPYF32    R0H,R1H,R0H           ; [CPU_FPU] |223| 
	.dwpsn	file "../sources/dual_axis_servo_drive.c",line 1419,column 5,is_stmt,isa 0
        MOVL      XAR4,XAR2             ; [CPU_ALU] |1419| 
	.dwpsn	file "D:/TI/c2000/C2000Ware_MotorControl_SDK_5_04_00_00/solutions/common/sensored_foc/include/dual_axis_servo_drive.h",line 227,column 9,is_stmt,isa 0
        MAXF32    R0H,#16256            ; [CPU_FPU] |227| 
	.dwpsn	file "../sources/dual_axis_servo_drive.c",line 1413,column 5,is_stmt,isa 0
        MOV32     *+XAR2[AR0],R0H       ; [CPU_FPU] |1413| 
	.dwpsn	file "../sources/dual_axis_servo_drive.c",line 1419,column 5,is_stmt,isa 0
$C$DW$143	.dwtag  DW_TAG_TI_branch
	.dwattr $C$DW$143, DW_AT_low_pc(0x00)
	.dwattr $C$DW$143, DW_AT_name("FCL_runPICtrlWrap_M1")
	.dwattr $C$DW$143, DW_AT_TI_call

        LCR       #||FCL_runPICtrlWrap_M1|| ; [CPU_ALU] |1419| 
        ; call occurs [#||FCL_runPICtrlWrap_M1||] ; [] |1419| 
	.dwpsn	file "../sources/dual_axis_servo_drive.c",line 1431,column 5,is_stmt,isa 0
        MOVL      XAR0,#326             ; [CPU_ALU] |1431| 
        MOV       AL,*+XAR2[AR0]        ; [CPU_ALU] |1431| 
        CMPB      AL,#1                 ; [CPU_ALU] |1431| 
        B         ||$C$L53||,NEQ        ; [CPU_ALU] |1431| 
        ; branchcc occurs ; [] |1431| 
	.dwpsn	file "../sources/dual_axis_servo_drive.c",line 1433,column 9,is_stmt,isa 0
        MOVL      XAR0,#280             ; [CPU_ALU] |1433| 
        MOVL      XAR4,*+XAR2[AR0]      ; [CPU_ALU] |1433| 
        MOV       AL,*+XAR4[0]          ; [CPU_ALU] |1433| 
        CMPB      AL,#2                 ; [CPU_ALU] |1433| 
        B         ||$C$L52||,EQ         ; [CPU_ALU] |1433| 
        ; branchcc occurs ; [] |1433| 
	.dwpsn	file "../sources/dual_axis_servo_drive.c",line 1438,column 14,is_stmt,isa 0
        CMPB      AL,#1                 ; [CPU_ALU] |1438| 
        B         ||$C$L46||,EQ         ; [CPU_ALU] |1438| 
        ; branchcc occurs ; [] |1438| 
	.dwpsn	file "../sources/dual_axis_servo_drive.c",line 1450,column 14,is_stmt,isa 0
        CMPB      AL,#0                 ; [CPU_ALU] |1450| 
        B         ||$C$L54||,NEQ        ; [CPU_ALU] |1450| 
        ; branchcc occurs ; [] |1450| 
	.dwpsn	file "../sources/dual_axis_servo_drive.c",line 1459,column 13,is_stmt,isa 0
        MOVB      XAR0,#18              ; [CPU_ALU] |1459| 
        MOV32     R1H,*+XAR2[AR0]       ; [CPU_FPU] |1459| 
	.dwpsn	file "../sources/dual_axis_servo_drive.c",line 1456,column 13,is_stmt,isa 0
        MOVB      XAR1,#24              ; [CPU_ALU] |1456| 
	.dwpsn	file "../sources/dual_axis_servo_drive.c",line 1452,column 13,is_stmt,isa 0
        ZERO      R0H                   ; [CPU_FPU] |1452| 
	.dwpsn	file "../sources/dual_axis_servo_drive.c",line 1456,column 13,is_stmt,isa 0
        MOVB      XAR0,#20              ; [CPU_ALU] |1456| 
        MOVL      ACC,*+XAR2[AR0]       ; [CPU_ALU] |1456| 
	.dwpsn	file "../sources/dual_axis_servo_drive.c",line 1453,column 13,is_stmt,isa 0
        ZERO      R2H                   ; [CPU_FPU] |1453| 
	.dwpsn	file "../sources/dual_axis_servo_drive.c",line 1452,column 13,is_stmt,isa 0
        MOVB      XAR0,#90              ; [CPU_ALU] |1452| 
	.dwpsn	file "../sources/dual_axis_servo_drive.c",line 1456,column 13,is_stmt,isa 0
        MOVL      *+XAR2[AR1],ACC       ; [CPU_ALU] |1456| 
	.dwpsn	file "../sources/dual_axis_servo_drive.c",line 1452,column 13,is_stmt,isa 0
        MOV32     *+XAR2[AR0],R0H       ; [CPU_FPU] |1452| 
	.dwpsn	file "../sources/dual_axis_servo_drive.c",line 1459,column 13,is_stmt,isa 0
        MOVB      XAR0,#24              ; [CPU_ALU] |1459| 
        MOV32     R0H,*+XAR2[AR0]       ; [CPU_FPU] |1459| 
	.dwpsn	file "../sources/dual_axis_servo_drive.c",line 1453,column 13,is_stmt,isa 0
        MOVB      XAR0,#100             ; [CPU_ALU] |1453| 
	.dwpsn	file "../sources/dual_axis_servo_drive.c",line 1459,column 13,is_stmt,isa 0
        CMPF32    R1H,R0H               ; [CPU_FPU] |1459| 
	.dwpsn	file "../sources/dual_axis_servo_drive.c",line 1453,column 13,is_stmt,isa 0
        MOV32     *+XAR2[AR0],R2H       ; [CPU_FPU] |1453| 
	.dwpsn	file "../sources/dual_axis_servo_drive.c",line 1459,column 13,is_stmt,isa 0
        MOVST0    ZF, NF                ; [CPU_FPU] |1459| 
        B         ||$C$L54||,LT         ; [CPU_ALU] |1459| 
        ; branchcc occurs ; [] |1459| 
	.dwpsn	file "../sources/dual_axis_servo_drive.c",line 1461,column 17,is_stmt,isa 0
        MOVL      ACC,XAR2              ; [CPU_ALU] |1461| 
        ADD       ACC,#157 << 1         ; [CPU_ALU] |1461| 
        MOVL      XAR4,ACC              ; [CPU_ALU] |1461| 
	.dwpsn	file "../sources/dual_axis_servo_drive.c",line 1463,column 17,is_stmt,isa 0
        MOVL      XAR0,#315             ; [CPU_ALU] |1463| 
        MOV       AL,*+XAR2[AR0]        ; [CPU_ALU] |1463| 
        MOVL      XAR0,#314             ; [CPU_ALU] |1463| 
	.dwpsn	file "../sources/dual_axis_servo_drive.c",line 1461,column 17,is_stmt,isa 0
        INC       *+XAR4[0]             ; [CPU_ALU] |1461| 
	.dwpsn	file "../sources/dual_axis_servo_drive.c",line 1463,column 17,is_stmt,isa 0
        CMP       AL,*+XAR2[AR0]        ; [CPU_ALU] |1463| 
        B         ||$C$L54||,HI         ; [CPU_ALU] |1463| 
        ; branchcc occurs ; [] |1463| 
	.dwpsn	file "../sources/dual_axis_servo_drive.c",line 1468,column 21,is_stmt,isa 0
        MOVL      XAR0,#280             ; [CPU_ALU] |1468| 
        MOVL      XAR4,*+XAR2[AR0]      ; [CPU_ALU] |1468| 
	.dwpsn	file "../sources/dual_axis_servo_drive.c",line 1465,column 21,is_stmt,isa 0
        MOVL      XAR0,#314             ; [CPU_ALU] |1465| 
        MOV       *+XAR2[AR0],#0        ; [CPU_ALU] |1465| 
	.dwpsn	file "../sources/dual_axis_servo_drive.c",line 1468,column 21,is_stmt,isa 0
        MOVB      *+XAR4[0],#1,UNC      ; [CPU_ALU] |1468| 
        B         ||$C$L54||,UNC        ; [CPU_ALU] |1468| 
        ; branch occurs ; [] |1468| 
||$C$L46||:    
        MOVW      DP,#||motorVars||+28  ; [CPU_ARAU] 
	.dwpsn	file "../sources/dual_axis_servo_drive.c",line 1440,column 13,is_stmt,isa 0
        MOV32     R0H,@||motorVars||+28 ; [CPU_FPU] |1440| 
        CMPF32    R0H,#0                ; [CPU_FPU] |1440| 
        MOVST0    ZF, NF                ; [CPU_FPU] |1440| 
        B         ||$C$L47||,GT         ; [CPU_ALU] |1440| 
        ; branchcc occurs ; [] |1440| 
        MOVIZ     R0H,#49024            ; [CPU_FPU] |1440| 
        B         ||$C$L48||,UNC        ; [CPU_ALU] |1440| 
        ; branch occurs ; [] |1440| 
||$C$L47||:    
        MOVIZ     R0H,#16256            ; [CPU_FPU] |1440| 
||$C$L48||:    
	.dwpsn	file "../sources/dual_axis_servo_drive.c",line 1446,column 17,is_stmt,isa 0
        MOVB      ACC,#20               ; [CPU_ALU] |1446| 
	.dwpsn	file "../sources/dual_axis_servo_drive.c",line 1440,column 13,is_stmt,isa 0
        MOVL      XAR4,#||motorVars||   ; [CPU_ARAU] |1440| 
	.dwpsn	file "D:/TI/c2000/C2000Ware_MotorControl_SDK_5_04_00_00/libraries/utilities/math_blocks/include/v4.3/rampgen.h",line 66,column 1,is_stmt,isa 0
        MOVL      XAR1,#280             ; [CPU_ALU] |66| 
	.dwpsn	file "../sources/dual_axis_servo_drive.c",line 1446,column 17,is_stmt,isa 0
        ADDL      ACC,*+XAR4[AR0]       ; [CPU_ALU] |1446| 
        MOVB      XAR0,#100             ; [CPU_ALU] |1446| 
        MOVL      XAR5,ACC              ; [CPU_ALU] |1446| 
        MOVL      XAR6,*+XAR4[AR0]      ; [CPU_ALU] |1446| 
	.dwpsn	file "../sources/dual_axis_servo_drive.c",line 1440,column 13,is_stmt,isa 0
        MOVB      XAR0,#32              ; [CPU_ALU] |1440| 
	.dwpsn	file "D:/TI/c2000/C2000Ware_MotorControl_SDK_5_04_00_00/libraries/utilities/math_blocks/include/v4.3/rampgen.h",line 66,column 1,is_stmt,isa 0
        MOVB      ACC,#20               ; [CPU_ALU] |66| 
	.dwpsn	file "../sources/dual_axis_servo_drive.c",line 1440,column 13,is_stmt,isa 0
        MOV32     R1H,*+XAR4[AR0]       ; [CPU_FPU] |1440| 
	.dwpsn	file "D:/TI/c2000/C2000Ware_MotorControl_SDK_5_04_00_00/libraries/utilities/math_blocks/include/v4.3/rampgen.h",line 66,column 1,is_stmt,isa 0
        ADDL      ACC,*+XAR4[AR1]       ; [CPU_ALU] |66| 
	.dwpsn	file "../sources/dual_axis_servo_drive.c",line 1446,column 17,is_stmt,isa 0
        MOVL      *+XAR5[0],XAR6        ; [CPU_ALU] |1446| 
	.dwpsn	file "D:/TI/c2000/C2000Ware_MotorControl_SDK_5_04_00_00/libraries/utilities/math_blocks/include/v4.3/rampgen.h",line 66,column 1,is_stmt,isa 0
        MOVL      XAR5,ACC              ; [CPU_ALU] |66| 
	.dwpsn	file "../sources/dual_axis_servo_drive.c",line 1440,column 13,is_stmt,isa 0
        MPYF32    R0H,R0H,R1H           ; [CPU_FPU] |1440| 
        MOVB      XAR0,#90              ; [CPU_ALU] |1440| 
        MOV32     *+XAR4[AR0],R0H       ; [CPU_FPU] |1440| 
	.dwpsn	file "D:/TI/c2000/C2000Ware_MotorControl_SDK_5_04_00_00/libraries/utilities/math_blocks/include/v4.3/rampgen.h",line 68,column 2,is_stmt,isa 0
        MOV32     R0H,*+XAR5[2]         ; [CPU_FPU] |68| 
        MOV32     R1H,*+XAR5[0]         ; [CPU_FPU] |68| 
        MPYF32    R1H,R1H,R0H           ; [CPU_FPU] |68| 
        MOV32     R0H,*+XAR5[4]         ; [CPU_FPU] |68| 
        ADDF32    R0H,R0H,R1H           ; [CPU_FPU] |68| 
        NOP       ; [CPU_ALU] 
        MOV32     *+XAR5[4],R0H         ; [CPU_FPU] |68| 
	.dwpsn	file "D:/TI/c2000/C2000Ware_MotorControl_SDK_5_04_00_00/libraries/utilities/math_blocks/include/v4.3/rampgen.h",line 71,column 2,is_stmt,isa 0
        MOV32     R0H,*+XAR5[4]         ; [CPU_FPU] |71| 
        CMPF32    R0H,#16256            ; [CPU_FPU] |71| 
        MOVST0    ZF, NF                ; [CPU_FPU] |71| 
        B         ||$C$L49||,GT         ; [CPU_ALU] |71| 
        ; branchcc occurs ; [] |71| 
	.dwpsn	file "D:/TI/c2000/C2000Ware_MotorControl_SDK_5_04_00_00/libraries/utilities/math_blocks/include/v4.3/rampgen.h",line 75,column 7,is_stmt,isa 0
        CMPF32    R0H,#49024            ; [CPU_FPU] |75| 
        MOVST0    ZF, NF                ; [CPU_FPU] |75| 
        B         ||$C$L51||,GEQ        ; [CPU_ALU] |75| 
        ; branchcc occurs ; [] |75| 
	.dwpsn	file "D:/TI/c2000/C2000Ware_MotorControl_SDK_5_04_00_00/libraries/utilities/math_blocks/include/v4.3/rampgen.h",line 77,column 3,is_stmt,isa 0
        ADDF32    R0H,R0H,#16256        ; [CPU_FPU] |77| 
        B         ||$C$L50||,UNC        ; [CPU_ALU] |77| 
        ; branch occurs ; [] |77| 
||$C$L49||:    
	.dwpsn	file "D:/TI/c2000/C2000Ware_MotorControl_SDK_5_04_00_00/libraries/utilities/math_blocks/include/v4.3/rampgen.h",line 73,column 3,is_stmt,isa 0
        MOV32     R0H,*+XAR5[4]         ; [CPU_FPU] |73| 
        ADDF32    R0H,R0H,#49024        ; [CPU_FPU] |73| 
        NOP       ; [CPU_ALU] 
||$C$L50||:    
        MOV32     *+XAR5[4],R0H         ; [CPU_FPU] |73| 
        MOV32     R0H,*+XAR5[4]         ; [CPU_FPU] 
||$C$L51||:    
	.dwpsn	file "D:/TI/c2000/C2000Ware_MotorControl_SDK_5_04_00_00/libraries/utilities/math_blocks/include/v4.3/rampgen.h",line 80,column 2,is_stmt,isa 0
        MOVB      XAR0,#8               ; [CPU_ALU] |80| 
        MOV32     *+XAR5[AR0],R0H       ; [CPU_FPU] |80| 
        B         ||$C$L54||,UNC        ; [CPU_ALU] 
        ; branch occurs ; [] 
||$C$L52||:    
        MOVW      DP,#||motorVars||+22  ; [CPU_ARAU] 
	.dwpsn	file "../sources/dual_axis_servo_drive.c",line 1435,column 13,is_stmt,isa 0
        MOVL      XAR6,@||motorVars||+22 ; [CPU_ALU] |1435| 
        MOVW      DP,#||motorVars||+28  ; [CPU_ARAU] 
	.dwpsn	file "../sources/dual_axis_servo_drive.c",line 1436,column 13,is_stmt,isa 0
        MOVL      ACC,@||motorVars||+28 ; [CPU_ALU] |1436| 
        MOVW      DP,#||motorVars||+24  ; [CPU_ARAU] 
	.dwpsn	file "../sources/dual_axis_servo_drive.c",line 1435,column 13,is_stmt,isa 0
        MOVL      @||motorVars||+24,XAR6 ; [CPU_ALU] |1435| 
        MOVW      DP,#||motorVars||+90  ; [CPU_ARAU] 
	.dwpsn	file "../sources/dual_axis_servo_drive.c",line 1436,column 13,is_stmt,isa 0
        MOVL      @||motorVars||+90,ACC ; [CPU_ALU] |1436| 
        B         ||$C$L54||,UNC        ; [CPU_ALU] 
        ; branch occurs ; [] 
||$C$L53||:    
	.dwpsn	file "../sources/dual_axis_servo_drive.c",line 1475,column 9,is_stmt,isa 0
        MOVB      XAR0,#24              ; [CPU_ALU] |1475| 
        MOVL      XAR4,#||motorVars||   ; [CPU_ARAU] |1475| 
        ZERO      R0H                   ; [CPU_FPU] |1475| 
	.dwpsn	file "../sources/dual_axis_servo_drive.c",line 1476,column 9,is_stmt,isa 0
        MOVB      XAR1,#18              ; [CPU_ALU] |1476| 
	.dwpsn	file "../sources/dual_axis_servo_drive.c",line 1475,column 9,is_stmt,isa 0
        MOV32     *+XAR4[AR0],R0H       ; [CPU_FPU] |1475| 
	.dwpsn	file "../sources/dual_axis_servo_drive.c",line 1476,column 9,is_stmt,isa 0
        MOVB      XAR0,#24              ; [CPU_ALU] |1476| 
        MOVL      ACC,*+XAR4[AR0]       ; [CPU_ALU] |1476| 
	.dwpsn	file "../sources/dual_axis_servo_drive.c",line 1478,column 9,is_stmt,isa 0
        MOVB      XAR0,#90              ; [CPU_ALU] |1478| 
	.dwpsn	file "../sources/dual_axis_servo_drive.c",line 1476,column 9,is_stmt,isa 0
        MOVL      *+XAR4[AR1],ACC       ; [CPU_ALU] |1476| 
	.dwpsn	file "../sources/dual_axis_servo_drive.c",line 1478,column 9,is_stmt,isa 0
        MOV32     *+XAR4[AR0],R0H       ; [CPU_FPU] |1478| 
	.dwpsn	file "../sources/dual_axis_servo_drive.c",line 1480,column 9,is_stmt,isa 0
$C$DW$144	.dwtag  DW_TAG_TI_branch
	.dwattr $C$DW$144, DW_AT_low_pc(0x00)
	.dwattr $C$DW$144, DW_AT_name("FCL_resetController")
	.dwattr $C$DW$144, DW_AT_TI_call

        LCR       #||FCL_resetController|| ; [CPU_ALU] |1480| 
        ; call occurs [#||FCL_resetController||] ; [] |1480| 
||$C$L54||:    
	.dwpsn	file "D:/TI/c2000/C2000Ware_MotorControl_SDK_5_04_00_00/libraries/utilities/math_blocks/include/v4.3/rmp_cntl.h",line 73,column 2,is_stmt,isa 0
        MOVL      XAR5,#||motorVars||   ; [CPU_ARAU] |73| 
        MOVB      XAR0,#100             ; [CPU_ALU] |73| 
        MOVB      XAR1,#90              ; [CPU_ALU] |73| 
        MOVL      XAR4,XAR5             ; [CPU_ALU] |73| 
        MOV32     R0H,*+XAR5[AR0]       ; [CPU_FPU] |73| 
        MOV32     R1H,*+XAR5[AR1]       ; [CPU_FPU] |73| 
        SUBF32    R2H,R1H,R0H           ; [CPU_FPU] |73| 
	.dwpsn	file "D:/TI/c2000/C2000Ware_MotorControl_SDK_5_04_00_00/libraries/utilities/math_blocks/include/v4.3/rmp_cntl.h",line 76,column 5,is_stmt,isa 0
        MOVIZ     R0H,#14207            ; [CPU_FPU] |76| 
	.dwpsn	file "D:/TI/c2000/C2000Ware_MotorControl_SDK_5_04_00_00/libraries/utilities/math_blocks/include/v4.3/rmp_cntl.h",line 73,column 2,is_stmt,isa 0
        ADDB      XAR4,#98              ; [CPU_ALU] |73| 
	.dwpsn	file "D:/TI/c2000/C2000Ware_MotorControl_SDK_5_04_00_00/libraries/utilities/math_blocks/include/v4.3/rmp_cntl.h",line 76,column 5,is_stmt,isa 0
        MOV32     R1H,R2H               ; [CPU_FPU] |76| 
        MOVXI     R0H,#55872            ; [CPU_FPU] |76| 
        ABSF32    R1H,R1H               ; [CPU_FPU] |76| 
	.dwpsn	file "D:/TI/c2000/C2000Ware_MotorControl_SDK_5_04_00_00/libraries/utilities/math_blocks/include/v4.3/rmp_cntl.h",line 73,column 2,is_stmt,isa 0
        MOV32     *+XAR4[6],R2H         ; [CPU_FPU] |73| 
	.dwpsn	file "D:/TI/c2000/C2000Ware_MotorControl_SDK_5_04_00_00/libraries/utilities/math_blocks/include/v4.3/rmp_cntl.h",line 76,column 5,is_stmt,isa 0
        CMPF32    R1H,R0H               ; [CPU_FPU] |76| 
        MOVST0    ZF, NF                ; [CPU_FPU] |76| 
        B         ||$C$L57||,LT         ; [CPU_ALU] |76| 
        ; branchcc occurs ; [] |76| 
	.dwpsn	file "D:/TI/c2000/C2000Ware_MotorControl_SDK_5_04_00_00/libraries/utilities/math_blocks/include/v4.3/rmp_cntl.h",line 83,column 3,is_stmt,isa 0
        MOVB      ACC,#1                ; [CPU_ALU] |83| 
	.dwpsn	file "D:/TI/c2000/C2000Ware_MotorControl_SDK_5_04_00_00/libraries/utilities/math_blocks/include/v4.3/rmp_cntl.h",line 85,column 3,is_stmt,isa 0
        MOVB      XAR0,#92              ; [CPU_ALU] |85| 
        MOVB      XAR1,#98              ; [CPU_ALU] |85| 
	.dwpsn	file "D:/TI/c2000/C2000Ware_MotorControl_SDK_5_04_00_00/libraries/utilities/math_blocks/include/v4.3/rmp_cntl.h",line 83,column 3,is_stmt,isa 0
        ADDL      *+XAR4[0],ACC         ; [CPU_ALU] |83| 
	.dwpsn	file "D:/TI/c2000/C2000Ware_MotorControl_SDK_5_04_00_00/libraries/utilities/math_blocks/include/v4.3/rmp_cntl.h",line 85,column 3,is_stmt,isa 0
        MOVL      ACC,*+XAR5[AR0]       ; [CPU_ALU] |85| 
        CMPL      ACC,*+XAR5[AR1]       ; [CPU_ALU] |85| 
        B         ||$C$L58||,HI         ; [CPU_ALU] |85| 
        ; branchcc occurs ; [] |85| 
	.dwpsn	file "D:/TI/c2000/C2000Ware_MotorControl_SDK_5_04_00_00/libraries/utilities/math_blocks/include/v4.3/rmp_cntl.h",line 87,column 4,is_stmt,isa 0
        MOVL      XAR4,XAR5             ; [CPU_ALU] |87| 
        MOVB      XAR0,#90              ; [CPU_ALU] |87| 
        MOV32     R0H,*+XAR5[AR0]       ; [CPU_FPU] |87| 
        ADDB      XAR4,#100             ; [CPU_ALU] |87| 
        MOV32     R1H,*+XAR4[0]         ; [CPU_FPU] |87| 
        CMPF32    R0H,R1H               ; [CPU_FPU] |87| 
        MOVST0    ZF, NF                ; [CPU_FPU] |87| 
        B         ||$C$L55||,GEQ        ; [CPU_ALU] |87| 
        ; branchcc occurs ; [] |87| 
	.dwpsn	file "D:/TI/c2000/C2000Ware_MotorControl_SDK_5_04_00_00/libraries/utilities/math_blocks/include/v4.3/rmp_cntl.h",line 93,column 5,is_stmt,isa 0
        MOVIZ     R0H,#14207            ; [CPU_FPU] |93| 
        MOVXI     R0H,#55872            ; [CPU_FPU] |93| 
        SUBF32    R0H,R1H,R0H           ; [CPU_FPU] |93| 
        NOP       ; [CPU_ALU] 
        MOV32     *+XAR4[0],R0H         ; [CPU_FPU] |93| 
        B         ||$C$L56||,UNC        ; [CPU_ALU] |93| 
        ; branch occurs ; [] |93| 
||$C$L55||:    
        MOVW      DP,#||motorVars||+100 ; [CPU_ARAU] 
	.dwpsn	file "D:/TI/c2000/C2000Ware_MotorControl_SDK_5_04_00_00/libraries/utilities/math_blocks/include/v4.3/rmp_cntl.h",line 89,column 5,is_stmt,isa 0
        MOVIZ     R0H,#14207            ; [CPU_FPU] |89| 
        MOV32     R1H,@||motorVars||+100 ; [CPU_FPU] |89| 
        MOVXI     R0H,#55872            ; [CPU_FPU] |89| 
        ADDF32    R0H,R0H,R1H           ; [CPU_FPU] |89| 
        NOP       ; [CPU_ALU] 
        MOV32     @||motorVars||+100,R0H ; [CPU_FPU] |89| 
||$C$L56||:    
	.dwpsn	file "D:/TI/c2000/C2000Ware_MotorControl_SDK_5_04_00_00/libraries/utilities/math_blocks/include/v4.3/rmp_cntl.h",line 96,column 4,is_stmt,isa 0
        MOVB      ACC,#0                ; [CPU_ALU] |96| 
        MOVW      DP,#||motorVars||+98  ; [CPU_ARAU] 
        MOVL      @||motorVars||+98,ACC ; [CPU_ALU] |96| 
        B         ||$C$L58||,UNC        ; [CPU_ALU] |96| 
        ; branch occurs ; [] |96| 
||$C$L57||:    
	.dwpsn	file "D:/TI/c2000/C2000Ware_MotorControl_SDK_5_04_00_00/libraries/utilities/math_blocks/include/v4.3/rmp_cntl.h",line 101,column 6,is_stmt,isa 0
        MOVB      XAR0,#90              ; [CPU_ALU] |101| 
        MOVL      XAR4,#||motorVars||   ; [CPU_ARAU] |101| 
	.dwpsn	file "D:/TI/c2000/C2000Ware_MotorControl_SDK_5_04_00_00/libraries/utilities/math_blocks/include/v4.3/rmp_cntl.h",line 102,column 3,is_stmt,isa 0
        MOV       AL,#65535             ; [CPU_ALU] |102| 
	.dwpsn	file "D:/TI/c2000/C2000Ware_MotorControl_SDK_5_04_00_00/libraries/utilities/math_blocks/include/v4.3/rmp_cntl.h",line 101,column 6,is_stmt,isa 0
        MOVL      XAR6,*+XAR4[AR0]      ; [CPU_ALU] |101| 
	.dwpsn	file "D:/TI/c2000/C2000Ware_MotorControl_SDK_5_04_00_00/libraries/utilities/math_blocks/include/v4.3/rmp_cntl.h",line 102,column 3,is_stmt,isa 0
        MOV       AH,#32767             ; [CPU_ALU] |102| 
	.dwpsn	file "D:/TI/c2000/C2000Ware_MotorControl_SDK_5_04_00_00/libraries/utilities/math_blocks/include/v4.3/rmp_cntl.h",line 101,column 6,is_stmt,isa 0
        ADDB      XAR4,#100             ; [CPU_ALU] |101| 
	.dwpsn	file "D:/TI/c2000/C2000Ware_MotorControl_SDK_5_04_00_00/libraries/utilities/math_blocks/include/v4.3/rmp_cntl.h",line 102,column 3,is_stmt,isa 0
        MOVL      *+XAR4[2],ACC         ; [CPU_ALU] |102| 
	.dwpsn	file "D:/TI/c2000/C2000Ware_MotorControl_SDK_5_04_00_00/libraries/utilities/math_blocks/include/v4.3/rmp_cntl.h",line 101,column 6,is_stmt,isa 0
        MOVL      *+XAR4[0],XAR6        ; [CPU_ALU] |101| 
||$C$L58||:    
	.dwpsn	file "D:/TI/c2000/C2000Ware_MotorControl_SDK_5_04_00_00/libraries/utilities/math_blocks/include/v4.3/rmp_cntl.h",line 109,column 5,is_stmt,isa 0
        MOVB      XAR0,#96              ; [CPU_ALU] |109| 
        MOV32     R2H,*+XAR5[AR0]       ; [CPU_FPU] |109| 
        MOVB      XAR0,#100             ; [CPU_ALU] |109| 
	.dwpsn	file "../sources/dual_axis_servo_drive.c",line 1491,column 5,is_stmt,isa 0
        MOVB      ACC,#54               ; [CPU_ALU] |1491| 
	.dwpsn	file "D:/TI/c2000/C2000Ware_MotorControl_SDK_5_04_00_00/libraries/utilities/math_blocks/include/v4.3/rmp_cntl.h",line 109,column 5,is_stmt,isa 0
        MOV32     R0H,*+XAR5[AR0]       ; [CPU_FPU] |109| 
        MOVB      XAR1,#100             ; [CPU_ALU] |109| 
        MOVB      XAR0,#94              ; [CPU_ALU] |109| 
        MOV32     R1H,*+XAR5[AR0]       ; [CPU_FPU] |109| 
	.dwpsn	file "../sources/dual_axis_servo_drive.c",line 1491,column 5,is_stmt,isa 0
        MOVL      XAR0,#280             ; [CPU_ALU] |1491| 
	.dwpsn	file "D:/TI/c2000/C2000Ware_MotorControl_SDK_5_04_00_00/libraries/utilities/math_blocks/include/v4.3/rmp_cntl.h",line 109,column 5,is_stmt,isa 0
        MINF32    R0H,R2H               ; [CPU_FPU] |109| 
	.dwpsn	file "../sources/dual_axis_servo_drive.c",line 1491,column 5,is_stmt,isa 0
        ADDL      ACC,*+XAR5[AR0]       ; [CPU_ALU] |1491| 
	.dwpsn	file "D:/TI/c2000/C2000Ware_MotorControl_SDK_5_04_00_00/libraries/utilities/math_blocks/include/v4.3/rmp_cntl.h",line 109,column 5,is_stmt,isa 0
        MAXF32    R0H,R1H               ; [CPU_FPU] |109| 
	.dwpsn	file "../sources/dual_axis_servo_drive.c",line 1491,column 5,is_stmt,isa 0
        MOVL      XAR4,ACC              ; [CPU_ALU] |1491| 
        MOVB      XAR0,#56              ; [CPU_ALU] |1491| 
	.dwpsn	file "D:/TI/c2000/C2000Ware_MotorControl_SDK_5_04_00_00/libraries/utilities/math_blocks/include/v4.3/rmp_cntl.h",line 109,column 5,is_stmt,isa 0
        MOV32     *+XAR5[AR1],R0H       ; [CPU_FPU] |109| 
	.dwpsn	file "../sources/dual_axis_servo_drive.c",line 1493,column 5,is_stmt,isa 0
        MOVB      XAR1,#144             ; [CPU_ALU] |1493| 
	.dwpsn	file "../sources/dual_axis_servo_drive.c",line 1491,column 5,is_stmt,isa 0
        MOVL      ACC,*+XAR4[0]         ; [CPU_ALU] |1491| 
        MOVL      *+XAR5[AR0],ACC       ; [CPU_ALU] |1491| 
	.dwpsn	file "../sources/dual_axis_servo_drive.c",line 1492,column 5,is_stmt,isa 0
        MOVL      XAR0,#280             ; [CPU_ALU] |1492| 
        MOVB      ACC,#56               ; [CPU_ALU] |1492| 
        ADDL      ACC,*+XAR5[AR0]       ; [CPU_ALU] |1492| 
	.dwpsn	file "../sources/dual_axis_servo_drive.c",line 1493,column 5,is_stmt,isa 0
        MOVB      XAR0,#56              ; [CPU_ALU] |1493| 
	.dwpsn	file "../sources/dual_axis_servo_drive.c",line 1492,column 5,is_stmt,isa 0
        MOVL      XAR4,ACC              ; [CPU_ALU] |1492| 
	.dwpsn	file "../sources/dual_axis_servo_drive.c",line 1493,column 5,is_stmt,isa 0
        MOVL      ACC,*+XAR5[AR0]       ; [CPU_ALU] |1493| 
	.dwpsn	file "D:/TI/c2000/C2000Ware_MotorControl_SDK_5_04_00_00/libraries/utilities/math_blocks/include/v4.3/speed_fr.h",line 76,column 2,is_stmt,isa 0
        MOVB      XAR0,#148             ; [CPU_ALU] |76| 
	.dwpsn	file "../sources/dual_axis_servo_drive.c",line 1493,column 5,is_stmt,isa 0
        MOVL      *+XAR5[AR1],ACC       ; [CPU_ALU] |1493| 
	.dwpsn	file "../sources/dual_axis_servo_drive.c",line 1492,column 5,is_stmt,isa 0
        MOVL      XAR6,*+XAR4[0]        ; [CPU_ALU] |1492| 
	.dwpsn	file "D:/TI/c2000/C2000Ware_MotorControl_SDK_5_04_00_00/libraries/utilities/math_blocks/include/v4.3/speed_fr.h",line 76,column 2,is_stmt,isa 0
        MOVB      XAR1,#144             ; [CPU_ALU] |76| 
        MOVL      ACC,XAR5              ; [CPU_ALU] |76| 
        MOV32     R0H,*+XAR5[AR0]       ; [CPU_FPU] |76| 
        MOV32     R1H,*+XAR5[AR1]       ; [CPU_FPU] |76| 
        ADDB      ACC,#162              ; [CPU_ALU] |76| 
        MOVL      XAR4,ACC              ; [CPU_ALU] |76| 
        SUBF32    R0H,R1H,R0H           ; [CPU_FPU] |76| 
	.dwpsn	file "../sources/dual_axis_servo_drive.c",line 1492,column 5,is_stmt,isa 0
        MOVB      XAR0,#58              ; [CPU_ALU] |1492| 
        MOVL      *+XAR5[AR0],XAR6      ; [CPU_ALU] |1492| 
	.dwpsn	file "D:/TI/c2000/C2000Ware_MotorControl_SDK_5_04_00_00/libraries/utilities/math_blocks/include/v4.3/speed_fr.h",line 76,column 2,is_stmt,isa 0
        MOV32     *+XAR4[0],R0H         ; [CPU_FPU] |76| 
	.dwpsn	file "D:/TI/c2000/C2000Ware_MotorControl_SDK_5_04_00_00/libraries/utilities/math_blocks/include/v4.3/speed_fr.h",line 78,column 2,is_stmt,isa 0
        CMPF32    R0H,#48896            ; [CPU_FPU] |78| 
        MOVST0    ZF, NF                ; [CPU_FPU] |78| 
        B         ||$C$L59||,LT         ; [CPU_ALU] |78| 
        ; branchcc occurs ; [] |78| 
	.dwpsn	file "D:/TI/c2000/C2000Ware_MotorControl_SDK_5_04_00_00/libraries/utilities/math_blocks/include/v4.3/speed_fr.h",line 82,column 7,is_stmt,isa 0
        CMPF32    R0H,#16128            ; [CPU_FPU] |82| 
        MOVST0    ZF, NF                ; [CPU_FPU] |82| 
        B         ||$C$L60||,LEQ        ; [CPU_ALU] |82| 
        ; branchcc occurs ; [] |82| 
	.dwpsn	file "D:/TI/c2000/C2000Ware_MotorControl_SDK_5_04_00_00/libraries/utilities/math_blocks/include/v4.3/speed_fr.h",line 84,column 3,is_stmt,isa 0
        ADDF32    R0H,R0H,#49024        ; [CPU_FPU] |84| 
        NOP       ; [CPU_ALU] 
        MOV32     *+XAR4[0],R0H         ; [CPU_FPU] |84| 
        B         ||$C$L60||,UNC        ; [CPU_ALU] |84| 
        ; branch occurs ; [] |84| 
||$C$L59||:    
        MOVW      DP,#||motorVars||+162 ; [CPU_ARAU] 
	.dwpsn	file "D:/TI/c2000/C2000Ware_MotorControl_SDK_5_04_00_00/libraries/utilities/math_blocks/include/v4.3/speed_fr.h",line 80,column 3,is_stmt,isa 0
        MOV32     R0H,@||motorVars||+162 ; [CPU_FPU] |80| 
        ADDF32    R0H,R0H,#16256        ; [CPU_FPU] |80| 
        NOP       ; [CPU_ALU] 
        MOV32     @||motorVars||+162,R0H ; [CPU_FPU] |80| 
||$C$L60||:    
	.dwpsn	file "D:/TI/c2000/C2000Ware_MotorControl_SDK_5_04_00_00/libraries/utilities/math_blocks/include/v4.3/speed_fr.h",line 87,column 2,is_stmt,isa 0
        MOVL      XAR4,#||motorVars||   ; [CPU_ARAU] |87| 
	.dwpsn	file "../sources/dual_axis_servo_drive.c",line 1518,column 5,is_stmt,isa 0
        MOVL      XAR0,#312             ; [CPU_ALU] |1518| 
	.dwpsn	file "../sources/dual_axis_servo_drive.c",line 1516,column 5,is_stmt,isa 0
        MOVL      ACC,XAR4              ; [CPU_ALU] |1516| 
        ADD       ACC,#313 << 0         ; [CPU_ALU] |1516| 
        MOVL      XAR5,ACC              ; [CPU_ALU] |1516| 
	.dwpsn	file "../sources/dual_axis_servo_drive.c",line 1518,column 5,is_stmt,isa 0
        MOV       AL,*+XAR4[AR0]        ; [CPU_ALU] |1518| 
	.dwpsn	file "D:/TI/c2000/C2000Ware_MotorControl_SDK_5_04_00_00/libraries/utilities/math_blocks/include/v4.3/speed_fr.h",line 87,column 2,is_stmt,isa 0
        MOVB      XAR0,#162             ; [CPU_ALU] |87| 
        MOV32     R0H,*+XAR4[AR0]       ; [CPU_FPU] |87| 
        MOVB      XAR0,#154             ; [CPU_ALU] |87| 
        MOV32     R2H,*+XAR4[AR0]       ; [CPU_FPU] |87| 
        MOVB      XAR0,#150             ; [CPU_ALU] |87| 
        MOV32     R1H,*+XAR4[AR0]       ; [CPU_FPU] |87| 
        MOVB      XAR0,#156             ; [CPU_ALU] |87| 

        MOV32     R0H,*+XAR4[AR0]       ; [CPU_FPU] |87| 
||      MPYF32    R2H,R2H,R0H           ; [CPU_FPU] |87| 

        MOVB      XAR0,#158             ; [CPU_ALU] |87| 

        MOV32     R1H,*+XAR4[AR0]       ; [CPU_FPU] |87| 
||      MPYF32    R0H,R1H,R0H           ; [CPU_FPU] |87| 

        MPYF32    R1H,R2H,R1H           ; [CPU_FPU] |87| 
        NOP       ; [CPU_ALU] 
        ADDF32    R0H,R0H,R1H           ; [CPU_FPU] |87| 
        MOVB      XAR0,#162             ; [CPU_ALU] |87| 
        MOV32     *+XAR4[AR0],R0H       ; [CPU_FPU] |87| 
	.dwpsn	file "D:/TI/c2000/C2000Ware_MotorControl_SDK_5_04_00_00/libraries/utilities/math_blocks/include/v4.3/speed_fr.h",line 94,column 2,is_stmt,isa 0
        MOVB      XAR0,#150             ; [CPU_ALU] |94| 
        MAXF32    R0H,#49024            ; [CPU_FPU] |94| 
        MINF32    R0H,#16256            ; [CPU_FPU] |94| 
        MOV32     *+XAR4[AR0],R0H       ; [CPU_FPU] |94| 
	.dwpsn	file "D:/TI/c2000/C2000Ware_MotorControl_SDK_5_04_00_00/libraries/utilities/math_blocks/include/v4.3/speed_fr.h",line 104,column 2,is_stmt,isa 0
        MOVB      XAR0,#144             ; [CPU_ALU] |104| 
        MOVL      XAR6,*+XAR4[AR0]      ; [CPU_ALU] |104| 
	.dwpsn	file "../sources/dual_axis_servo_drive.c",line 1516,column 5,is_stmt,isa 0
        INC       *+XAR5[0]             ; [CPU_ALU] |1516| 
	.dwpsn	file "D:/TI/c2000/C2000Ware_MotorControl_SDK_5_04_00_00/libraries/utilities/math_blocks/include/v4.3/speed_fr.h",line 104,column 2,is_stmt,isa 0
        MOVB      XAR0,#148             ; [CPU_ALU] |104| 
        MOVL      *+XAR4[AR0],XAR6      ; [CPU_ALU] |104| 
	.dwpsn	file "../sources/dual_axis_servo_drive.c",line 1518,column 5,is_stmt,isa 0
        MOVL      XAR0,#313             ; [CPU_ALU] |1518| 
        CMP       AL,*+XAR4[AR0]        ; [CPU_ALU] |1518| 
        B         ||$C$L63||,HI         ; [CPU_ALU] |1518| 
        ; branchcc occurs ; [] |1518| 
	.dwpsn	file "../sources/dual_axis_servo_drive.c",line 1526,column 9,is_stmt,isa 0
        MOVB      XAR0,#100             ; [CPU_ALU] |1526| 
        MOVB      XAR1,#210             ; [CPU_ALU] |1526| 
        MOVL      ACC,*+XAR4[AR0]       ; [CPU_ALU] |1526| 
	.dwpsn	file "../sources/dual_axis_servo_drive.c",line 1530,column 9,is_stmt,isa 0
        MOVB      XAR0,#150             ; [CPU_ALU] |1530| 
	.dwpsn	file "../sources/dual_axis_servo_drive.c",line 1526,column 9,is_stmt,isa 0
        MOVL      *+XAR4[AR1],ACC       ; [CPU_ALU] |1526| 
	.dwpsn	file "../sources/dual_axis_servo_drive.c",line 1530,column 9,is_stmt,isa 0
        MOVB      XAR1,#212             ; [CPU_ALU] |1530| 
        MOVL      ACC,*+XAR4[AR0]       ; [CPU_ALU] |1530| 
	.dwpsn	file "D:/TI/c2000/C2000Ware_MotorControl_SDK_5_04_00_00/libraries/utilities/math_blocks/include/v4.3/pid_grando.h",line 123,column 2,is_stmt,isa 0
        MOVB      XAR0,#228             ; [CPU_ALU] |123| 
        MOV32     R0H,*+XAR4[AR0]       ; [CPU_FPU] |123| 
	.dwpsn	file "../sources/dual_axis_servo_drive.c",line 1530,column 9,is_stmt,isa 0
        MOVL      *+XAR4[AR1],ACC       ; [CPU_ALU] |1530| 
	.dwpsn	file "D:/TI/c2000/C2000Ware_MotorControl_SDK_5_04_00_00/libraries/utilities/math_blocks/include/v4.3/pid_grando.h",line 116,column 2,is_stmt,isa 0
        MOVB      XAR0,#210             ; [CPU_ALU] |116| 
        MOV32     R1H,*+XAR4[AR0]       ; [CPU_FPU] |116| 
        MOVB      XAR0,#212             ; [CPU_ALU] |116| 
	.dwpsn	file "D:/TI/c2000/C2000Ware_MotorControl_SDK_5_04_00_00/libraries/utilities/math_blocks/include/v4.3/pid_grando.h",line 123,column 2,is_stmt,isa 0
        MOVB      XAR1,#246             ; [CPU_ALU] |123| 
	.dwpsn	file "D:/TI/c2000/C2000Ware_MotorControl_SDK_5_04_00_00/libraries/utilities/math_blocks/include/v4.3/pid_grando.h",line 116,column 2,is_stmt,isa 0

        MOV32     R0H,*+XAR4[AR0]       ; [CPU_FPU] |116| 
||      MPYF32    R2H,R1H,R0H           ; [CPU_FPU] |123| 

	.dwpsn	file "D:/TI/c2000/C2000Ware_MotorControl_SDK_5_04_00_00/libraries/utilities/math_blocks/include/v4.3/pid_grando.h",line 123,column 2,is_stmt,isa 0
        MOVB      XAR0,#216             ; [CPU_ALU] |123| 

        MOV32     R2H,*+XAR4[AR0]       ; [CPU_FPU] |123| 
||      SUBF32    R3H,R2H,R0H           ; [CPU_FPU] |123| 

        MOVB      XAR0,#226             ; [CPU_ALU] |123| 
        MPYF32    R3H,R3H,R2H           ; [CPU_FPU] |123| 
        MOV32     R2H,*+XAR4[AR0]       ; [CPU_FPU] |123| 
        MPYF32    R3H,R3H,R2H           ; [CPU_FPU] |123| 
        MOV32     R2H,*+XAR4[AR1]       ; [CPU_FPU] |123| 
        SUBF32    R2H,R3H,R2H           ; [CPU_FPU] |123| 
        MOVB      XAR0,#246             ; [CPU_ALU] |123| 
        MOV32     *+XAR4[AR0],R2H       ; [CPU_FPU] |123| 
	.dwpsn	file "D:/TI/c2000/C2000Ware_MotorControl_SDK_5_04_00_00/libraries/utilities/math_blocks/include/v4.3/pid_grando.h",line 124,column 2,is_stmt,isa 0
        MOVB      XAR0,#244             ; [CPU_ALU] |124| 
        MOV32     R3H,*+XAR4[AR0]       ; [CPU_FPU] |124| 
	.dwpsn	file "D:/TI/c2000/C2000Ware_MotorControl_SDK_5_04_00_00/libraries/utilities/math_blocks/include/v4.3/pid_grando.h",line 125,column 2,is_stmt,isa 0
        MOVB      XAR0,#218             ; [CPU_ALU] |125| 
	.dwpsn	file "D:/TI/c2000/C2000Ware_MotorControl_SDK_5_04_00_00/libraries/utilities/math_blocks/include/v4.3/pid_grando.h",line 124,column 2,is_stmt,isa 0
        ADDF32    R2H,R2H,R3H           ; [CPU_FPU] |124| 
	.dwpsn	file "D:/TI/c2000/C2000Ware_MotorControl_SDK_5_04_00_00/libraries/utilities/math_blocks/include/v4.3/pid_grando.h",line 125,column 2,is_stmt,isa 0
        MOV32     R3H,*+XAR4[AR0]       ; [CPU_FPU] |125| 
        MPYF32    R3H,R2H,R3H           ; [CPU_FPU] |125| 
        MOVB      XAR0,#244             ; [CPU_ALU] |125| 
        MOV32     *+XAR4[AR0],R3H       ; [CPU_FPU] |125| 
	.dwpsn	file "D:/TI/c2000/C2000Ware_MotorControl_SDK_5_04_00_00/libraries/utilities/math_blocks/include/v4.3/pid_grando.h",line 116,column 2,is_stmt,isa 0
        MOVB      XAR0,#220             ; [CPU_ALU] |116| 
        MOV32     R3H,*+XAR4[AR0]       ; [CPU_FPU] |116| 
        MPYF32    R3H,R1H,R3H           ; [CPU_FPU] |116| 
        NOP       ; [CPU_ALU] 
        SUBF32    R3H,R3H,R0H           ; [CPU_FPU] |116| 
        MOVB      XAR0,#234             ; [CPU_ALU] |116| 
        MOV32     *+XAR4[AR0],R3H       ; [CPU_FPU] |116| 
	.dwpsn	file "D:/TI/c2000/C2000Ware_MotorControl_SDK_5_04_00_00/libraries/utilities/math_blocks/include/v4.3/pid_grando.h",line 119,column 2,is_stmt,isa 0
        MOVB      XAR0,#224             ; [CPU_ALU] |119| 
        MOV32     R4H,*+XAR4[AR0]       ; [CPU_FPU] |119| 
        MOVB      XAR0,#242             ; [CPU_ALU] |119| 

        MOV32     R5H,*+XAR4[AR0]       ; [CPU_FPU] |119| 
||      SUBF32    R1H,R1H,R0H           ; [CPU_FPU] |119| 

        MOVB      XAR0,#248             ; [CPU_ALU] |119| 
        MOV32     R0H,*+XAR4[AR0]       ; [CPU_FPU] |119| 
        MPYF32    R0H,R1H,R0H           ; [CPU_FPU] |119| 
        NOP       ; [CPU_ALU] 
        MPYF32    R0H,R0H,R4H           ; [CPU_FPU] |119| 
	.dwpsn	file "D:/TI/c2000/C2000Ware_MotorControl_SDK_5_04_00_00/libraries/utilities/math_blocks/include/v4.3/pid_grando.h",line 128,column 2,is_stmt,isa 0
        MOVB      XAR1,#240             ; [CPU_ALU] |128| 
	.dwpsn	file "D:/TI/c2000/C2000Ware_MotorControl_SDK_5_04_00_00/libraries/utilities/math_blocks/include/v4.3/pid_grando.h",line 119,column 2,is_stmt,isa 0
        ADDF32    R0H,R0H,R5H           ; [CPU_FPU] |119| 
        MOVB      XAR0,#236             ; [CPU_ALU] |119| 
        MOV32     *+XAR4[AR0],R0H       ; [CPU_FPU] |119| 
	.dwpsn	file "D:/TI/c2000/C2000Ware_MotorControl_SDK_5_04_00_00/libraries/utilities/math_blocks/include/v4.3/pid_grando.h",line 120,column 2,is_stmt,isa 0
        MOVB      XAR0,#242             ; [CPU_ALU] |120| 
        MOV32     *+XAR4[AR0],R0H       ; [CPU_FPU] |120| 
	.dwpsn	file "D:/TI/c2000/C2000Ware_MotorControl_SDK_5_04_00_00/libraries/utilities/math_blocks/include/v4.3/pid_grando.h",line 124,column 2,is_stmt,isa 0
        MOVB      XAR0,#238             ; [CPU_ALU] |124| 

        ADDF32    R0H,R0H,R3H           ; [CPU_FPU] |128| 
||      MOV32     *+XAR4[AR0],R2H       ; [CPU_FPU] |124| 

	.dwpsn	file "D:/TI/c2000/C2000Ware_MotorControl_SDK_5_04_00_00/libraries/utilities/math_blocks/include/v4.3/pid_grando.h",line 128,column 2,is_stmt,isa 0
        MOVB      XAR0,#222             ; [CPU_ALU] |128| 

        MOV32     R0H,*+XAR4[AR0]       ; [CPU_FPU] |128| 
||      ADDF32    R1H,R2H,R0H           ; [CPU_FPU] |128| 

	.dwpsn	file "D:/TI/c2000/C2000Ware_MotorControl_SDK_5_04_00_00/libraries/utilities/math_blocks/include/v4.3/pid_grando.h",line 131,column 5,is_stmt,isa 0
        MOVB      XAR0,#230             ; [CPU_ALU] |131| 
	.dwpsn	file "D:/TI/c2000/C2000Ware_MotorControl_SDK_5_04_00_00/libraries/utilities/math_blocks/include/v4.3/pid_grando.h",line 128,column 2,is_stmt,isa 0

        MPYF32    R1H,R1H,R0H           ; [CPU_FPU] |128| 
||      MOV32     R2H,*+XAR4[AR0]       ; [CPU_FPU] |131| 

	.dwpsn	file "D:/TI/c2000/C2000Ware_MotorControl_SDK_5_04_00_00/libraries/utilities/math_blocks/include/v4.3/pid_grando.h",line 131,column 5,is_stmt,isa 0
        MOVB      XAR0,#232             ; [CPU_ALU] |131| 
        MOV32     R0H,R1H               ; [CPU_FPU] |131| 
	.dwpsn	file "D:/TI/c2000/C2000Ware_MotorControl_SDK_5_04_00_00/libraries/utilities/math_blocks/include/v4.3/pid_grando.h",line 128,column 2,is_stmt,isa 0
        MOV32     *+XAR4[AR1],R1H       ; [CPU_FPU] |128| 
	.dwpsn	file "D:/TI/c2000/C2000Ware_MotorControl_SDK_5_04_00_00/libraries/utilities/math_blocks/include/v4.3/pid_grando.h",line 131,column 5,is_stmt,isa 0
        MINF32    R0H,R2H               ; [CPU_FPU] |131| 
        MOV32     R2H,*+XAR4[AR0]       ; [CPU_FPU] |131| 
        MOVB      XAR0,#214             ; [CPU_ALU] |131| 
        MAXF32    R0H,R2H               ; [CPU_FPU] |131| 
        MOV32     *+XAR4[AR0],R0H       ; [CPU_FPU] |131| 
	.dwpsn	file "D:/TI/c2000/C2000Ware_MotorControl_SDK_5_04_00_00/libraries/utilities/math_blocks/include/v4.3/pid_grando.h",line 140,column 2,is_stmt,isa 0
        CMPF32    R0H,R1H               ; [CPU_FPU] |140| 
        MOVST0    ZF, NF                ; [CPU_FPU] |140| 
        B         ||$C$L61||,NEQ        ; [CPU_ALU] |140| 
        ; branchcc occurs ; [] |140| 
        MOVIZ     R0H,#16256            ; [CPU_FPU] |140| 
        B         ||$C$L62||,UNC        ; [CPU_ALU] |140| 
        ; branch occurs ; [] |140| 
||$C$L61||:    
        ZERO      R0H                   ; [CPU_FPU] |140| 
||$C$L62||:    
	.dwpsn	file "../sources/dual_axis_servo_drive.c",line 1533,column 9,is_stmt,isa 0
        MOVL      XAR1,#313             ; [CPU_ALU] |1533| 
	.dwpsn	file "D:/TI/c2000/C2000Ware_MotorControl_SDK_5_04_00_00/libraries/utilities/math_blocks/include/v4.3/pid_grando.h",line 140,column 2,is_stmt,isa 0
        MOVB      XAR0,#248             ; [CPU_ALU] |140| 
	.dwpsn	file "../sources/dual_axis_servo_drive.c",line 1533,column 9,is_stmt,isa 0
        MOV       *+XAR4[AR1],#0        ; [CPU_ALU] |1533| 
	.dwpsn	file "D:/TI/c2000/C2000Ware_MotorControl_SDK_5_04_00_00/libraries/utilities/math_blocks/include/v4.3/pid_grando.h",line 140,column 2,is_stmt,isa 0
        MOV32     *+XAR4[AR0],R0H       ; [CPU_FPU] |140| 
||$C$L63||:    
	.dwpsn	file "../sources/dual_axis_servo_drive.c",line 1536,column 5,is_stmt,isa 0
        MOVL      XAR0,#280             ; [CPU_ALU] |1536| 
        MOVL      XAR5,*+XAR4[AR0]      ; [CPU_ALU] |1536| 
        MOV       AL,*+XAR5[0]          ; [CPU_ALU] |1536| 
        CMPB      AL,#2                 ; [CPU_ALU] |1536| 
        B         ||$C$L64||,NEQ        ; [CPU_ALU] |1536| 
        ; branchcc occurs ; [] |1536| 
        MOVL      XAR0,#326             ; [CPU_ALU] |1536| 
        MOV       AH,*+XAR4[AR0]        ; [CPU_ALU] |1536| 
        B         ||$C$L65||,NEQ        ; [CPU_ALU] |1536| 
        ; branchcc occurs ; [] |1536| 
||$C$L64||:    
        MOVL      XAR0,#280             ; [CPU_ALU] 
	.dwpsn	file "../sources/dual_axis_servo_drive.c",line 1539,column 9,is_stmt,isa 0
        ZERO      R0H                   ; [CPU_FPU] |1539| 
        MOVL      XAR5,*+XAR4[AR0]      ; [CPU_ALU] 
        MOVB      XAR0,#244             ; [CPU_ALU] |1539| 
        MOV32     *+XAR4[AR0],R0H       ; [CPU_FPU] |1539| 
	.dwpsn	file "../sources/dual_axis_servo_drive.c",line 1540,column 9,is_stmt,isa 0
        MOVB      XAR0,#246             ; [CPU_ALU] |1540| 
        MOV32     *+XAR4[AR0],R0H       ; [CPU_FPU] |1540| 
	.dwpsn	file "../sources/dual_axis_servo_drive.c",line 1541,column 9,is_stmt,isa 0
        MOVB      XAR0,#242             ; [CPU_ALU] |1541| 
        MOV32     *+XAR4[AR0],R0H       ; [CPU_FPU] |1541| 
	.dwpsn	file "../sources/dual_axis_servo_drive.c",line 1542,column 9,is_stmt,isa 0
        MOVB      XAR0,#238             ; [CPU_ALU] |1542| 
        MOV32     *+XAR4[AR0],R0H       ; [CPU_FPU] |1542| 
	.dwpsn	file "../sources/dual_axis_servo_drive.c",line 1544,column 9,is_stmt,isa 0
        MOVB      XAR0,#234             ; [CPU_ALU] |1544| 
        MOV32     *+XAR4[AR0],R0H       ; [CPU_FPU] |1544| 
	.dwpsn	file "../sources/dual_axis_servo_drive.c",line 1543,column 9,is_stmt,isa 0
        MOVB      XAR0,#236             ; [CPU_ALU] |1543| 
        MOV32     *+XAR4[AR0],R0H       ; [CPU_FPU] |1543| 
        MOV       AL,*+XAR5[0]          ; [CPU_ALU] 
||$C$L65||:    
	.dwpsn	file "../sources/dual_axis_servo_drive.c",line 1565,column 5,is_stmt,isa 0
        CMPB      AL,#0                 ; [CPU_ALU] |1565| 
        B         ||$C$L67||,EQ         ; [CPU_ALU] |1565| 
        ; branchcc occurs ; [] |1565| 
        CMPB      AL,#1                 ; [CPU_ALU] |1565| 
        B         ||$C$L66||,NEQ        ; [CPU_ALU] |1565| 
        ; branchcc occurs ; [] |1565| 
        MOVW      DP,#||motorVars||+26  ; [CPU_ARAU] 
        MOV32     R0H,@||motorVars||+26 ; [CPU_FPU] |1565| 
        B         ||$C$L68||,UNC        ; [CPU_ALU] |1565| 
        ; branch occurs ; [] |1565| 
||$C$L66||:    
        MOVW      DP,#||motorVars||+214 ; [CPU_ARAU] 
        MOV32     R0H,@||motorVars||+214 ; [CPU_FPU] |1565| 
        B         ||$C$L68||,UNC        ; [CPU_ALU] |1565| 
        ; branch occurs ; [] |1565| 
||$C$L67||:    
        ZERO      R0H                   ; [CPU_FPU] |1565| 
||$C$L68||:    
        MOVB      XAR0,#32              ; [CPU_ALU] |1565| 
	.dwpsn	file "../sources/dual_axis_servo_drive.c",line 1571,column 5,is_stmt,isa 0
        MOVL      XAR1,#||motorVars||   ; [CPU_ARAU] |1571| 
	.dwpsn	file "../sources/dual_axis_servo_drive.c",line 1565,column 5,is_stmt,isa 0
        MOV32     *+XAR5[AR0],R0H       ; [CPU_FPU] |1565| 
	.dwpsn	file "../sources/dual_axis_servo_drive.c",line 1571,column 5,is_stmt,isa 0
        MOVIZ     R2H,#14119            ; [CPU_FPU] |1571| 
        MOVB      XAR0,#24              ; [CPU_ALU] |1571| 
        MOV32     R0H,*+XAR1[AR0]       ; [CPU_FPU] |1571| 
        MOVXI     R2H,#50604            ; [CPU_FPU] |1571| 
        MOVB      XAR0,#18              ; [CPU_ALU] |1571| 
        MOV32     R1H,*+XAR1[AR0]       ; [CPU_FPU] |1571| 
$C$DW$145	.dwtag  DW_TAG_TI_branch
	.dwattr $C$DW$145, DW_AT_low_pc(0x00)
	.dwattr $C$DW$145, DW_AT_name("ramper")
	.dwattr $C$DW$145, DW_AT_TI_call

        LCR       #||ramper||           ; [CPU_ALU] |1571| 
        ; call occurs [#||ramper||] ; [] |1571| 
        MOVW      DP,#||dlogCh3||       ; [CPU_ARAU] 
	.dwpsn	file "../sources/dual_axis_servo_drive.c",line 2229,column 5,is_stmt,isa 0
        MOVL      XAR0,#388             ; [CPU_ALU] |2229| 
        MOVL      XAR6,*+XAR1[AR0]      ; [CPU_ALU] |2229| 
	.dwpsn	file "../sources/dual_axis_servo_drive.c",line 2230,column 5,is_stmt,isa 0
        MOVL      XAR0,#482             ; [CPU_ALU] |2230| 
        MOVL      ACC,*+XAR1[AR0]       ; [CPU_ALU] |2230| 
	.dwpsn	file "../sources/dual_axis_servo_drive.c",line 1571,column 5,is_stmt,isa 0
        MOVB      XAR0,#18              ; [CPU_ALU] |1571| 
        MOV32     *+XAR1[AR0],R0H       ; [CPU_FPU] |1571| 
	.dwpsn	file "../sources/dual_axis_servo_drive.c",line 1573,column 5,is_stmt,isa 0
        MOVB      XAR0,#18              ; [CPU_ALU] |1573| 
	.dwpsn	file "../sources/dual_axis_servo_drive.c",line 2229,column 5,is_stmt,isa 0
        MOVL      @||dlogCh3||,XAR6     ; [CPU_ALU] |2229| 
	.dwpsn	file "../sources/dual_axis_servo_drive.c",line 1573,column 5,is_stmt,isa 0
        MOVL      XAR4,*+XAR1[AR0]      ; [CPU_ALU] |1573| 
	.dwpsn	file "../sources/dual_axis_servo_drive.c",line 2227,column 5,is_stmt,isa 0
        MOVB      XAR0,#56              ; [CPU_ALU] |2227| 
        MOVL      P,*+XAR1[AR0]         ; [CPU_ALU] |2227| 
	.dwpsn	file "../sources/dual_axis_servo_drive.c",line 2228,column 5,is_stmt,isa 0
        MOVB      XAR0,#150             ; [CPU_ALU] |2228| 
        MOVL      XAR7,*+XAR1[AR0]      ; [CPU_ALU] |2228| 
	.dwpsn	file "../sources/dual_axis_servo_drive.c",line 2230,column 5,is_stmt,isa 0
        MOVL      @||dlogCh4||,ACC      ; [CPU_ALU] |2230| 
	.dwpsn	file "../sources/dual_axis_servo_drive.c",line 1573,column 5,is_stmt,isa 0
        MOVB      XAR0,#164             ; [CPU_ALU] |1573| 
	.dwpsn	file "../sources/dual_axis_servo_drive.c",line 2227,column 5,is_stmt,isa 0
        MOVL      @||dlogCh1||,P        ; [CPU_ALU] |2227| 
	.dwpsn	file "../sources/dual_axis_servo_drive.c",line 2228,column 5,is_stmt,isa 0
        MOVL      @||dlogCh2||,XAR7     ; [CPU_ALU] |2228| 
	.dwpsn	file "../sources/dual_axis_servo_drive.c",line 1573,column 5,is_stmt,isa 0
        MOVL      *+XAR1[AR0],XAR4      ; [CPU_ALU] |1573| 
	.dwpsn	file "../sources/dual_axis_servo_drive.c",line 2290,column 5,is_stmt,isa 0
        MOVL      XAR4,#||dlog_4ch1||   ; [CPU_ARAU] |2290| 
$C$DW$146	.dwtag  DW_TAG_TI_branch
	.dwattr $C$DW$146, DW_AT_low_pc(0x00)
	.dwattr $C$DW$146, DW_AT_name("DLOG_4CH_F_FUNC")
	.dwattr $C$DW$146, DW_AT_TI_call

        LCR       #||DLOG_4CH_F_FUNC||  ; [CPU_ALU] |2290| 
        ; call occurs [#||DLOG_4CH_F_FUNC||] ; [] |2290| 
        MOVW      DP,#||halMtrHandle||  ; [CPU_ARAU] 
	.dwpsn	file "D:/TI/c2000/C2000Ware_MotorControl_SDK_5_04_00_00/c2000ware/driverlib/f2837xd/driverlib/epwm.h",line 4872,column 5,is_stmt,isa 0
        MOVL      XAR4,@||halMtrHandle|| ; [CPU_ALU] |4872| 
        MOVB      ACC,#170              ; [CPU_ALU] |4872| 
        ADDL      ACC,*+XAR4[0]         ; [CPU_ALU] |4872| 
        MOVL      XAR4,ACC              ; [CPU_ALU] |4872| 
	.dwpsn	file "D:/TI/c2000/C2000Ware_MotorControl_SDK_5_04_00_00/c2000ware/driverlib/f2837xd/driverlib/adc.h",line 819,column 5,is_stmt,isa 0
        MOVB      XAR6,#1               ; [CPU_ALU] |819| 
	.dwpsn	file "D:\TI\c2000\C2000Ware_MotorControl_SDK_5_04_00_00\c2000ware\driverlib\f2837xd\driverlib\interrupt.h",line 379,column 5,is_stmt,isa 0
        MOVL      XAR7,#1028            ; [CPU_ALU] |379| 
	.dwpsn	file "../sources/dual_axis_servo_drive.c",line 2295,column 5,is_stmt,isa 0
        MOVL      ACC,XAR1              ; [CPU_ALU] |2295| 
	.dwpsn	file "D:/TI/c2000/C2000Ware_MotorControl_SDK_5_04_00_00/c2000ware/driverlib/f2837xd/driverlib/epwm.h",line 4872,column 5,is_stmt,isa 0
        OR        *+XAR4[0],#0x0001     ; [CPU_ALU] |4872| 
	.dwpsn	file "../sources/dual_axis_servo_drive.c",line 2295,column 5,is_stmt,isa 0
        ADD       ACC,#153 << 1         ; [CPU_ALU] |2295| 
        MOVL      XAR1,ACC              ; [CPU_ALU] |2295| 
	.dwpsn	file "D:/TI/c2000/C2000Ware_MotorControl_SDK_5_04_00_00/c2000ware/driverlib/f2837xd/driverlib/adc.h",line 819,column 5,is_stmt,isa 0
        MOV       *(0:0x7404),AR6       ; [CPU_ALU] |819| 
	.dwpsn	file "D:\TI\c2000\C2000Ware_MotorControl_SDK_5_04_00_00\c2000ware\driverlib\f2837xd\driverlib\interrupt.h",line 379,column 5,is_stmt,isa 0
        MOV       *(0:0x0ce1),AR7       ; [CPU_ALU] |379| 
	.dwpsn	file "../sources/dual_axis_servo_drive.c",line 2295,column 5,is_stmt,isa 0
        MOVB      ACC,#1                ; [CPU_ALU] |2295| 
        ADDL      *+XAR1[0],ACC         ; [CPU_ALU] |2295| 
        SUBB      SP,#2                 ; [CPU_ARAU] 
	.dwcfi	cfa_offset, -32
        MOV32     R5H,*--SP             ; [CPU_FPU] 
	.dwcfi	cfa_offset, -30
	.dwcfi	restore_reg, 63
        MOV32     R4H,*--SP             ; [CPU_FPU] 
	.dwcfi	cfa_offset, -28
	.dwcfi	restore_reg, 59
        MOV32     R3H,*--SP             ; [CPU_FPU] 
	.dwcfi	cfa_offset, -26
	.dwcfi	restore_reg, 55
        MOV32     R2H,*--SP             ; [CPU_FPU] 
	.dwcfi	cfa_offset, -24
	.dwcfi	restore_reg, 51
        MOV32     R1H,*--SP             ; [CPU_FPU] 
	.dwcfi	cfa_offset, -22
	.dwcfi	restore_reg, 47
        MOV32     R0H,*--SP             ; [CPU_FPU] 
	.dwcfi	cfa_offset, -20
	.dwcfi	restore_reg, 43
        MOV32     STF,*--SP             ; [CPU_FPU] 
	.dwcfi	cfa_offset, -18
	.dwcfi	restore_reg, 40
        MOVL      XAR7,*--SP            ; [CPU_ALU] 
	.dwcfi	cfa_offset, -16
	.dwcfi	restore_reg, 18
        MOVL      XAR6,*--SP            ; [CPU_ALU] 
	.dwcfi	cfa_offset, -14
	.dwcfi	restore_reg, 16
        MOVL      XAR5,*--SP            ; [CPU_ALU] 
	.dwcfi	cfa_offset, -12
	.dwcfi	restore_reg, 14
        MOVL      XAR4,*--SP            ; [CPU_ALU] 
	.dwcfi	cfa_offset, -10
	.dwcfi	restore_reg, 12
        MOVL      XAR2,*--SP            ; [CPU_ALU] 
	.dwcfi	cfa_offset, -8
	.dwcfi	restore_reg, 8
        MOVL      XT,*--SP              ; [CPU_ALU] 
	.dwcfi	cfa_offset, -6
	.dwcfi	restore_reg, 22
	.dwcfi	restore_reg, 21
        POP       AR1H:AR0H             ; [CPU_ALU] 
	.dwcfi	cfa_offset, -4
	.dwcfi	restore_reg, 5
	.dwcfi	restore_reg, 7
        SETC      INTM, DBGM            ; [CPU_ALU] 
        POP       RB                    ; [CPU_FPU] 
	.dwcfi	cfa_offset, -2
	.dwcfi	restore_reg, 74
        NASP      ; [CPU_ALU] 
$C$DW$147	.dwtag  DW_TAG_TI_branch
	.dwattr $C$DW$147, DW_AT_low_pc(0x00)
	.dwattr $C$DW$147, DW_AT_TI_return

        IRET      ; [CPU_ALU] 
        ; return occurs ; [] 
	.dwattr $C$DW$139, DW_AT_TI_end_file("../sources/dual_axis_servo_drive.c")
	.dwattr $C$DW$139, DW_AT_TI_end_line(0x8f9)
	.dwattr $C$DW$139, DW_AT_TI_end_column(0x01)
	.dwendentry
	.dwendtag $C$DW$139

	.sect	".text:C3"
	.clink
	.global	||C3||

$C$DW$148	.dwtag  DW_TAG_subprogram
	.dwattr $C$DW$148, DW_AT_name("C3")
	.dwattr $C$DW$148, DW_AT_low_pc(||C3||)
	.dwattr $C$DW$148, DW_AT_high_pc(0x00)
	.dwattr $C$DW$148, DW_AT_linkage_name("C3")
	.dwattr $C$DW$148, DW_AT_external
	.dwattr $C$DW$148, DW_AT_decl_file("../sources/dual_axis_servo_drive.c")
	.dwattr $C$DW$148, DW_AT_decl_line(0x289)
	.dwattr $C$DW$148, DW_AT_decl_column(0x06)
	.dwattr $C$DW$148, DW_AT_TI_max_frame_size(-2)
	.dwpsn	file "../sources/dual_axis_servo_drive.c",line 651,column 1,is_stmt,address ||C3||,isa 0

	.dwfde $C$DW$CIE, ||C3||

;***************************************************************
;* FNAME: C3                            FR SIZE:   0           *
;*                                                             *
;* FUNCTION ENVIRONMENT                                        *
;*                                                             *
;* FUNCTION PROPERTIES                                         *
;*                            0 Parameter,  0 Auto,  0 SOE     *
;***************************************************************

||C3||:
	.dwcfi	cfa_offset, -2
	.dwcfi	save_reg_to_mem, 26, 0
	.dwpsn	file "../sources/dual_axis_servo_drive.c",line 655,column 5,is_stmt,isa 0
        MOVL      XAR4,#||C1||          ; [CPU_ARAU] |655| 
        MOVW      DP,#||C_Task_Ptr||    ; [CPU_ARAU] 
        MOVL      @||C_Task_Ptr||,XAR4  ; [CPU_ALU] |655| 
$C$DW$149	.dwtag  DW_TAG_TI_branch
	.dwattr $C$DW$149, DW_AT_low_pc(0x00)
	.dwattr $C$DW$149, DW_AT_TI_return

        LRETR     ; [CPU_ALU] 
        ; return occurs ; [] 
	.dwattr $C$DW$148, DW_AT_TI_end_file("../sources/dual_axis_servo_drive.c")
	.dwattr $C$DW$148, DW_AT_TI_end_line(0x291)
	.dwattr $C$DW$148, DW_AT_TI_end_column(0x01)
	.dwendentry
	.dwendtag $C$DW$148

	.sect	".text:C2"
	.clink
	.global	||C2||

$C$DW$150	.dwtag  DW_TAG_subprogram
	.dwattr $C$DW$150, DW_AT_name("C2")
	.dwattr $C$DW$150, DW_AT_low_pc(||C2||)
	.dwattr $C$DW$150, DW_AT_high_pc(0x00)
	.dwattr $C$DW$150, DW_AT_linkage_name("C2")
	.dwattr $C$DW$150, DW_AT_external
	.dwattr $C$DW$150, DW_AT_decl_file("../sources/dual_axis_servo_drive.c")
	.dwattr $C$DW$150, DW_AT_decl_line(0x27e)
	.dwattr $C$DW$150, DW_AT_decl_column(0x06)
	.dwattr $C$DW$150, DW_AT_TI_max_frame_size(-2)
	.dwpsn	file "../sources/dual_axis_servo_drive.c",line 640,column 1,is_stmt,address ||C2||,isa 0

	.dwfde $C$DW$CIE, ||C2||

;***************************************************************
;* FNAME: C2                            FR SIZE:   0           *
;*                                                             *
;* FUNCTION ENVIRONMENT                                        *
;*                                                             *
;* FUNCTION PROPERTIES                                         *
;*                            0 Parameter,  0 Auto,  0 SOE     *
;***************************************************************

||C2||:
	.dwcfi	cfa_offset, -2
	.dwcfi	save_reg_to_mem, 26, 0
	.dwpsn	file "../sources/dual_axis_servo_drive.c",line 644,column 5,is_stmt,isa 0
        MOVL      XAR4,#||C3||          ; [CPU_ARAU] |644| 
        MOVW      DP,#||C_Task_Ptr||    ; [CPU_ARAU] 
        MOVL      @||C_Task_Ptr||,XAR4  ; [CPU_ALU] |644| 
$C$DW$151	.dwtag  DW_TAG_TI_branch
	.dwattr $C$DW$151, DW_AT_low_pc(0x00)
	.dwattr $C$DW$151, DW_AT_TI_return

        LRETR     ; [CPU_ALU] 
        ; return occurs ; [] 
	.dwattr $C$DW$150, DW_AT_TI_end_file("../sources/dual_axis_servo_drive.c")
	.dwattr $C$DW$150, DW_AT_TI_end_line(0x286)
	.dwattr $C$DW$150, DW_AT_TI_end_column(0x01)
	.dwendentry
	.dwendtag $C$DW$150

	.sect	".text:B3"
	.clink
	.global	||B3||

$C$DW$152	.dwtag  DW_TAG_subprogram
	.dwattr $C$DW$152, DW_AT_name("B3")
	.dwattr $C$DW$152, DW_AT_low_pc(||B3||)
	.dwattr $C$DW$152, DW_AT_high_pc(0x00)
	.dwattr $C$DW$152, DW_AT_linkage_name("B3")
	.dwattr $C$DW$152, DW_AT_external
	.dwattr $C$DW$152, DW_AT_decl_file("../sources/dual_axis_servo_drive.c")
	.dwattr $C$DW$152, DW_AT_decl_line(0x258)
	.dwattr $C$DW$152, DW_AT_decl_column(0x06)
	.dwattr $C$DW$152, DW_AT_TI_max_frame_size(-2)
	.dwpsn	file "../sources/dual_axis_servo_drive.c",line 602,column 1,is_stmt,address ||B3||,isa 0

	.dwfde $C$DW$CIE, ||B3||

;***************************************************************
;* FNAME: B3                            FR SIZE:   0           *
;*                                                             *
;* FUNCTION ENVIRONMENT                                        *
;*                                                             *
;* FUNCTION PROPERTIES                                         *
;*                            0 Parameter,  0 Auto,  0 SOE     *
;***************************************************************

||B3||:
	.dwcfi	cfa_offset, -2
	.dwcfi	save_reg_to_mem, 26, 0
	.dwpsn	file "../sources/dual_axis_servo_drive.c",line 606,column 5,is_stmt,isa 0
        MOVL      XAR4,#||B1||          ; [CPU_ARAU] |606| 
        MOVW      DP,#||B_Task_Ptr||    ; [CPU_ARAU] 
        MOVL      @||B_Task_Ptr||,XAR4  ; [CPU_ALU] |606| 
$C$DW$153	.dwtag  DW_TAG_TI_branch
	.dwattr $C$DW$153, DW_AT_low_pc(0x00)
	.dwattr $C$DW$153, DW_AT_TI_return

        LRETR     ; [CPU_ALU] 
        ; return occurs ; [] 
	.dwattr $C$DW$152, DW_AT_TI_end_file("../sources/dual_axis_servo_drive.c")
	.dwattr $C$DW$152, DW_AT_TI_end_line(0x260)
	.dwattr $C$DW$152, DW_AT_TI_end_column(0x01)
	.dwendentry
	.dwendtag $C$DW$152

	.sect	".text:B2"
	.clink
	.global	||B2||

$C$DW$154	.dwtag  DW_TAG_subprogram
	.dwattr $C$DW$154, DW_AT_name("B2")
	.dwattr $C$DW$154, DW_AT_low_pc(||B2||)
	.dwattr $C$DW$154, DW_AT_high_pc(0x00)
	.dwattr $C$DW$154, DW_AT_linkage_name("B2")
	.dwattr $C$DW$154, DW_AT_external
	.dwattr $C$DW$154, DW_AT_decl_file("../sources/dual_axis_servo_drive.c")
	.dwattr $C$DW$154, DW_AT_decl_line(0x24d)
	.dwattr $C$DW$154, DW_AT_decl_column(0x06)
	.dwattr $C$DW$154, DW_AT_TI_max_frame_size(-2)
	.dwpsn	file "../sources/dual_axis_servo_drive.c",line 591,column 1,is_stmt,address ||B2||,isa 0

	.dwfde $C$DW$CIE, ||B2||

;***************************************************************
;* FNAME: B2                            FR SIZE:   0           *
;*                                                             *
;* FUNCTION ENVIRONMENT                                        *
;*                                                             *
;* FUNCTION PROPERTIES                                         *
;*                            0 Parameter,  0 Auto,  0 SOE     *
;***************************************************************

||B2||:
	.dwcfi	cfa_offset, -2
	.dwcfi	save_reg_to_mem, 26, 0
	.dwpsn	file "../sources/dual_axis_servo_drive.c",line 595,column 5,is_stmt,isa 0
        MOVL      XAR4,#||B3||          ; [CPU_ARAU] |595| 
        MOVW      DP,#||B_Task_Ptr||    ; [CPU_ARAU] 
        MOVL      @||B_Task_Ptr||,XAR4  ; [CPU_ALU] |595| 
$C$DW$155	.dwtag  DW_TAG_TI_branch
	.dwattr $C$DW$155, DW_AT_low_pc(0x00)
	.dwattr $C$DW$155, DW_AT_TI_return

        LRETR     ; [CPU_ALU] 
        ; return occurs ; [] 
	.dwattr $C$DW$154, DW_AT_TI_end_file("../sources/dual_axis_servo_drive.c")
	.dwattr $C$DW$154, DW_AT_TI_end_line(0x255)
	.dwattr $C$DW$154, DW_AT_TI_end_column(0x01)
	.dwendentry
	.dwendtag $C$DW$154

	.sect	".text:A3"
	.clink
	.global	||A3||

$C$DW$156	.dwtag  DW_TAG_subprogram
	.dwattr $C$DW$156, DW_AT_name("A3")
	.dwattr $C$DW$156, DW_AT_low_pc(||A3||)
	.dwattr $C$DW$156, DW_AT_high_pc(0x00)
	.dwattr $C$DW$156, DW_AT_linkage_name("A3")
	.dwattr $C$DW$156, DW_AT_external
	.dwattr $C$DW$156, DW_AT_decl_file("../sources/dual_axis_servo_drive.c")
	.dwattr $C$DW$156, DW_AT_decl_line(0x220)
	.dwattr $C$DW$156, DW_AT_decl_column(0x06)
	.dwattr $C$DW$156, DW_AT_TI_max_frame_size(-2)
	.dwpsn	file "../sources/dual_axis_servo_drive.c",line 546,column 1,is_stmt,address ||A3||,isa 0

	.dwfde $C$DW$CIE, ||A3||

;***************************************************************
;* FNAME: A3                            FR SIZE:   0           *
;*                                                             *
;* FUNCTION ENVIRONMENT                                        *
;*                                                             *
;* FUNCTION PROPERTIES                                         *
;*                            0 Parameter,  0 Auto,  0 SOE     *
;***************************************************************

||A3||:
	.dwcfi	cfa_offset, -2
	.dwcfi	save_reg_to_mem, 26, 0
        MOVW      DP,#||led1Cnt||       ; [CPU_ARAU] 
	.dwpsn	file "../sources/dual_axis_servo_drive.c",line 547,column 5,is_stmt,isa 0
        INC       @||led1Cnt||          ; [CPU_ALU] |547| 
        CMP       @||led1Cnt||,#800     ; [CPU_ALU] |547| 
        B         ||$C$L69||,LO         ; [CPU_ALU] |547| 
        ; branchcc occurs ; [] |547| 
	.dwpsn	file "D:/TI/c2000/C2000Ware_MotorControl_SDK_5_04_00_00/c2000ware/driverlib/f2837xd/driverlib/gpio.h",line 505,column 5,is_stmt,isa 0
        MOVB      ACC,#4                ; [CPU_ALU] |505| 
	.dwpsn	file "../sources/dual_axis_servo_drive.c",line 551,column 9,is_stmt,isa 0
        MOV       @||led1Cnt||,#0       ; [CPU_ALU] |551| 
	.dwpsn	file "D:/TI/c2000/C2000Ware_MotorControl_SDK_5_04_00_00/c2000ware/driverlib/f2837xd/driverlib/gpio.h",line 505,column 5,is_stmt,isa 0
        MOV32     *(0:0x7f0e),ACC       ; [CPU_FPU] |505| 
||$C$L69||:    
	.dwpsn	file "../sources/dual_axis_servo_drive.c",line 559,column 5,is_stmt,isa 0
        MOVL      XAR4,#||A1||          ; [CPU_ARAU] |559| 
        MOVW      DP,#||A_Task_Ptr||    ; [CPU_ARAU] 
        MOVL      @||A_Task_Ptr||,XAR4  ; [CPU_ALU] |559| 
$C$DW$157	.dwtag  DW_TAG_TI_branch
	.dwattr $C$DW$157, DW_AT_low_pc(0x00)
	.dwattr $C$DW$157, DW_AT_TI_return

        LRETR     ; [CPU_ALU] 
        ; return occurs ; [] 
	.dwattr $C$DW$156, DW_AT_TI_end_file("../sources/dual_axis_servo_drive.c")
	.dwattr $C$DW$156, DW_AT_TI_end_line(0x231)
	.dwattr $C$DW$156, DW_AT_TI_end_column(0x01)
	.dwendentry
	.dwendtag $C$DW$156

	.sect	".text:A2"
	.clink
	.global	||A2||

$C$DW$158	.dwtag  DW_TAG_subprogram
	.dwattr $C$DW$158, DW_AT_name("A2")
	.dwattr $C$DW$158, DW_AT_low_pc(||A2||)
	.dwattr $C$DW$158, DW_AT_high_pc(0x00)
	.dwattr $C$DW$158, DW_AT_linkage_name("A2")
	.dwattr $C$DW$158, DW_AT_external
	.dwattr $C$DW$158, DW_AT_decl_file("../sources/dual_axis_servo_drive.c")
	.dwattr $C$DW$158, DW_AT_decl_line(0x213)
	.dwattr $C$DW$158, DW_AT_decl_column(0x06)
	.dwattr $C$DW$158, DW_AT_TI_max_frame_size(-2)
	.dwpsn	file "../sources/dual_axis_servo_drive.c",line 533,column 1,is_stmt,address ||A2||,isa 0

	.dwfde $C$DW$CIE, ||A2||

;***************************************************************
;* FNAME: A2                            FR SIZE:   0           *
;*                                                             *
;* FUNCTION ENVIRONMENT                                        *
;*                                                             *
;* FUNCTION PROPERTIES                                         *
;*                            0 Parameter,  0 Auto,  0 SOE     *
;***************************************************************

||A2||:
	.dwcfi	cfa_offset, -2
	.dwcfi	save_reg_to_mem, 26, 0
        MOVW      DP,#||halMtrHandle||+2 ; [CPU_ARAU] 
	.dwpsn	file "../sources/dual_axis_servo_drive.c",line 535,column 5,is_stmt,isa 0
        MOVL      XAR4,#||motorVars||+332 ; [CPU_ARAU] |535| 
        MOVL      XAR5,@||halMtrHandle||+2 ; [CPU_ALU] |535| 
$C$DW$159	.dwtag  DW_TAG_TI_branch
	.dwattr $C$DW$159, DW_AT_low_pc(0x00)
	.dwattr $C$DW$159, DW_AT_name("runMotorControl")
	.dwattr $C$DW$159, DW_AT_TI_call

        LCR       #||runMotorControl||  ; [CPU_ALU] |535| 
        ; call occurs [#||runMotorControl||] ; [] |535| 
        MOVW      DP,#||A_Task_Ptr||    ; [CPU_ARAU] 
	.dwpsn	file "../sources/dual_axis_servo_drive.c",line 539,column 5,is_stmt,isa 0
        MOVL      XAR4,#||A3||          ; [CPU_ARAU] |539| 
        MOVL      @||A_Task_Ptr||,XAR4  ; [CPU_ALU] |539| 
$C$DW$160	.dwtag  DW_TAG_TI_branch
	.dwattr $C$DW$160, DW_AT_low_pc(0x00)
	.dwattr $C$DW$160, DW_AT_TI_return

        LRETR     ; [CPU_ALU] 
        ; return occurs ; [] 
	.dwattr $C$DW$158, DW_AT_TI_end_file("../sources/dual_axis_servo_drive.c")
	.dwattr $C$DW$158, DW_AT_TI_end_line(0x21d)
	.dwattr $C$DW$158, DW_AT_TI_end_column(0x01)
	.dwendentry
	.dwendtag $C$DW$158

	.sect	".text:C1"
	.clink
	.global	||C1||

$C$DW$161	.dwtag  DW_TAG_subprogram
	.dwattr $C$DW$161, DW_AT_name("C1")
	.dwattr $C$DW$161, DW_AT_low_pc(||C1||)
	.dwattr $C$DW$161, DW_AT_high_pc(0x00)
	.dwattr $C$DW$161, DW_AT_linkage_name("C1")
	.dwattr $C$DW$161, DW_AT_external
	.dwattr $C$DW$161, DW_AT_decl_file("../sources/dual_axis_servo_drive.c")
	.dwattr $C$DW$161, DW_AT_decl_line(0x269)
	.dwattr $C$DW$161, DW_AT_decl_column(0x06)
	.dwattr $C$DW$161, DW_AT_TI_max_frame_size(-2)
	.dwpsn	file "../sources/dual_axis_servo_drive.c",line 619,column 1,is_stmt,address ||C1||,isa 0

	.dwfde $C$DW$CIE, ||C1||

;***************************************************************
;* FNAME: C1                            FR SIZE:   0           *
;*                                                             *
;* FUNCTION ENVIRONMENT                                        *
;*                                                             *
;* FUNCTION PROPERTIES                                         *
;*                            0 Parameter,  0 Auto,  0 SOE     *
;***************************************************************

||C1||:
	.dwcfi	cfa_offset, -2
	.dwcfi	save_reg_to_mem, 26, 0
        MOVW      DP,#||led2Cnt||       ; [CPU_ARAU] 
	.dwpsn	file "../sources/dual_axis_servo_drive.c",line 620,column 5,is_stmt,isa 0
        INC       @||led2Cnt||          ; [CPU_ALU] |620| 
        CMP       @||led2Cnt||,#400     ; [CPU_ALU] |620| 
        B         ||$C$L70||,LO         ; [CPU_ALU] |620| 
        ; branchcc occurs ; [] |620| 
	.dwpsn	file "D:/TI/c2000/C2000Ware_MotorControl_SDK_5_04_00_00/c2000ware/driverlib/f2837xd/driverlib/gpio.h",line 505,column 5,is_stmt,isa 0
        MOVB      AL,#0                 ; [CPU_ALU] |505| 
        MOV       AH,#32768             ; [CPU_ALU] |505| 
	.dwpsn	file "../sources/dual_axis_servo_drive.c",line 624,column 9,is_stmt,isa 0
        MOV       @||led2Cnt||,#0       ; [CPU_ALU] |624| 
	.dwpsn	file "D:/TI/c2000/C2000Ware_MotorControl_SDK_5_04_00_00/c2000ware/driverlib/f2837xd/driverlib/gpio.h",line 505,column 5,is_stmt,isa 0
        MOV32     *(0:0x7f06),ACC       ; [CPU_FPU] |505| 
||$C$L70||:    
	.dwpsn	file "../sources/dual_axis_servo_drive.c",line 631,column 5,is_stmt,isa 0
        MOVL      XAR4,#||C2||          ; [CPU_ARAU] |631| 
        MOVW      DP,#||C_Task_Ptr||    ; [CPU_ARAU] 
        MOVL      @||C_Task_Ptr||,XAR4  ; [CPU_ALU] |631| 
$C$DW$162	.dwtag  DW_TAG_TI_branch
	.dwattr $C$DW$162, DW_AT_low_pc(0x00)
	.dwattr $C$DW$162, DW_AT_TI_return

        LRETR     ; [CPU_ALU] 
        ; return occurs ; [] 
	.dwattr $C$DW$161, DW_AT_TI_end_file("../sources/dual_axis_servo_drive.c")
	.dwattr $C$DW$161, DW_AT_TI_end_line(0x27b)
	.dwattr $C$DW$161, DW_AT_TI_end_column(0x01)
	.dwendentry
	.dwendtag $C$DW$161

	.sect	".text:B1"
	.clink
	.global	||B1||

$C$DW$163	.dwtag  DW_TAG_subprogram
	.dwattr $C$DW$163, DW_AT_name("B1")
	.dwattr $C$DW$163, DW_AT_low_pc(||B1||)
	.dwattr $C$DW$163, DW_AT_high_pc(0x00)
	.dwattr $C$DW$163, DW_AT_linkage_name("B1")
	.dwattr $C$DW$163, DW_AT_external
	.dwattr $C$DW$163, DW_AT_decl_file("../sources/dual_axis_servo_drive.c")
	.dwattr $C$DW$163, DW_AT_decl_line(0x23a)
	.dwattr $C$DW$163, DW_AT_decl_column(0x06)
	.dwattr $C$DW$163, DW_AT_TI_max_frame_size(-2)
	.dwpsn	file "../sources/dual_axis_servo_drive.c",line 572,column 1,is_stmt,address ||B1||,isa 0

	.dwfde $C$DW$CIE, ||B1||

;***************************************************************
;* FNAME: B1                            FR SIZE:   0           *
;*                                                             *
;* FUNCTION ENVIRONMENT                                        *
;*                                                             *
;* FUNCTION PROPERTIES                                         *
;*                            0 Parameter,  0 Auto,  0 SOE     *
;***************************************************************

||B1||:
	.dwcfi	cfa_offset, -2
	.dwcfi	save_reg_to_mem, 26, 0
