TMS320C2000 Assembler PC v22.6.2 Sat Dec 27 15:00:18 2025

Copyright (c) 1996-2018 Texas Instruments Incorporated
dual_axis_servo_drive_user.asm                                       PAGE    1

       1              ;***************************************************************
       2              ;* TMS320C2000 G3 C/C++ Codegen                               PC v22.6.2.LTS *
       3              ;* Date/Time created: Sat Dec 27 15:00:17 2025                 *
       4              ;***************************************************************
       5                      .compiler_opts --abi=eabi --cla_support=cla1 --diag_wrap=off --float_support=fpu32 --hll_source=on --
       6                      .asg    XAR2, FP
       7              
       8              $C$DW$CU        .dwtag  DW_TAG_compile_unit
       9                      .dwattr $C$DW$CU, DW_AT_name("../sources/dual_axis_servo_drive_user.c")
      10                      .dwattr $C$DW$CU, DW_AT_producer("TI TMS320C2000 G3 C/C++ Codegen PC v22.6.2.LTS Copyright (c) 1996-2
      11                      .dwattr $C$DW$CU, DW_AT_TI_version(0x01)
      12                      .dwattr $C$DW$CU, DW_AT_comp_dir("C:\Users\JUNLI\workspace_ccstheia\dual_axis_servo_drive_fcl_qep_f28
      13              
      14              $C$DW$1 .dwtag  DW_TAG_subprogram
      15                      .dwattr $C$DW$1, DW_AT_name("FCL_initADC_3I")
      16                      .dwattr $C$DW$1, DW_AT_linkage_name("FCL_initADC_3I")
      17                      .dwattr $C$DW$1, DW_AT_declaration
      18                      .dwattr $C$DW$1, DW_AT_external
      19                      .dwattr $C$DW$1, DW_AT_decl_file("D:/TI/c2000/C2000Ware_MotorControl_SDK_5_04_00_00/libraries/fcl/inc
      20                      .dwattr $C$DW$1, DW_AT_decl_line(0x1b3)
      21                      .dwattr $C$DW$1, DW_AT_decl_column(0x0d)
      22              $C$DW$2 .dwtag  DW_TAG_formal_parameter
      23                      .dwattr $C$DW$2, DW_AT_type(*$C$DW$T$116)
      24              
      25              $C$DW$3 .dwtag  DW_TAG_formal_parameter
      26                      .dwattr $C$DW$3, DW_AT_type(*$C$DW$T$21)
      27              
      28              $C$DW$4 .dwtag  DW_TAG_formal_parameter
      29                      .dwattr $C$DW$4, DW_AT_type(*$C$DW$T$21)
      30              
      31              $C$DW$5 .dwtag  DW_TAG_formal_parameter
      32                      .dwattr $C$DW$5, DW_AT_type(*$C$DW$T$104)
      33              
      34              $C$DW$6 .dwtag  DW_TAG_formal_parameter
      35                      .dwattr $C$DW$6, DW_AT_type(*$C$DW$T$21)
      36              
      37              $C$DW$7 .dwtag  DW_TAG_formal_parameter
      38                      .dwattr $C$DW$7, DW_AT_type(*$C$DW$T$104)
      39              
      40              $C$DW$8 .dwtag  DW_TAG_formal_parameter
      41                      .dwattr $C$DW$8, DW_AT_type(*$C$DW$T$21)
      42              
      43              $C$DW$9 .dwtag  DW_TAG_formal_parameter
      44                      .dwattr $C$DW$9, DW_AT_type(*$C$DW$T$104)
      45              
      46                      .dwendtag $C$DW$1
      47              
      48              
      49              $C$DW$10        .dwtag  DW_TAG_subprogram
      50                      .dwattr $C$DW$10, DW_AT_name("FCL_initPWM")
      51                      .dwattr $C$DW$10, DW_AT_linkage_name("FCL_initPWM")
      52                      .dwattr $C$DW$10, DW_AT_declaration
      53                      .dwattr $C$DW$10, DW_AT_external
      54                      .dwattr $C$DW$10, DW_AT_decl_file("D:/TI/c2000/C2000Ware_MotorControl_SDK_5_04_00_00/libraries/fcl/in
      55                      .dwattr $C$DW$10, DW_AT_decl_line(0x1a8)
TMS320C2000 Assembler PC v22.6.2 Sat Dec 27 15:00:18 2025

Copyright (c) 1996-2018 Texas Instruments Incorporated
dual_axis_servo_drive_user.asm                                       PAGE    2

      56                      .dwattr $C$DW$10, DW_AT_decl_column(0x0d)
      57              $C$DW$11        .dwtag  DW_TAG_formal_parameter
      58                      .dwattr $C$DW$11, DW_AT_type(*$C$DW$T$116)
      59              
      60              $C$DW$12        .dwtag  DW_TAG_formal_parameter
      61                      .dwattr $C$DW$12, DW_AT_type(*$C$DW$T$21)
      62              
      63              $C$DW$13        .dwtag  DW_TAG_formal_parameter
      64                      .dwattr $C$DW$13, DW_AT_type(*$C$DW$T$21)
      65              
      66              $C$DW$14        .dwtag  DW_TAG_formal_parameter
      67                      .dwattr $C$DW$14, DW_AT_type(*$C$DW$T$21)
      68              
      69                      .dwendtag $C$DW$10
      70              
      71              
      72              $C$DW$15        .dwtag  DW_TAG_subprogram
      73                      .dwattr $C$DW$15, DW_AT_name("FCL_initQEP")
      74                      .dwattr $C$DW$15, DW_AT_linkage_name("FCL_initQEP")
      75                      .dwattr $C$DW$15, DW_AT_declaration
      76                      .dwattr $C$DW$15, DW_AT_external
      77                      .dwattr $C$DW$15, DW_AT_decl_file("D:/TI/c2000/C2000Ware_MotorControl_SDK_5_04_00_00/libraries/fcl/in
      78                      .dwattr $C$DW$15, DW_AT_decl_line(0x1b8)
      79                      .dwattr $C$DW$15, DW_AT_decl_column(0x0d)
      80              $C$DW$16        .dwtag  DW_TAG_formal_parameter
      81                      .dwattr $C$DW$16, DW_AT_type(*$C$DW$T$116)
      82              
      83              $C$DW$17        .dwtag  DW_TAG_formal_parameter
      84                      .dwattr $C$DW$17, DW_AT_type(*$C$DW$T$128)
      85              
      86                      .dwendtag $C$DW$15
      87              
      88                      .global ||offsetCalCounter||
      89 00000000               .data
      90                      .align  1
      91                      .elfsym ||offsetCalCounter||,SYM_SIZE(1),SYM_BLOCKED(1)
      92 00000000       ||offsetCalCounter||:
      93 00000000 0000          .bits           0,16
      94                                      ; offsetCalCounter @ 0
      95              
      96              $C$DW$18        .dwtag  DW_TAG_variable
      97                      .dwattr $C$DW$18, DW_AT_name("offsetCalCounter")
      98                      .dwattr $C$DW$18, DW_AT_linkage_name("offsetCalCounter")
      99                      .dwattr $C$DW$18, DW_AT_location[DW_OP_addr ||offsetCalCounter||]
     100                      .dwattr $C$DW$18, DW_AT_type(*$C$DW$T$40)
     101                      .dwattr $C$DW$18, DW_AT_external
     102                      .dwattr $C$DW$18, DW_AT_decl_file("../sources/dual_axis_servo_drive_user.c")
     103                      .dwattr $C$DW$18, DW_AT_decl_line(0x3e)
     104                      .dwattr $C$DW$18, DW_AT_decl_column(0x0a)
     105              
     106                      .global ||K1||
     107 00000001               .data
     108                      .align  2
     109                      .elfsym ||K1||,SYM_SIZE(2),SYM_BLOCKED(1)
     110 00000002       ||K1||:
TMS320C2000 Assembler PC v22.6.2 Sat Dec 27 15:00:18 2025

Copyright (c) 1996-2018 Texas Instruments Incorporated
dual_axis_servo_drive_user.asm                                       PAGE    3

     111 00000002 7CEE          .xfloat $strtod("0x1.fef9dcp-1")                ; K1 @ 0
         00000003 3F7F 
     112              
     113              $C$DW$19        .dwtag  DW_TAG_variable
     114                      .dwattr $C$DW$19, DW_AT_name("K1")
     115                      .dwattr $C$DW$19, DW_AT_linkage_name("K1")
     116                      .dwattr $C$DW$19, DW_AT_location[DW_OP_addr ||K1||]
     117                      .dwattr $C$DW$19, DW_AT_type(*$C$DW$T$19)
     118                      .dwattr $C$DW$19, DW_AT_external
     119                      .dwattr $C$DW$19, DW_AT_decl_file("../sources/dual_axis_servo_drive_user.c")
     120                      .dwattr $C$DW$19, DW_AT_decl_line(0x3b)
     121                      .dwattr $C$DW$19, DW_AT_decl_column(0x0b)
     122              
     123                      .global ||K2||
     124 00000004               .data
     125                      .align  2
     126                      .elfsym ||K2||,SYM_SIZE(2),SYM_BLOCKED(1)
     127 00000004       ||K2||:
     128 00000004 01A8          .xfloat $strtod("0x1.06035p-9")         ; K2 @ 0
         00000005 3B03 
     129              
     130              $C$DW$20        .dwtag  DW_TAG_variable
     131                      .dwattr $C$DW$20, DW_AT_name("K2")
     132                      .dwattr $C$DW$20, DW_AT_linkage_name("K2")
     133                      .dwattr $C$DW$20, DW_AT_location[DW_OP_addr ||K2||]
     134                      .dwattr $C$DW$20, DW_AT_type(*$C$DW$T$19)
     135                      .dwattr $C$DW$20, DW_AT_external
     136                      .dwattr $C$DW$20, DW_AT_decl_file("../sources/dual_axis_servo_drive_user.c")
     137                      .dwattr $C$DW$20, DW_AT_decl_line(0x3c)
     138                      .dwattr $C$DW$20, DW_AT_decl_column(0x0b)
     139              
     140              $C$DW$21        .dwtag  DW_TAG_variable
     141                      .dwattr $C$DW$21, DW_AT_name("halMtr")
     142                      .dwattr $C$DW$21, DW_AT_linkage_name("halMtr")
     143                      .dwattr $C$DW$21, DW_AT_type(*$C$DW$T$109)
     144                      .dwattr $C$DW$21, DW_AT_declaration
     145                      .dwattr $C$DW$21, DW_AT_external
     146                      .dwattr $C$DW$21, DW_AT_decl_file("D:/TI/c2000/C2000Ware_MotorControl_SDK_5_04_00_00/solutions/boostx
     147                      .dwattr $C$DW$21, DW_AT_decl_line(0xb6)
     148                      .dwattr $C$DW$21, DW_AT_decl_column(0x17)
     149              
     150              $C$DW$22        .dwtag  DW_TAG_variable
     151                      .dwattr $C$DW$22, DW_AT_name("fclVars")
     152                      .dwattr $C$DW$22, DW_AT_linkage_name("fclVars")
     153                      .dwattr $C$DW$22, DW_AT_type(*$C$DW$T$105)
     154                      .dwattr $C$DW$22, DW_AT_declaration
     155                      .dwattr $C$DW$22, DW_AT_external
     156                      .dwattr $C$DW$22, DW_AT_decl_file("D:\TI\c2000\C2000Ware_MotorControl_SDK_5_04_00_00\libraries\fcl\in
     157                      .dwattr $C$DW$22, DW_AT_decl_line(0x8b)
     158                      .dwattr $C$DW$22, DW_AT_decl_column(0x13)
     159              
     160              $C$DW$23        .dwtag  DW_TAG_variable
     161                      .dwattr $C$DW$23, DW_AT_name("motorVars")
     162                      .dwattr $C$DW$23, DW_AT_linkage_name("motorVars")
     163                      .dwattr $C$DW$23, DW_AT_type(*$C$DW$T$118)
TMS320C2000 Assembler PC v22.6.2 Sat Dec 27 15:00:18 2025

Copyright (c) 1996-2018 Texas Instruments Incorporated
dual_axis_servo_drive_user.asm                                       PAGE    4

     164                      .dwattr $C$DW$23, DW_AT_declaration
     165                      .dwattr $C$DW$23, DW_AT_external
     166                      .dwattr $C$DW$23, DW_AT_decl_file("D:/TI/c2000/C2000Ware_MotorControl_SDK_5_04_00_00/libraries/fcl/in
     167                      .dwattr $C$DW$23, DW_AT_decl_line(0x1a2)
     168                      .dwattr $C$DW$23, DW_AT_decl_column(0x15)
     169              
     170                      .sblock ".data"
     171              ;       D:\TI\ccs\tools\compiler\ti-cgt-c2000_22.6.2.LTS\bin\opt2000.exe C:\\Users\\JUNLI\\AppData\\Local\\Te
     172              ;       D:\TI\ccs\tools\compiler\ti-cgt-c2000_22.6.2.LTS\bin\acia2000.exe -@C:\\Users\\JUNLI\\AppData\\Local\
     173 00000000               .sect   ".text:runOffsetsCalculation"
     174                      .clink
     175                      .global ||runOffsetsCalculation||
     176              
     177              $C$DW$24        .dwtag  DW_TAG_subprogram
     178                      .dwattr $C$DW$24, DW_AT_name("runOffsetsCalculation")
     179                      .dwattr $C$DW$24, DW_AT_low_pc(||runOffsetsCalculation||)
     180                      .dwattr $C$DW$24, DW_AT_high_pc(0x00)
     181                      .dwattr $C$DW$24, DW_AT_linkage_name("runOffsetsCalculation")
     182                      .dwattr $C$DW$24, DW_AT_external
     183                      .dwattr $C$DW$24, DW_AT_decl_file("../sources/dual_axis_servo_drive_user.c")
     184                      .dwattr $C$DW$24, DW_AT_decl_line(0x184)
     185                      .dwattr $C$DW$24, DW_AT_decl_column(0x06)
     186                      .dwattr $C$DW$24, DW_AT_TI_max_frame_size(-6)
     187                      .dwpsn  file "../sources/dual_axis_servo_drive_user.c",line 389,column 1,is_stmt,address ||runOffsets
     188              
     189                      .dwfde $C$DW$CIE, ||runOffsetsCalculation||
     190              $C$DW$25        .dwtag  DW_TAG_formal_parameter
     191                      .dwattr $C$DW$25, DW_AT_name("pMotor")
     192                      .dwattr $C$DW$25, DW_AT_type(*$C$DW$T$116)
     193                      .dwattr $C$DW$25, DW_AT_location[DW_OP_reg12]
     194              
     195              
     196              ;***************************************************************
     197              ;* FNAME: runOffsetsCalculation         FR SIZE:   4           *
     198              ;*                                                             *
     199              ;* FUNCTION ENVIRONMENT                                        *
     200              ;*                                                             *
     201              ;* FUNCTION PROPERTIES                                         *
     202              ;*                            0 Parameter,  0 Auto,  4 SOE     *
     203              ;***************************************************************
     204              
     205              ||runOffsetsCalculation||:
     206              ;* R1    assigned to $O$v2
     207              ;* R1    assigned to $O$v2
     208              ;* R0    assigned to $O$v1
     209              ;* R0    assigned to $O$v1
     210              ;* AL    assigned to $O$K7
     211              ;* AL    assigned to $O$R2
     212              ;* AL    assigned to $O$R3
     213              ;* AL    assigned to $O$R4
     214              ;* AL    assigned to $O$R7
     215              ;* AL    assigned to $O$R8
     216              ;* AL    assigned to $O$R9
     217              ;* AR4   assigned to pMotor
     218              $C$DW$26        .dwtag  DW_TAG_variable
TMS320C2000 Assembler PC v22.6.2 Sat Dec 27 15:00:18 2025

Copyright (c) 1996-2018 Texas Instruments Incorporated
dual_axis_servo_drive_user.asm                                       PAGE    5

     219                      .dwattr $C$DW$26, DW_AT_name("pMotor")
     220                      .dwattr $C$DW$26, DW_AT_type(*$C$DW$T$117)
     221                      .dwattr $C$DW$26, DW_AT_location[DW_OP_reg12]
     222              
     223              ;* R0    assigned to vdc
     224              $C$DW$27        .dwtag  DW_TAG_variable
     225                      .dwattr $C$DW$27, DW_AT_name("vdc")
     226                      .dwattr $C$DW$27, DW_AT_type(*$C$DW$T$19)
     227                      .dwattr $C$DW$27, DW_AT_location[DW_OP_regx 0x2b]
     228              
     229              ;* R0    assigned to vdc
     230              $C$DW$28        .dwtag  DW_TAG_variable
     231                      .dwattr $C$DW$28, DW_AT_name("vdc")
     232                      .dwattr $C$DW$28, DW_AT_type(*$C$DW$T$19)
     233                      .dwattr $C$DW$28, DW_AT_location[DW_OP_regx 0x2b]
     234              
     235                      .dwcfi  cfa_offset, -2
     236                      .dwcfi  save_reg_to_mem, 26, 0
     237                      .dwpsn  file "../sources/dual_axis_servo_drive_user.c",line 395,column 5,is_stmt,isa 0
     238 00000000 8F40!         MOVL      XAR5,#||motorVars||   ; [CPU_ARAU] |395| 
         00000001 0000 
     239 00000002 B2BD          MOVL      *SP++,XAR1            ; [CPU_ALU] 
     240                      .dwcfi  save_reg_to_mem, 7, 2
     241                      .dwcfi  cfa_offset, -4
     242                      .dwpsn  file "../sources/dual_axis_servo_drive_user.c",line 391,column 5,is_stmt,isa 0
     243 00000003 D022          MOVB      XAR0,#34              ; [CPU_ALU] |391| 
     244 00000004 E590          ZERO      R0H                   ; [CPU_FPU] |391| 
     245                      .dwpsn  file "../sources/dual_axis_servo_drive_user.c",line 392,column 5,is_stmt,isa 0
     246 00000005 E591          ZERO      R1H                   ; [CPU_FPU] |392| 
     247                      .dwpsn  file "../sources/dual_axis_servo_drive_user.c",line 395,column 5,is_stmt,isa 0
     248 00000006 A0A9          MOVL      ACC,XAR5              ; [CPU_ALU] |395| 
     249                      .dwpsn  file "../sources/dual_axis_servo_drive_user.c",line 392,column 5,is_stmt,isa 0
     250 00000007 D124          MOVB      XAR1,#36              ; [CPU_ALU] |392| 
     251 00000008 E203          MOV32     *SP++,R4H             ; [CPU_FPU] 
         00000009 04BD 
     252                      .dwcfi  save_reg_to_mem, 59, 4
     253                      .dwcfi  cfa_offset, -6
     254                      .dwpsn  file "../sources/dual_axis_servo_drive_user.c",line 395,column 5,is_stmt,isa 0
     255 0000000a 0FA4          CMPL      ACC,XAR4              ; [CPU_ALU] |395| 
     256                      .dwpsn  file "../sources/dual_axis_servo_drive_user.c",line 391,column 5,is_stmt,isa 0
     257 0000000b E203          MOV32     *+XAR4[AR0],R0H       ; [CPU_FPU] |391| 
         0000000c 0094 
     258                      .dwpsn  file "../sources/dual_axis_servo_drive_user.c",line 393,column 5,is_stmt,isa 0
     259 0000000d D026          MOVB      XAR0,#38              ; [CPU_ALU] |393| 
     260                      .dwpsn  file "../sources/dual_axis_servo_drive_user.c",line 392,column 5,is_stmt,isa 0
     261 0000000e E203          MOV32     *+XAR4[AR1],R1H       ; [CPU_FPU] |392| 
         0000000f 019C 
     262                      .dwpsn  file "../sources/dual_axis_servo_drive_user.c",line 393,column 5,is_stmt,isa 0
     263 00000010 E203          MOV32     *+XAR4[AR0],R0H       ; [CPU_FPU] |393| 
         00000011 0094 
     264                      .dwpsn  file "../sources/dual_axis_servo_drive_user.c",line 395,column 5,is_stmt,isa 0
     265 00000012 FFE1          B         ||$C$L4||,EQ          ; [CPU_ALU] |395| 
         00000013 00A3 
     266                      ; branchcc occurs ; [] |395| 
     267                      .dwpsn  file "../sources/dual_axis_servo_drive_user.c",line 440,column 10,is_stmt,isa 0
TMS320C2000 Assembler PC v22.6.2 Sat Dec 27 15:00:18 2025

Copyright (c) 1996-2018 Texas Instruments Incorporated
dual_axis_servo_drive_user.asm                                       PAGE    6

     268 00000014 FF12          ADD       ACC,#83 << 2          ; [CPU_ALU] |440| 
         00000015 0053 
     269 00000016 0FA4          CMPL      ACC,XAR4              ; [CPU_ALU] |440| 
     270 00000017 FFE0          B         ||$C$L8||,NEQ         ; [CPU_ALU] |440| 
         00000018 0138 
     271                      ; branchcc occurs ; [] |440| 
     272 00000019 761F!         MOVW      DP,#||offsetCalCounter|| ; [CPU_ARAU] 
         0000001a 0000 
     273                      .dwpsn  file "../sources/dual_axis_servo_drive_user.c",line 442,column 13,is_stmt,isa 0
     274 0000001b 2B00!         MOV       @||offsetCalCounter||,#0 ; [CPU_ALU] |442| 
     275 0000001c       ||$C$L1||:    
     276                      .dwpsn  file "D:/TI/c2000/C2000Ware_MotorControl_SDK_5_04_00_00/c2000ware/driverlib/f2837xd/driverlib
     277 0000001c 02AA          MOVB      ACC,#170              ; [CPU_ALU] |4872| 
     278 0000001d 761F!         MOVW      DP,#||halMtr||+18     ; [CPU_ARAU] 
         0000001e 0000 
     279 0000001f 0712!         ADDL      ACC,@||halMtr||+18    ; [CPU_ALU] |4872| 
     280 00000020 83A9          MOVL      XAR5,ACC              ; [CPU_ALU] |4872| 
     281 00000021 1AC5          OR        *+XAR5[0],#0x0001     ; [CPU_ALU] |4872| 
         00000022 0001 
     282 00000023       ||$C$L2||:    
     283                      .dwpsn  file "D:/TI/c2000/C2000Ware_MotorControl_SDK_5_04_00_00/c2000ware/driverlib/f2837xd/driverlib
     284 00000023 02A8          MOVB      ACC,#168              ; [CPU_ALU] |4847| 
     285 00000024 0712!         ADDL      ACC,@||halMtr||+18    ; [CPU_ALU] |4847| 
     286 00000025 83A9          MOVL      XAR5,ACC              ; [CPU_ALU] |4847| 
     287 00000026 40C5          TBIT      *+XAR5[0],#0          ; [CPU_ALU] |4847| 
     288 00000027 6CFC          B         ||$C$L2||,NTC         ; [CPU_ALU] |4847| 
     289                      ; branchcc occurs ; [] |4847| 
     290 00000028 761F!         MOVW      DP,#||offsetCalCounter|| ; [CPU_ARAU] 
         00000029 0000 
     291                      .dwpsn  file "../sources/dual_axis_servo_drive_user.c",line 448,column 13,is_stmt,isa 0
     292 0000002a 1B00!         CMP       @||offsetCalCounter||,#1000 ; [CPU_ALU] |448| 
         0000002b 03E8 
     293 0000002c 694B          B         ||$C$L3||,LOS         ; [CPU_ALU] |448| 
     294                      ; branchcc occurs ; [] |448| 
     295                      .dwpsn  file "D:/TI/c2000/C2000Ware_MotorControl_SDK_5_04_00_00/c2000ware/driverlib/f2837xd/driverlib
     296 0000002d F5A9          MOV       AL,*(0:0x0b41)        ; [CPU_ALU] |923| 
         0000002e 0B41 
     297                      .dwpsn  file "../sources/dual_axis_servo_drive_user.c",line 451,column 17,is_stmt,isa 0
     298 0000002f 0EA9          MOVU      ACC,AL                ; [CPU_ALU] |451| 
     299 00000030 BDA9          MOV32     R3H,ACC               ; [CPU_FPU] |451| 
         00000031 0F1E 
     300 00000032 7700          NOP       ; [CPU_ALU] 
     301 00000033 D022          MOVB      XAR0,#34              ; [CPU_ALU] |451| 
     302 00000034 E2AF!         MOV32     R1H,@||K2||           ; [CPU_FPU] |451| 
         00000035 0100 
     303 00000036 D132          MOVB      XAR1,#50              ; [CPU_ALU] |451| 
     304 00000037 E68B          UI32TOF32 R3H,R3H               ; [CPU_FPU] |451| 
         00000038 001B 
     305 00000039 E2AF!         MOV32     R0H,@||K1||           ; [CPU_FPU] |451| 
         0000003a 0000 
     306              
     307 0000003b E306          MPYF32    R3H,R1H,R3H           ; [CPU_FPU] |451| 
         0000003c 5A94 
     308              ||      MOV32     R2H,*+XAR4[AR0]       ; [CPU_FPU] |451| 
     309              
TMS320C2000 Assembler PC v22.6.2 Sat Dec 27 15:00:18 2025

Copyright (c) 1996-2018 Texas Instruments Incorporated
dual_axis_servo_drive_user.asm                                       PAGE    7

     310 0000003d E304          MPYF32    R2H,R0H,R2H           ; [CPU_FPU] |451| 
         0000003e 149C 
     311              ||      MOV32     R4H,*+XAR4[AR1]       ; [CPU_FPU] |451| 
     312              
     313 0000003f E700          MPYF32    R3H,R4H,R3H           ; [CPU_FPU] |451| 
         00000040 00E3 
     314 00000041 7700          NOP       ; [CPU_ALU] 
     315 00000042 E710          ADDF32    R2H,R2H,R3H           ; [CPU_FPU] |451| 
         00000043 00D2 
     316 00000044 D022          MOVB      XAR0,#34              ; [CPU_ALU] |451| 
     317 00000045 E203          MOV32     *+XAR4[AR0],R2H       ; [CPU_FPU] |451| 
         00000046 0294 
     318                      .dwpsn  file "D:/TI/c2000/C2000Ware_MotorControl_SDK_5_04_00_00/c2000ware/driverlib/f2837xd/driverlib
     319 00000047 F5A9          MOV       AL,*(0:0x0b21)        ; [CPU_ALU] |923| 
         00000048 0B21 
     320                      .dwpsn  file "../sources/dual_axis_servo_drive_user.c",line 454,column 17,is_stmt,isa 0
     321 00000049 0EA9          MOVU      ACC,AL                ; [CPU_ALU] |454| 
     322 0000004a BDA9          MOV32     R3H,ACC               ; [CPU_FPU] |454| 
         0000004b 0F1E 
     323 0000004c 7700          NOP       ; [CPU_ALU] 
     324 0000004d 7700          NOP       ; [CPU_ALU] 
     325 0000004e 7700          NOP       ; [CPU_ALU] 
     326 0000004f D132          MOVB      XAR1,#50              ; [CPU_ALU] |454| 
     327 00000050 E68B          UI32TOF32 R3H,R3H               ; [CPU_FPU] |454| 
         00000051 001B 
     328 00000052 D024          MOVB      XAR0,#36              ; [CPU_ALU] |454| 
     329              
     330 00000053 E306          MPYF32    R3H,R1H,R3H           ; [CPU_FPU] |454| 
         00000054 5A94 
     331              ||      MOV32     R2H,*+XAR4[AR0]       ; [CPU_FPU] |454| 
     332              
     333 00000055 E304          MPYF32    R2H,R0H,R2H           ; [CPU_FPU] |454| 
         00000056 149C 
     334              ||      MOV32     R4H,*+XAR4[AR1]       ; [CPU_FPU] |454| 
     335              
     336 00000057 E700          MPYF32    R3H,R4H,R3H           ; [CPU_FPU] |454| 
         00000058 00E3 
     337 00000059 7700          NOP       ; [CPU_ALU] 
     338 0000005a E710          ADDF32    R2H,R2H,R3H           ; [CPU_FPU] |454| 
         0000005b 00D2 
     339 0000005c D024          MOVB      XAR0,#36              ; [CPU_ALU] |454| 
     340 0000005d E203          MOV32     *+XAR4[AR0],R2H       ; [CPU_FPU] |454| 
         0000005e 0294 
     341                      .dwpsn  file "D:/TI/c2000/C2000Ware_MotorControl_SDK_5_04_00_00/c2000ware/driverlib/f2837xd/driverlib
     342 0000005f F5A9          MOV       AL,*(0:0x0b01)        ; [CPU_ALU] |923| 
         00000060 0B01 
     343                      .dwpsn  file "../sources/dual_axis_servo_drive_user.c",line 457,column 17,is_stmt,isa 0
     344 00000061 0EA9          MOVU      ACC,AL                ; [CPU_ALU] |457| 
     345 00000062 BDA9          MOV32     R3H,ACC               ; [CPU_FPU] |457| 
         00000063 0F1E 
     346 00000064 7700          NOP       ; [CPU_ALU] 
     347 00000065 7700          NOP       ; [CPU_ALU] 
     348 00000066 7700          NOP       ; [CPU_ALU] 
     349 00000067 D132          MOVB      XAR1,#50              ; [CPU_ALU] |457| 
     350 00000068 E68B          UI32TOF32 R3H,R3H               ; [CPU_FPU] |457| 
TMS320C2000 Assembler PC v22.6.2 Sat Dec 27 15:00:18 2025

Copyright (c) 1996-2018 Texas Instruments Incorporated
dual_axis_servo_drive_user.asm                                       PAGE    8

         00000069 001B 
     351 0000006a D026          MOVB      XAR0,#38              ; [CPU_ALU] |457| 
     352              
     353 0000006b E306          MPYF32    R1H,R1H,R3H           ; [CPU_FPU] |457| 
         0000006c 4A94 
     354              ||      MOV32     R2H,*+XAR4[AR0]       ; [CPU_FPU] |457| 
     355              
     356                      MOV32     R3H,*+XAR4[AR1]       ; [CPU_FPU] |457| 
     357 0000006d E304  ||      MPYF32    R0H,R0H,R2H           ; [CPU_FPU] |457| 
         0000006e 039C 
     358              
     359 0000006f E700          MPYF32    R1H,R3H,R1H           ; [CPU_FPU] |457| 
         00000070 0059 
     360 00000071 7700          NOP       ; [CPU_ALU] 
     361 00000072 E710          ADDF32    R0H,R0H,R1H           ; [CPU_FPU] |457| 
         00000073 0040 
     362 00000074 D026          MOVB      XAR0,#38              ; [CPU_ALU] |457| 
     363 00000075 E203          MOV32     *+XAR4[AR0],R0H       ; [CPU_FPU] |457| 
         00000076 0094 
     364 00000077       ||$C$L3||:    
     365                      .dwpsn  file "../sources/dual_axis_servo_drive_user.c",line 442,column 61,is_stmt,isa 0
     366 00000077 0A00!         INC       @||offsetCalCounter|| ; [CPU_ALU] |442| 
     367 00000078 1B00!         CMP       @||offsetCalCounter||,#20000 ; [CPU_ALU] |442| 
         00000079 4E20 
     368 0000007a 68A2          B         ||$C$L1||,LO          ; [CPU_ALU] |442| 
     369                      ; branchcc occurs ; [] |442| 
     370                      .dwpsn  file "D:/TI/c2000/C2000Ware_MotorControl_SDK_5_04_00_00/c2000ware/driverlib/f2837xd/driverlib
     371 0000007b D022          MOVB      XAR0,#34              ; [CPU_ALU] |1545| 
     372 0000007c E2AF          MOV32     R0H,*+XAR4[AR0]       ; [CPU_FPU] |1545| 
         0000007d 0094 
     373                      .dwpsn  file "D:/TI/c2000/C2000Ware_MotorControl_SDK_5_04_00_00/solutions/common/sensored_foc/include
     374 0000007e D048          MOVB      XAR0,#72              ; [CPU_ALU] |223| 
     375 0000007f 8394          MOVL      XAR5,*+XAR4[AR0]      ; [CPU_ALU] |223| 
     376                      .dwpsn  file "D:/TI/c2000/C2000Ware_MotorControl_SDK_5_04_00_00/c2000ware/driverlib/f2837xd/driverlib
     377 00000080 E851          MPYF32    R0H,R0H,#17792        ; [CPU_FPU] |1545| 
         00000081 6000 
     378                      .dwpsn  file "../sources/dual_axis_servo_drive_user.c",line 465,column 9,is_stmt,isa 0
     379 00000082 8D40          MOVL      XAR1,#274             ; [CPU_ALU] |465| 
         00000083 0112 
     380                      .dwpsn  file "D:/TI/c2000/C2000Ware_MotorControl_SDK_5_04_00_00/solutions/common/sensored_foc/include
     381 00000084 D030          MOVB      XAR0,#48              ; [CPU_ALU] |223| 
     382                      .dwpsn  file "D:/TI/c2000/C2000Ware_MotorControl_SDK_5_04_00_00/c2000ware/driverlib/f2837xd/driverlib
     383 00000085 E68E          F32TOUI16 R0H,R0H               ; [CPU_FPU] |1545| 
         00000086 0000 
     384                      .dwpsn  file "D:/TI/c2000/C2000Ware_MotorControl_SDK_5_04_00_00/solutions/common/sensored_foc/include
     385 00000087 E2AF          MOV32     R4H,*+XAR4[AR0]       ; [CPU_FPU] |223| 
         00000088 0494 
     386 00000089 E2C4          UI16TOF32 R1H,*+XAR5[0]         ; [CPU_FPU] |223| 
         0000008a 01C5 
     387                      .dwpsn  file "D:/TI/c2000/C2000Ware_MotorControl_SDK_5_04_00_00/c2000ware/driverlib/f2837xd/driverlib
     388 0000008b BFA9          MOV32     ACC,R0H               ; [CPU_FPU] |1545| 
         0000008c 0F12 
     389                      .dwpsn  file "D:/TI/c2000/C2000Ware_MotorControl_SDK_5_04_00_00/solutions/common/sensored_foc/include
     390 0000008d E700          MPYF32    R0H,R4H,R1H           ; [CPU_FPU] |223| 
         0000008e 0060 
TMS320C2000 Assembler PC v22.6.2 Sat Dec 27 15:00:18 2025

Copyright (c) 1996-2018 Texas Instruments Incorporated
dual_axis_servo_drive_user.asm                                       PAGE    9

     391                      .dwpsn  file "D:/TI/c2000/C2000Ware_MotorControl_SDK_5_04_00_00/c2000ware/driverlib/f2837xd/driverlib
     392 0000008f D024          MOVB      XAR0,#36              ; [CPU_ALU] |1545| 
     393                      .dwpsn  file "D:/TI/c2000/C2000Ware_MotorControl_SDK_5_04_00_00/solutions/common/sensored_foc/include
     394 00000090 E821          MAXF32    R0H,#16256            ; [CPU_FPU] |227| 
         00000091 FC00 
     395                      .dwpsn  file "../sources/dual_axis_servo_drive_user.c",line 465,column 9,is_stmt,isa 0
     396 00000092 E203          MOV32     *+XAR4[AR1],R0H       ; [CPU_FPU] |465| 
         00000093 009C 
     397                      .dwpsn  file "D:/TI/c2000/C2000Ware_MotorControl_SDK_5_04_00_00/c2000ware/driverlib/f2837xd/driverlib
     398 00000094 F4A9          MOV       *(0:0x754b),AL        ; [CPU_ALU] |1545| 
         00000095 754B 
     399 00000096 E2AF          MOV32     R0H,*+XAR4[AR0]       ; [CPU_FPU] |1545| 
         00000097 0094 
     400 00000098 E851          MPYF32    R0H,R0H,#17792        ; [CPU_FPU] |1545| 
         00000099 6000 
     401 0000009a 7700          NOP       ; [CPU_ALU] 
     402 0000009b E68E          F32TOUI16 R0H,R0H               ; [CPU_FPU] |1545| 
         0000009c 0000 
     403 0000009d 7700          NOP       ; [CPU_ALU] 
     404 0000009e D026          MOVB      XAR0,#38              ; [CPU_ALU] |1545| 
     405 0000009f BFA9          MOV32     ACC,R0H               ; [CPU_FPU] |1545| 
         000000a0 0F12 
     406 000000a1 F4A9          MOV       *(0:0x74cb),AL        ; [CPU_ALU] |1545| 
         000000a2 74CB 
     407 000000a3 E2AF          MOV32     R0H,*+XAR4[AR0]       ; [CPU_FPU] |1545| 
         000000a4 0094 
     408 000000a5 E851          MPYF32    R0H,R0H,#17792        ; [CPU_FPU] |1545| 
         000000a6 6000 
     409 000000a7 7700          NOP       ; [CPU_ALU] 
     410 000000a8 E68E          F32TOUI16 R0H,R0H               ; [CPU_FPU] |1545| 
         000000a9 0000 
     411 000000aa 7700          NOP       ; [CPU_ALU] 
     412 000000ab 7700          NOP       ; [CPU_ALU] 
     413 000000ac BFA9          MOV32     ACC,R0H               ; [CPU_FPU] |1545| 
         000000ad 0F12 
     414 000000ae 9B00          MOVB      AH,#0                 ; [CPU_ALU] |1545| 
     415 000000af F4A9          MOV       *(0:0x744b),AL        ; [CPU_ALU] |1545| 
         000000b0 744B 
     416 000000b1 F4A8          MOV       *(0:0x75cb),AH        ; [CPU_ALU] |1545| 
         000000b2 75CB 
     417                      .dwpsn  file "../sources/dual_axis_servo_drive_user.c",line 483,column 9,is_stmt,isa 0
     418 000000b3 FFEF          B         ||$C$L8||,UNC         ; [CPU_ALU] |483| 
         000000b4 009C 
     419                      ; branch occurs ; [] |483| 
     420 000000b5       ||$C$L4||:    
     421 000000b5 761F!         MOVW      DP,#||offsetCalCounter|| ; [CPU_ARAU] 
         000000b6 0000 
     422                      .dwpsn  file "../sources/dual_axis_servo_drive_user.c",line 397,column 13,is_stmt,isa 0
     423 000000b7 2B00!         MOV       @||offsetCalCounter||,#0 ; [CPU_ALU] |397| 
     424 000000b8       ||$C$L5||:    
     425                      .dwpsn  file "D:/TI/c2000/C2000Ware_MotorControl_SDK_5_04_00_00/c2000ware/driverlib/f2837xd/driverlib
     426 000000b8 02AA          MOVB      ACC,#170              ; [CPU_ALU] |4872| 
     427 000000b9 761F!         MOVW      DP,#||halMtr||        ; [CPU_ARAU] 
         000000ba 0000 
     428 000000bb 0700!         ADDL      ACC,@||halMtr||       ; [CPU_ALU] |4872| 
TMS320C2000 Assembler PC v22.6.2 Sat Dec 27 15:00:18 2025

Copyright (c) 1996-2018 Texas Instruments Incorporated
dual_axis_servo_drive_user.asm                                       PAGE   10

     429 000000bc 83A9          MOVL      XAR5,ACC              ; [CPU_ALU] |4872| 
     430 000000bd 1AC5          OR        *+XAR5[0],#0x0001     ; [CPU_ALU] |4872| 
         000000be 0001 
     431 000000bf       ||$C$L6||:    
     432                      .dwpsn  file "D:/TI/c2000/C2000Ware_MotorControl_SDK_5_04_00_00/c2000ware/driverlib/f2837xd/driverlib
     433 000000bf 02A8          MOVB      ACC,#168              ; [CPU_ALU] |4847| 
     434 000000c0 0700!         ADDL      ACC,@||halMtr||       ; [CPU_ALU] |4847| 
     435 000000c1 83A9          MOVL      XAR5,ACC              ; [CPU_ALU] |4847| 
     436 000000c2 40C5          TBIT      *+XAR5[0],#0          ; [CPU_ALU] |4847| 
     437 000000c3 6CFC          B         ||$C$L6||,NTC         ; [CPU_ALU] |4847| 
     438                      ; branchcc occurs ; [] |4847| 
     439 000000c4 761F!         MOVW      DP,#||offsetCalCounter|| ; [CPU_ARAU] 
         000000c5 0000 
     440                      .dwpsn  file "../sources/dual_axis_servo_drive_user.c",line 403,column 13,is_stmt,isa 0
     441 000000c6 1B00!         CMP       @||offsetCalCounter||,#1000 ; [CPU_ALU] |403| 
         000000c7 03E8 
     442 000000c8 694B          B         ||$C$L7||,LOS         ; [CPU_ALU] |403| 
     443                      ; branchcc occurs ; [] |403| 
     444                      .dwpsn  file "D:/TI/c2000/C2000Ware_MotorControl_SDK_5_04_00_00/c2000ware/driverlib/f2837xd/driverlib
     445 000000c9 F5A9          MOV       AL,*(0:0x0b40)        ; [CPU_ALU] |923| 
         000000ca 0B40 
     446                      .dwpsn  file "../sources/dual_axis_servo_drive_user.c",line 406,column 17,is_stmt,isa 0
     447 000000cb 0EA9          MOVU      ACC,AL                ; [CPU_ALU] |406| 
     448 000000cc BDA9          MOV32     R3H,ACC               ; [CPU_FPU] |406| 
         000000cd 0F1E 
     449 000000ce 7700          NOP       ; [CPU_ALU] 
     450 000000cf D022          MOVB      XAR0,#34              ; [CPU_ALU] |406| 
     451 000000d0 E2AF!         MOV32     R1H,@||K2||           ; [CPU_FPU] |406| 
         000000d1 0100 
     452 000000d2 D132          MOVB      XAR1,#50              ; [CPU_ALU] |406| 
     453 000000d3 E68B          UI32TOF32 R3H,R3H               ; [CPU_FPU] |406| 
         000000d4 001B 
     454 000000d5 E2AF!         MOV32     R0H,@||K1||           ; [CPU_FPU] |406| 
         000000d6 0000 
     455              
     456 000000d7 E306          MPYF32    R3H,R1H,R3H           ; [CPU_FPU] |406| 
         000000d8 5A94 
     457              ||      MOV32     R2H,*+XAR4[AR0]       ; [CPU_FPU] |406| 
     458              
     459 000000d9 E304          MPYF32    R2H,R0H,R2H           ; [CPU_FPU] |406| 
         000000da 149C 
     460              ||      MOV32     R4H,*+XAR4[AR1]       ; [CPU_FPU] |406| 
     461              
     462 000000db E700          MPYF32    R3H,R4H,R3H           ; [CPU_FPU] |406| 
         000000dc 00E3 
     463 000000dd 7700          NOP       ; [CPU_ALU] 
     464 000000de E710          ADDF32    R2H,R2H,R3H           ; [CPU_FPU] |406| 
         000000df 00D2 
     465 000000e0 D022          MOVB      XAR0,#34              ; [CPU_ALU] |406| 
     466 000000e1 E203          MOV32     *+XAR4[AR0],R2H       ; [CPU_FPU] |406| 
         000000e2 0294 
     467                      .dwpsn  file "D:/TI/c2000/C2000Ware_MotorControl_SDK_5_04_00_00/c2000ware/driverlib/f2837xd/driverlib
     468 000000e3 F5A9          MOV       AL,*(0:0x0b20)        ; [CPU_ALU] |923| 
         000000e4 0B20 
     469                      .dwpsn  file "../sources/dual_axis_servo_drive_user.c",line 409,column 17,is_stmt,isa 0
TMS320C2000 Assembler PC v22.6.2 Sat Dec 27 15:00:18 2025

Copyright (c) 1996-2018 Texas Instruments Incorporated
dual_axis_servo_drive_user.asm                                       PAGE   11

     470 000000e5 0EA9          MOVU      ACC,AL                ; [CPU_ALU] |409| 
     471 000000e6 BDA9          MOV32     R3H,ACC               ; [CPU_FPU] |409| 
         000000e7 0F1E 
     472 000000e8 7700          NOP       ; [CPU_ALU] 
     473 000000e9 7700          NOP       ; [CPU_ALU] 
     474 000000ea 7700          NOP       ; [CPU_ALU] 
     475 000000eb D132          MOVB      XAR1,#50              ; [CPU_ALU] |409| 
     476 000000ec E68B          UI32TOF32 R3H,R3H               ; [CPU_FPU] |409| 
         000000ed 001B 
     477 000000ee D024          MOVB      XAR0,#36              ; [CPU_ALU] |409| 
     478              
     479 000000ef E306          MPYF32    R3H,R1H,R3H           ; [CPU_FPU] |409| 
         000000f0 5A94 
     480              ||      MOV32     R2H,*+XAR4[AR0]       ; [CPU_FPU] |409| 
     481              
     482 000000f1 E304          MPYF32    R2H,R0H,R2H           ; [CPU_FPU] |409| 
         000000f2 149C 
     483              ||      MOV32     R4H,*+XAR4[AR1]       ; [CPU_FPU] |409| 
     484              
     485 000000f3 E700          MPYF32    R3H,R4H,R3H           ; [CPU_FPU] |409| 
         000000f4 00E3 
     486 000000f5 7700          NOP       ; [CPU_ALU] 
     487 000000f6 E710          ADDF32    R2H,R2H,R3H           ; [CPU_FPU] |409| 
         000000f7 00D2 
     488 000000f8 D024          MOVB      XAR0,#36              ; [CPU_ALU] |409| 
     489 000000f9 E203          MOV32     *+XAR4[AR0],R2H       ; [CPU_FPU] |409| 
         000000fa 0294 
     490                      .dwpsn  file "D:/TI/c2000/C2000Ware_MotorControl_SDK_5_04_00_00/c2000ware/driverlib/f2837xd/driverlib
     491 000000fb F5A9          MOV       AL,*(0:0x0b00)        ; [CPU_ALU] |923| 
         000000fc 0B00 
     492                      .dwpsn  file "../sources/dual_axis_servo_drive_user.c",line 412,column 17,is_stmt,isa 0
     493 000000fd 0EA9          MOVU      ACC,AL                ; [CPU_ALU] |412| 
     494 000000fe BDA9          MOV32     R3H,ACC               ; [CPU_FPU] |412| 
         000000ff 0F1E 
     495 00000100 7700          NOP       ; [CPU_ALU] 
     496 00000101 7700          NOP       ; [CPU_ALU] 
     497 00000102 7700          NOP       ; [CPU_ALU] 
     498 00000103 D132          MOVB      XAR1,#50              ; [CPU_ALU] |412| 
     499 00000104 E68B          UI32TOF32 R3H,R3H               ; [CPU_FPU] |412| 
         00000105 001B 
     500 00000106 D026          MOVB      XAR0,#38              ; [CPU_ALU] |412| 
     501              
     502 00000107 E306          MPYF32    R1H,R1H,R3H           ; [CPU_FPU] |412| 
         00000108 4A94 
     503              ||      MOV32     R2H,*+XAR4[AR0]       ; [CPU_FPU] |412| 
     504              
     505                      MOV32     R3H,*+XAR4[AR1]       ; [CPU_FPU] |412| 
     506 00000109 E304  ||      MPYF32    R0H,R0H,R2H           ; [CPU_FPU] |412| 
         0000010a 039C 
     507              
     508 0000010b E700          MPYF32    R1H,R3H,R1H           ; [CPU_FPU] |412| 
         0000010c 0059 
     509 0000010d 7700          NOP       ; [CPU_ALU] 
     510 0000010e E710          ADDF32    R0H,R0H,R1H           ; [CPU_FPU] |412| 
         0000010f 0040 
TMS320C2000 Assembler PC v22.6.2 Sat Dec 27 15:00:18 2025

Copyright (c) 1996-2018 Texas Instruments Incorporated
dual_axis_servo_drive_user.asm                                       PAGE   12

     511 00000110 D026          MOVB      XAR0,#38              ; [CPU_ALU] |412| 
     512 00000111 E203          MOV32     *+XAR4[AR0],R0H       ; [CPU_FPU] |412| 
         00000112 0094 
     513 00000113       ||$C$L7||:    
     514                      .dwpsn  file "../sources/dual_axis_servo_drive_user.c",line 397,column 61,is_stmt,isa 0
     515 00000113 0A00!         INC       @||offsetCalCounter|| ; [CPU_ALU] |397| 
     516 00000114 1B00!         CMP       @||offsetCalCounter||,#20000 ; [CPU_ALU] |397| 
         00000115 4E20 
     517 00000116 68A2          B         ||$C$L5||,LO          ; [CPU_ALU] |397| 
     518                      ; branchcc occurs ; [] |397| 
     519                      .dwpsn  file "D:/TI/c2000/C2000Ware_MotorControl_SDK_5_04_00_00/c2000ware/driverlib/f2837xd/driverlib
     520 00000117 D022          MOVB      XAR0,#34              ; [CPU_ALU] |1545| 
     521 00000118 E2AF          MOV32     R0H,*+XAR4[AR0]       ; [CPU_FPU] |1545| 
         00000119 0094 
     522                      .dwpsn  file "D:/TI/c2000/C2000Ware_MotorControl_SDK_5_04_00_00/solutions/common/sensored_foc/include
     523 0000011a D048          MOVB      XAR0,#72              ; [CPU_ALU] |223| 
     524 0000011b 8394          MOVL      XAR5,*+XAR4[AR0]      ; [CPU_ALU] |223| 
     525                      .dwpsn  file "D:/TI/c2000/C2000Ware_MotorControl_SDK_5_04_00_00/c2000ware/driverlib/f2837xd/driverlib
     526 0000011c E851          MPYF32    R0H,R0H,#17792        ; [CPU_FPU] |1545| 
         0000011d 6000 
     527                      .dwpsn  file "../sources/dual_axis_servo_drive_user.c",line 420,column 9,is_stmt,isa 0
     528 0000011e 8D40          MOVL      XAR1,#274             ; [CPU_ALU] |420| 
         0000011f 0112 
     529                      .dwpsn  file "D:/TI/c2000/C2000Ware_MotorControl_SDK_5_04_00_00/solutions/common/sensored_foc/include
     530 00000120 D030          MOVB      XAR0,#48              ; [CPU_ALU] |223| 
     531                      .dwpsn  file "D:/TI/c2000/C2000Ware_MotorControl_SDK_5_04_00_00/c2000ware/driverlib/f2837xd/driverlib
     532 00000121 E68E          F32TOUI16 R0H,R0H               ; [CPU_FPU] |1545| 
         00000122 0000 
     533                      .dwpsn  file "D:/TI/c2000/C2000Ware_MotorControl_SDK_5_04_00_00/solutions/common/sensored_foc/include
     534 00000123 E2AF          MOV32     R4H,*+XAR4[AR0]       ; [CPU_FPU] |223| 
         00000124 0494 
     535 00000125 E2C4          UI16TOF32 R1H,*+XAR5[0]         ; [CPU_FPU] |223| 
         00000126 01C5 
     536                      .dwpsn  file "D:/TI/c2000/C2000Ware_MotorControl_SDK_5_04_00_00/c2000ware/driverlib/f2837xd/driverlib
     537 00000127 BFA9          MOV32     ACC,R0H               ; [CPU_FPU] |1545| 
         00000128 0F12 
     538                      .dwpsn  file "D:/TI/c2000/C2000Ware_MotorControl_SDK_5_04_00_00/solutions/common/sensored_foc/include
     539 00000129 E700          MPYF32    R0H,R4H,R1H           ; [CPU_FPU] |223| 
         0000012a 0060 
     540                      .dwpsn  file "D:/TI/c2000/C2000Ware_MotorControl_SDK_5_04_00_00/c2000ware/driverlib/f2837xd/driverlib
     541 0000012b D024          MOVB      XAR0,#36              ; [CPU_ALU] |1545| 
     542                      .dwpsn  file "D:/TI/c2000/C2000Ware_MotorControl_SDK_5_04_00_00/solutions/common/sensored_foc/include
     543 0000012c E821          MAXF32    R0H,#16256            ; [CPU_FPU] |227| 
         0000012d FC00 
     544                      .dwpsn  file "../sources/dual_axis_servo_drive_user.c",line 420,column 9,is_stmt,isa 0
     545 0000012e E203          MOV32     *+XAR4[AR1],R0H       ; [CPU_FPU] |420| 
         0000012f 009C 
     546                      .dwpsn  file "D:/TI/c2000/C2000Ware_MotorControl_SDK_5_04_00_00/c2000ware/driverlib/f2837xd/driverlib
     547 00000130 F4A9          MOV       *(0:0x7543),AL        ; [CPU_ALU] |1545| 
         00000131 7543 
     548 00000132 E2AF          MOV32     R0H,*+XAR4[AR0]       ; [CPU_FPU] |1545| 
         00000133 0094 
     549 00000134 E851          MPYF32    R0H,R0H,#17792        ; [CPU_FPU] |1545| 
         00000135 6000 
     550 00000136 7700          NOP       ; [CPU_ALU] 
TMS320C2000 Assembler PC v22.6.2 Sat Dec 27 15:00:18 2025

Copyright (c) 1996-2018 Texas Instruments Incorporated
dual_axis_servo_drive_user.asm                                       PAGE   13

     551 00000137 E68E          F32TOUI16 R0H,R0H               ; [CPU_FPU] |1545| 
         00000138 0000 
     552 00000139 7700          NOP       ; [CPU_ALU] 
     553 0000013a D026          MOVB      XAR0,#38              ; [CPU_ALU] |1545| 
     554 0000013b BFA9          MOV32     ACC,R0H               ; [CPU_FPU] |1545| 
         0000013c 0F12 
     555 0000013d F4A9          MOV       *(0:0x74c3),AL        ; [CPU_ALU] |1545| 
         0000013e 74C3 
     556 0000013f E2AF          MOV32     R0H,*+XAR4[AR0]       ; [CPU_FPU] |1545| 
         00000140 0094 
     557 00000141 E851          MPYF32    R0H,R0H,#17792        ; [CPU_FPU] |1545| 
         00000142 6000 
     558 00000143 7700          NOP       ; [CPU_ALU] 
     559 00000144 E68E          F32TOUI16 R0H,R0H               ; [CPU_FPU] |1545| 
         00000145 0000 
     560 00000146 7700          NOP       ; [CPU_ALU] 
     561 00000147 7700          NOP       ; [CPU_ALU] 
     562 00000148 BFA9          MOV32     ACC,R0H               ; [CPU_FPU] |1545| 
         00000149 0F12 
     563 0000014a 9B00          MOVB      AH,#0                 ; [CPU_ALU] |1545| 
     564 0000014b F4A9          MOV       *(0:0x7443),AL        ; [CPU_ALU] |1545| 
         0000014c 7443 
     565 0000014d F4A8          MOV       *(0:0x75c3),AH        ; [CPU_ALU] |1545| 
         0000014e 75C3 
     566 0000014f       ||$C$L8||:    
     567                      .dwpsn  file "../sources/dual_axis_servo_drive_user.c",line 486,column 5,is_stmt,isa 0
     568 0000014f 8D00          MOVL      XAR0,#330             ; [CPU_ALU] |486| 
         00000150 014A 
     569 00000151 56BF          MOVB      *+XAR4[AR0],#1,UNC    ; [CPU_ALU] |486| 
         00000152 0194 
     570 00000153 E2AF          MOV32     R4H,*--SP             ; [CPU_FPU] 
         00000154 04BE 
     571                      .dwcfi  cfa_offset, -4
     572                      .dwcfi  restore_reg, 59
     573 00000155 8BBE          MOVL      XAR1,*--SP            ; [CPU_ALU] 
     574                      .dwcfi  cfa_offset, -2
     575                      .dwcfi  restore_reg, 7
     576              $C$DW$29        .dwtag  DW_TAG_TI_branch
     577                      .dwattr $C$DW$29, DW_AT_low_pc(0x00)
     578                      .dwattr $C$DW$29, DW_AT_TI_return
     579              
     580 00000156 0006          LRETR     ; [CPU_ALU] 
     581                      ; return occurs ; [] 
     582                      .dwattr $C$DW$24, DW_AT_TI_end_file("../sources/dual_axis_servo_drive_user.c")
     583                      .dwattr $C$DW$24, DW_AT_TI_end_line(0x1e9)
     584                      .dwattr $C$DW$24, DW_AT_TI_end_column(0x01)
     585                      .dwendentry
     586                      .dwendtag $C$DW$24
     587              
     588 00000000               .sect   ".text:resetControlVars"
     589                      .clink
     590                      .global ||resetControlVars||
     591              
     592              $C$DW$30        .dwtag  DW_TAG_subprogram
     593                      .dwattr $C$DW$30, DW_AT_name("resetControlVars")
TMS320C2000 Assembler PC v22.6.2 Sat Dec 27 15:00:18 2025

Copyright (c) 1996-2018 Texas Instruments Incorporated
dual_axis_servo_drive_user.asm                                       PAGE   14

     594                      .dwattr $C$DW$30, DW_AT_low_pc(||resetControlVars||)
     595                      .dwattr $C$DW$30, DW_AT_high_pc(0x00)
     596                      .dwattr $C$DW$30, DW_AT_linkage_name("resetControlVars")
     597                      .dwattr $C$DW$30, DW_AT_external
     598                      .dwattr $C$DW$30, DW_AT_decl_file("../sources/dual_axis_servo_drive_user.c")
     599                      .dwattr $C$DW$30, DW_AT_decl_line(0x166)
     600                      .dwattr $C$DW$30, DW_AT_decl_column(0x06)
     601                      .dwattr $C$DW$30, DW_AT_TI_max_frame_size(-4)
     602                      .dwpsn  file "../sources/dual_axis_servo_drive_user.c",line 359,column 1,is_stmt,address ||resetContr
     603              
     604                      .dwfde $C$DW$CIE, ||resetControlVars||
     605              $C$DW$31        .dwtag  DW_TAG_formal_parameter
     606                      .dwattr $C$DW$31, DW_AT_name("pMotor")
     607                      .dwattr $C$DW$31, DW_AT_type(*$C$DW$T$116)
     608                      .dwattr $C$DW$31, DW_AT_location[DW_OP_reg12]
     609              
     610              
     611              ;***************************************************************
     612              ;* FNAME: resetControlVars              FR SIZE:   2           *
     613              ;*                                                             *
     614              ;* FUNCTION ENVIRONMENT                                        *
     615              ;*                                                             *
     616              ;* FUNCTION PROPERTIES                                         *
     617              ;*                            0 Parameter,  0 Auto,  2 SOE     *
     618              ;***************************************************************
     619              
     620              ||resetControlVars||:
     621              ;* AR4   assigned to pMotor
     622              $C$DW$32        .dwtag  DW_TAG_variable
     623                      .dwattr $C$DW$32, DW_AT_name("pMotor")
     624                      .dwattr $C$DW$32, DW_AT_type(*$C$DW$T$117)
     625                      .dwattr $C$DW$32, DW_AT_location[DW_OP_reg12]
     626              
     627                      .dwcfi  cfa_offset, -2
     628                      .dwcfi  save_reg_to_mem, 26, 0
     629 00000000 B2BD          MOVL      *SP++,XAR1            ; [CPU_ALU] 
     630                      .dwcfi  save_reg_to_mem, 7, 2
     631                      .dwcfi  cfa_offset, -4
     632                      .dwpsn  file "../sources/dual_axis_servo_drive_user.c",line 369,column 5,is_stmt,isa 0
     633 00000001 8D00          MOVL      XAR0,#280             ; [CPU_ALU] |369| 
         00000002 0118 
     634                      .dwpsn  file "../sources/dual_axis_servo_drive_user.c",line 362,column 5,is_stmt,isa 0
     635 00000003 E590          ZERO      R0H                   ; [CPU_FPU] |362| 
     636                      .dwpsn  file "../sources/dual_axis_servo_drive_user.c",line 369,column 5,is_stmt,isa 0
     637 00000004 8394          MOVL      XAR5,*+XAR4[AR0]      ; [CPU_ALU] |369| 
     638                      .dwpsn  file "../sources/dual_axis_servo_drive_user.c",line 362,column 5,is_stmt,isa 0
     639 00000005 D0AC          MOVB      XAR0,#172             ; [CPU_ALU] |362| 
     640                      .dwpsn  file "../sources/dual_axis_servo_drive_user.c",line 371,column 5,is_stmt,isa 0
     641 00000006 0228          MOVB      ACC,#40               ; [CPU_ALU] |371| 
     642                      .dwpsn  file "../sources/dual_axis_servo_drive_user.c",line 362,column 5,is_stmt,isa 0
     643 00000007 E203          MOV32     *+XAR4[AR0],R0H       ; [CPU_FPU] |362| 
         00000008 0094 
     644                      .dwpsn  file "../sources/dual_axis_servo_drive_user.c",line 363,column 5,is_stmt,isa 0
     645 00000009 D0AA          MOVB      XAR0,#170             ; [CPU_ALU] |363| 
     646 0000000a E203          MOV32     *+XAR4[AR0],R0H       ; [CPU_FPU] |363| 
TMS320C2000 Assembler PC v22.6.2 Sat Dec 27 15:00:18 2025

Copyright (c) 1996-2018 Texas Instruments Incorporated
dual_axis_servo_drive_user.asm                                       PAGE   15

         0000000b 0094 
     647                      .dwpsn  file "../sources/dual_axis_servo_drive_user.c",line 366,column 5,is_stmt,isa 0
     648 0000000c D054          MOVB      XAR0,#84              ; [CPU_ALU] |366| 
     649 0000000d E203          MOV32     *+XAR4[AR0],R0H       ; [CPU_FPU] |366| 
         0000000e 0094 
     650                      .dwpsn  file "../sources/dual_axis_servo_drive_user.c",line 365,column 5,is_stmt,isa 0
     651 0000000f D058          MOVB      XAR0,#88              ; [CPU_ALU] |365| 
     652 00000010 E203          MOV32     *+XAR4[AR0],R0H       ; [CPU_FPU] |365| 
         00000011 0094 
     653                      .dwpsn  file "../sources/dual_axis_servo_drive_user.c",line 367,column 5,is_stmt,isa 0
     654 00000012 D056          MOVB      XAR0,#86              ; [CPU_ALU] |367| 
     655 00000013 E203          MOV32     *+XAR4[AR0],R0H       ; [CPU_FPU] |367| 
         00000014 0094 
     656                      .dwpsn  file "../sources/dual_axis_servo_drive_user.c",line 371,column 5,is_stmt,isa 0
     657 00000015 8D00          MOVL      XAR0,#280             ; [CPU_ALU] |371| 
         00000016 0118 
     658                      .dwpsn  file "../sources/dual_axis_servo_drive_user.c",line 369,column 5,is_stmt,isa 0
     659 00000017 2BC5          MOV       *+XAR5[0],#0          ; [CPU_ALU] |369| 
     660                      .dwpsn  file "../sources/dual_axis_servo_drive_user.c",line 371,column 5,is_stmt,isa 0
     661 00000018 0794          ADDL      ACC,*+XAR4[AR0]       ; [CPU_ALU] |371| 
     662 00000019 83A9          MOVL      XAR5,ACC              ; [CPU_ALU] |371| 
     663                      .dwpsn  file "../sources/dual_axis_servo_drive_user.c",line 360,column 5,is_stmt,isa 0
     664 0000001a 8D40          MOVL      XAR1,#326             ; [CPU_ALU] |360| 
         0000001b 0146 
     665 0000001c 2B9C          MOV       *+XAR4[AR1],#0        ; [CPU_ALU] |360| 
     666                      .dwpsn  file "../sources/dual_axis_servo_drive_user.c",line 372,column 5,is_stmt,isa 0
     667 0000001d 0226          MOVB      ACC,#38               ; [CPU_ALU] |372| 
     668                      .dwpsn  file "../sources/dual_axis_servo_drive_user.c",line 371,column 5,is_stmt,isa 0
     669 0000001e E203          MOV32     *+XAR5[0],R0H         ; [CPU_FPU] |371| 
         0000001f 00C5 
     670                      .dwpsn  file "../sources/dual_axis_servo_drive_user.c",line 372,column 5,is_stmt,isa 0
     671 00000020 0794          ADDL      ACC,*+XAR4[AR0]       ; [CPU_ALU] |372| 
     672 00000021 83A9          MOVL      XAR5,ACC              ; [CPU_ALU] |372| 
     673                      .dwpsn  file "../sources/dual_axis_servo_drive_user.c",line 374,column 5,is_stmt,isa 0
     674 00000022 020E          MOVB      ACC,#14               ; [CPU_ALU] |374| 
     675                      .dwpsn  file "../sources/dual_axis_servo_drive_user.c",line 372,column 5,is_stmt,isa 0
     676 00000023 E203          MOV32     *+XAR5[0],R0H         ; [CPU_FPU] |372| 
         00000024 00C5 
     677                      .dwpsn  file "../sources/dual_axis_servo_drive_user.c",line 374,column 5,is_stmt,isa 0
     678 00000025 0794          ADDL      ACC,*+XAR4[AR0]       ; [CPU_ALU] |374| 
     679 00000026 83A9          MOVL      XAR5,ACC              ; [CPU_ALU] |374| 
     680                      .dwpsn  file "../sources/dual_axis_servo_drive_user.c",line 375,column 5,is_stmt,isa 0
     681 00000027 020A          MOVB      ACC,#10               ; [CPU_ALU] |375| 
     682                      .dwpsn  file "../sources/dual_axis_servo_drive_user.c",line 374,column 5,is_stmt,isa 0
     683 00000028 E203          MOV32     *+XAR5[0],R0H         ; [CPU_FPU] |374| 
         00000029 00C5 
     684                      .dwpsn  file "../sources/dual_axis_servo_drive_user.c",line 375,column 5,is_stmt,isa 0
     685 0000002a 0794          ADDL      ACC,*+XAR4[AR0]       ; [CPU_ALU] |375| 
     686 0000002b 83A9          MOVL      XAR5,ACC              ; [CPU_ALU] |375| 
     687                      .dwpsn  file "../sources/dual_axis_servo_drive_user.c",line 376,column 5,is_stmt,isa 0
     688 0000002c 020C          MOVB      ACC,#12               ; [CPU_ALU] |376| 
     689                      .dwpsn  file "../sources/dual_axis_servo_drive_user.c",line 375,column 5,is_stmt,isa 0
     690 0000002d E203          MOV32     *+XAR5[0],R0H         ; [CPU_FPU] |375| 
         0000002e 00C5 
     691                      .dwpsn  file "../sources/dual_axis_servo_drive_user.c",line 376,column 5,is_stmt,isa 0
TMS320C2000 Assembler PC v22.6.2 Sat Dec 27 15:00:18 2025

Copyright (c) 1996-2018 Texas Instruments Incorporated
dual_axis_servo_drive_user.asm                                       PAGE   16

     692 0000002f 0794          ADDL      ACC,*+XAR4[AR0]       ; [CPU_ALU] |376| 
     693 00000030 83A9          MOVL      XAR5,ACC              ; [CPU_ALU] |376| 
     694                      .dwpsn  file "../sources/dual_axis_servo_drive_user.c",line 378,column 5,is_stmt,isa 0
     695 00000031 0210          MOVB      ACC,#16               ; [CPU_ALU] |378| 
     696                      .dwpsn  file "../sources/dual_axis_servo_drive_user.c",line 376,column 5,is_stmt,isa 0
     697 00000032 E203          MOV32     *+XAR5[0],R0H         ; [CPU_FPU] |376| 
         00000033 00C5 
     698                      .dwpsn  file "../sources/dual_axis_servo_drive_user.c",line 378,column 5,is_stmt,isa 0
     699 00000034 0794          ADDL      ACC,*+XAR4[AR0]       ; [CPU_ALU] |378| 
     700 00000035 8AA9          MOVL      XAR4,ACC              ; [CPU_ALU] |378| 
     701 00000036 E203          MOV32     *+XAR4[0],R0H         ; [CPU_FPU] |378| 
         00000037 00C4 
     702 00000038 8BBE          MOVL      XAR1,*--SP            ; [CPU_ALU] 
     703                      .dwcfi  cfa_offset, -2
     704                      .dwcfi  restore_reg, 7
     705              $C$DW$33        .dwtag  DW_TAG_TI_branch
     706                      .dwattr $C$DW$33, DW_AT_low_pc(0x00)
     707                      .dwattr $C$DW$33, DW_AT_TI_return
     708              
     709 00000039 0006          LRETR     ; [CPU_ALU] 
     710                      ; return occurs ; [] 
     711                      .dwattr $C$DW$30, DW_AT_TI_end_file("../sources/dual_axis_servo_drive_user.c")
     712                      .dwattr $C$DW$30, DW_AT_TI_end_line(0x17d)
     713                      .dwattr $C$DW$30, DW_AT_TI_end_column(0x01)
     714                      .dwendentry
     715                      .dwendtag $C$DW$30
     716              
     717 00000000               .sect   ".text:initMotorParameters"
     718                      .clink
     719                      .global ||initMotorParameters||
     720              
     721              $C$DW$34        .dwtag  DW_TAG_subprogram
     722                      .dwattr $C$DW$34, DW_AT_name("initMotorParameters")
     723                      .dwattr $C$DW$34, DW_AT_low_pc(||initMotorParameters||)
     724                      .dwattr $C$DW$34, DW_AT_high_pc(0x00)
     725                      .dwattr $C$DW$34, DW_AT_linkage_name("initMotorParameters")
     726                      .dwattr $C$DW$34, DW_AT_external
     727                      .dwattr $C$DW$34, DW_AT_decl_file("../sources/dual_axis_servo_drive_user.c")
     728                      .dwattr $C$DW$34, DW_AT_decl_line(0x43)
     729                      .dwattr $C$DW$34, DW_AT_decl_column(0x06)
     730                      .dwattr $C$DW$34, DW_AT_TI_max_frame_size(-18)
     731                      .dwpsn  file "../sources/dual_axis_servo_drive_user.c",line 68,column 1,is_stmt,address ||initMotorPa
     732              
     733                      .dwfde $C$DW$CIE, ||initMotorParameters||
     734              $C$DW$35        .dwtag  DW_TAG_formal_parameter
     735                      .dwattr $C$DW$35, DW_AT_name("pMotor")
     736                      .dwattr $C$DW$35, DW_AT_type(*$C$DW$T$116)
     737                      .dwattr $C$DW$35, DW_AT_location[DW_OP_reg12]
     738              
     739              $C$DW$36        .dwtag  DW_TAG_formal_parameter
     740                      .dwattr $C$DW$36, DW_AT_name("mtrHandle")
     741                      .dwattr $C$DW$36, DW_AT_type(*$C$DW$T$111)
     742                      .dwattr $C$DW$36, DW_AT_location[DW_OP_reg14]
     743              
     744              
TMS320C2000 Assembler PC v22.6.2 Sat Dec 27 15:00:18 2025

Copyright (c) 1996-2018 Texas Instruments Incorporated
dual_axis_servo_drive_user.asm                                       PAGE   17

     745              ;***************************************************************
     746              ;* FNAME: initMotorParameters           FR SIZE:  16           *
     747              ;*                                                             *
     748              ;* FUNCTION ENVIRONMENT                                        *
     749              ;*                                                             *
     750              ;* FUNCTION PROPERTIES                                         *
     751              ;*                            9 Parameter,  0 Auto,  6 SOE     *
     752              ;***************************************************************
     753              
     754              ||initMotorParameters||:
     755              ;* AR4   assigned to $O$C7
     756              ;* AR4   assigned to $O$C8
     757              ;* AL    assigned to $O$K3
     758              ;* AR2   assigned to pMotor
     759              $C$DW$37        .dwtag  DW_TAG_variable
     760                      .dwattr $C$DW$37, DW_AT_name("pMotor")
     761                      .dwattr $C$DW$37, DW_AT_type(*$C$DW$T$117)
     762                      .dwattr $C$DW$37, DW_AT_location[DW_OP_reg8]
     763              
     764              ;* AR3   assigned to mtrHandle
     765              $C$DW$38        .dwtag  DW_TAG_variable
     766                      .dwattr $C$DW$38, DW_AT_name("mtrHandle")
     767                      .dwattr $C$DW$38, DW_AT_type(*$C$DW$T$112)
     768                      .dwattr $C$DW$38, DW_AT_location[DW_OP_reg10]
     769              
     770                      .dwcfi  cfa_offset, -2
     771                      .dwcfi  save_reg_to_mem, 26, 0
     772 00000000 B2BD          MOVL      *SP++,XAR1            ; [CPU_ALU] 
     773                      .dwcfi  save_reg_to_mem, 7, 2
     774                      .dwcfi  cfa_offset, -4
     775 00000001 AABD          MOVL      *SP++,XAR2            ; [CPU_ALU] 
     776                      .dwcfi  save_reg_to_mem, 9, 4
     777                      .dwcfi  cfa_offset, -6
     778 00000002 A2BD          MOVL      *SP++,XAR3            ; [CPU_ALU] 
     779                      .dwcfi  save_reg_to_mem, 11, 6
     780                      .dwcfi  cfa_offset, -8
     781 00000003 FE0A          ADDB      SP,#10                ; [CPU_ARAU] 
     782                      .dwcfi  cfa_offset, -18
     783 00000004 86A4          MOVL      XAR2,XAR4             ; [CPU_ALU] |68| 
     784                      .dwpsn  file "../sources/dual_axis_servo_drive_user.c",line 71,column 5,is_stmt,isa 0
     785 00000005 8F00!         MOVL      XAR4,#||motorVars||   ; [CPU_ARAU] |71| 
         00000006 0000 
     786                      .dwpsn  file "../sources/dual_axis_servo_drive_user.c",line 68,column 1,is_stmt,isa 0
     787 00000007 82A5          MOVL      XAR3,XAR5             ; [CPU_ALU] |68| 
     788                      .dwpsn  file "../sources/dual_axis_servo_drive_user.c",line 71,column 5,is_stmt,isa 0
     789 00000008 A8A9          MOVL      ACC,XAR4              ; [CPU_ALU] |71| 
     790 00000009 0FA2          CMPL      ACC,XAR2              ; [CPU_ALU] |71| 
     791 0000000a FFE1          B         ||$C$L9||,EQ          ; [CPU_ALU] |71| 
         0000000b 0137 
     792                      ; branchcc occurs ; [] |71| 
     793                      .dwpsn  file "../sources/dual_axis_servo_drive_user.c",line 163,column 10,is_stmt,isa 0
     794 0000000c FF12          ADD       ACC,#83 << 2          ; [CPU_ALU] |163| 
         0000000d 0053 
     795 0000000e 0FA2          CMPL      ACC,XAR2              ; [CPU_ALU] |163| 
     796 0000000f FFE0          B         ||$C$L11||,NEQ        ; [CPU_ALU] |163| 
TMS320C2000 Assembler PC v22.6.2 Sat Dec 27 15:00:18 2025

Copyright (c) 1996-2018 Texas Instruments Incorporated
dual_axis_servo_drive_user.asm                                       PAGE   18

         00000010 0260 
     797                      ; branchcc occurs ; [] |163| 
     798                      .dwpsn  file "../sources/dual_axis_servo_drive_user.c",line 165,column 9,is_stmt,isa 0
     799 00000011 8D00          MOVL      XAR0,#280             ; [CPU_ALU] |165| 
         00000012 0118 
     800 00000013 8F00!         MOVL      XAR4,#||fclVars||+82  ; [CPU_ARAU] |165| 
         00000014 0052 
     801                      .dwpsn  file "../sources/dual_axis_servo_drive_user.c",line 175,column 9,is_stmt,isa 0
     802 00000015 E802          MOVIZ     R0H,#19737            ; [CPU_FPU] |175| 
         00000016 68C8 
     803                      .dwpsn  file "../sources/dual_axis_servo_drive_user.c",line 185,column 9,is_stmt,isa 0
     804 00000017 E801          MOVIZ     R3H,#16349            ; [CPU_FPU] |185| 
         00000018 FEEB 
     805                      .dwpsn  file "../sources/dual_axis_servo_drive_user.c",line 165,column 9,is_stmt,isa 0
     806 00000019 A892          MOVL      *+XAR2[AR0],XAR4      ; [CPU_ALU] |165| 
     807                      .dwpsn  file "../sources/dual_axis_servo_drive_user.c",line 175,column 9,is_stmt,isa 0
     808 0000001a E809          MOVXI     R0H,#8192             ; [CPU_FPU] |175| 
         0000001b 0000 
     809 0000001c D0FA          MOVB      XAR0,#250             ; [CPU_ALU] |175| 
     810                      .dwpsn  file "../sources/dual_axis_servo_drive_user.c",line 194,column 9,is_stmt,isa 0
     811 0000001d E802          MOVIZ     R2H,#16728            ; [CPU_FPU] |194| 
         0000001e 0AC2 
     812                      .dwpsn  file "../sources/dual_axis_servo_drive_user.c",line 185,column 9,is_stmt,isa 0
     813 0000001f E80D          MOVXI     R3H,#46039            ; [CPU_FPU] |185| 
         00000020 9EBB 
     814                      .dwpsn  file "../sources/dual_axis_servo_drive_user.c",line 175,column 9,is_stmt,isa 0
     815 00000021 E203          MOV32     *+XAR2[AR0],R0H       ; [CPU_FPU] |175| 
         00000022 0092 
     816                      .dwpsn  file "../sources/dual_axis_servo_drive_user.c",line 185,column 9,is_stmt,isa 0
     817 00000023 D0FA          MOVB      XAR0,#250             ; [CPU_ALU] |185| 
     818 00000024 E2AF          MOV32     R1H,*+XAR2[AR0]       ; [CPU_FPU] |185| 
         00000025 0192 
     819 00000026 E700          MPYF32    R0H,R3H,R1H           ; [CPU_FPU] |185| 
         00000027 0058 
     820 00000028 D0FE          MOVB      XAR0,#254             ; [CPU_ALU] |185| 
     821 00000029 E203          MOV32     *+XAR2[AR0],R0H       ; [CPU_FPU] |185| 
         0000002a 0092 
     822                      .dwpsn  file "../sources/dual_axis_servo_drive_user.c",line 169,column 9,is_stmt,isa 0
     823 0000002b E802          MOVIZ     R3H,#16912            ; [CPU_FPU] |169| 
         0000002c 1083 
     824                      .dwpsn  file "../sources/dual_axis_servo_drive_user.c",line 194,column 9,is_stmt,isa 0
     825 0000002d 8D00          MOVL      XAR0,#268             ; [CPU_ALU] |194| 
         0000002e 010C 
     826                      .dwpsn  file "../sources/dual_axis_servo_drive_user.c",line 170,column 9,is_stmt,isa 0
     827 0000002f E802          MOVIZ     R1H,#16544            ; [CPU_FPU] |170| 
         00000030 0501 
     828                      .dwpsn  file "../sources/dual_axis_servo_drive_user.c",line 194,column 9,is_stmt,isa 0
     829 00000031 E203          MOV32     *+XAR2[AR0],R2H       ; [CPU_FPU] |194| 
         00000032 0292 
     830                      .dwpsn  file "../sources/dual_axis_servo_drive_user.c",line 200,column 9,is_stmt,isa 0
     831 00000033 0242          MOVB      ACC,#66               ; [CPU_ALU] |200| 
     832                      .dwpsn  file "../sources/dual_axis_servo_drive_user.c",line 169,column 9,is_stmt,isa 0
     833 00000034 D00E          MOVB      XAR0,#14              ; [CPU_ALU] |169| 
     834 00000035 E203          MOV32     *+XAR2[AR0],R3H       ; [CPU_FPU] |169| 
         00000036 0392 
TMS320C2000 Assembler PC v22.6.2 Sat Dec 27 15:00:18 2025

Copyright (c) 1996-2018 Texas Instruments Incorporated
dual_axis_servo_drive_user.asm                                       PAGE   19

     835                      .dwpsn  file "../sources/dual_axis_servo_drive_user.c",line 183,column 9,is_stmt,isa 0
     836 00000037 E805          MOVIZ     R2H,#47616            ; [CPU_FPU] |183| 
         00000038 D002 
     837                      .dwpsn  file "../sources/dual_axis_servo_drive_user.c",line 170,column 9,is_stmt,isa 0
     838 00000039 D010          MOVB      XAR0,#16              ; [CPU_ALU] |170| 
     839                      .dwpsn  file "../sources/dual_axis_servo_drive_user.c",line 188,column 9,is_stmt,isa 0
     840 0000003a E801          MOVIZ     R3H,#14545            ; [CPU_FPU] |188| 
         0000003b C68B 
     841                      .dwpsn  file "../sources/dual_axis_servo_drive_user.c",line 170,column 9,is_stmt,isa 0
     842 0000003c E203          MOV32     *+XAR2[AR0],R1H       ; [CPU_FPU] |170| 
         0000003d 0192 
     843                      .dwpsn  file "../sources/dual_axis_servo_drive_user.c",line 183,column 9,is_stmt,isa 0
     844 0000003e D0FC          MOVB      XAR0,#252             ; [CPU_ALU] |183| 
     845                      .dwpsn  file "../sources/dual_axis_servo_drive_user.c",line 189,column 9,is_stmt,isa 0
     846 0000003f E801          MOVIZ     R1H,#16067            ; [CPU_FPU] |189| 
         00000040 F619 
     847                      .dwpsn  file "../sources/dual_axis_servo_drive_user.c",line 188,column 9,is_stmt,isa 0
     848 00000041 E80D          MOVXI     R3H,#46871            ; [CPU_FPU] |188| 
         00000042 B8BB 
     849                      .dwpsn  file "../sources/dual_axis_servo_drive_user.c",line 183,column 9,is_stmt,isa 0
     850 00000043 E203          MOV32     *+XAR2[AR0],R2H       ; [CPU_FPU] |183| 
         00000044 0292 
     851                      .dwpsn  file "../sources/dual_axis_servo_drive_user.c",line 188,column 9,is_stmt,isa 0
     852 00000045 8D00          MOVL      XAR0,#256             ; [CPU_ALU] |188| 
         00000046 0100 
     853                      .dwpsn  file "../sources/dual_axis_servo_drive_user.c",line 189,column 9,is_stmt,isa 0
     854 00000047 E809          MOVXI     R1H,#15953            ; [CPU_FPU] |189| 
         00000048 F289 
     855                      .dwpsn  file "../sources/dual_axis_servo_drive_user.c",line 190,column 9,is_stmt,isa 0
     856 00000049 E801          MOVIZ     R2H,#16067            ; [CPU_FPU] |190| 
         0000004a F61A 
     857                      .dwpsn  file "../sources/dual_axis_servo_drive_user.c",line 188,column 9,is_stmt,isa 0
     858 0000004b E203          MOV32     *+XAR2[AR0],R3H       ; [CPU_FPU] |188| 
         0000004c 0392 
     859                      .dwpsn  file "../sources/dual_axis_servo_drive_user.c",line 189,column 9,is_stmt,isa 0
     860 0000004d 8D00          MOVL      XAR0,#258             ; [CPU_ALU] |189| 
         0000004e 0102 
     861                      .dwpsn  file "../sources/dual_axis_servo_drive_user.c",line 191,column 9,is_stmt,isa 0
     862 0000004f E801          MOVIZ     R3H,#14642            ; [CPU_FPU] |191| 
         00000050 C993 
     863                      .dwpsn  file "../sources/dual_axis_servo_drive_user.c",line 190,column 9,is_stmt,isa 0
     864 00000051 E809          MOVXI     R2H,#15953            ; [CPU_FPU] |190| 
         00000052 F28A 
     865                      .dwpsn  file "../sources/dual_axis_servo_drive_user.c",line 189,column 9,is_stmt,isa 0
     866 00000053 E203          MOV32     *+XAR2[AR0],R1H       ; [CPU_FPU] |189| 
         00000054 0192 
     867                      .dwpsn  file "../sources/dual_axis_servo_drive_user.c",line 190,column 9,is_stmt,isa 0
     868 00000055 8D00          MOVL      XAR0,#260             ; [CPU_ALU] |190| 
         00000056 0104 
     869                      .dwpsn  file "../sources/dual_axis_servo_drive_user.c",line 191,column 9,is_stmt,isa 0
     870 00000057 E808          MOVXI     R3H,#2594             ; [CPU_FPU] |191| 
         00000058 5113 
     871                      .dwpsn  file "../sources/dual_axis_servo_drive_user.c",line 192,column 9,is_stmt,isa 0
     872 00000059 E801          MOVIZ     R1H,#14642            ; [CPU_FPU] |192| 
         0000005a C991 
TMS320C2000 Assembler PC v22.6.2 Sat Dec 27 15:00:18 2025

Copyright (c) 1996-2018 Texas Instruments Incorporated
dual_axis_servo_drive_user.asm                                       PAGE   20

     873                      .dwpsn  file "../sources/dual_axis_servo_drive_user.c",line 190,column 9,is_stmt,isa 0
     874 0000005b E203          MOV32     *+XAR2[AR0],R2H       ; [CPU_FPU] |190| 
         0000005c 0292 
     875                      .dwpsn  file "../sources/dual_axis_servo_drive_user.c",line 191,column 9,is_stmt,isa 0
     876 0000005d 8D00          MOVL      XAR0,#262             ; [CPU_ALU] |191| 
         0000005e 0106 
     877                      .dwpsn  file "../sources/dual_axis_servo_drive_user.c",line 193,column 9,is_stmt,isa 0
     878 0000005f E801          MOVIZ     R2H,#16204            ; [CPU_FPU] |193| 
         00000060 FA62 
     879                      .dwpsn  file "../sources/dual_axis_servo_drive_user.c",line 192,column 9,is_stmt,isa 0
     880 00000061 E808          MOVXI     R1H,#2594             ; [CPU_FPU] |192| 
         00000062 5111 
     881                      .dwpsn  file "../sources/dual_axis_servo_drive_user.c",line 191,column 9,is_stmt,isa 0
     882 00000063 E203          MOV32     *+XAR2[AR0],R3H       ; [CPU_FPU] |191| 
         00000064 0392 
     883                      .dwpsn  file "../sources/dual_axis_servo_drive_user.c",line 192,column 9,is_stmt,isa 0
     884 00000065 8D00          MOVL      XAR0,#264             ; [CPU_ALU] |192| 
         00000066 0108 
     885                      .dwpsn  file "../sources/dual_axis_servo_drive_user.c",line 193,column 9,is_stmt,isa 0
     886 00000067 E80E          MOVXI     R2H,#52429            ; [CPU_FPU] |193| 
         00000068 666A 
     887                      .dwpsn  file "../sources/dual_axis_servo_drive_user.c",line 195,column 9,is_stmt,isa 0
     888 00000069 E802          MOVIZ     R3H,#17604            ; [CPU_FPU] |195| 
         0000006a 2623 
     889                      .dwpsn  file "../sources/dual_axis_servo_drive_user.c",line 192,column 9,is_stmt,isa 0
     890 0000006b E203          MOV32     *+XAR2[AR0],R1H       ; [CPU_FPU] |192| 
         0000006c 0192 
     891                      .dwpsn  file "../sources/dual_axis_servo_drive_user.c",line 193,column 9,is_stmt,isa 0
     892 0000006d 8D00          MOVL      XAR0,#276             ; [CPU_ALU] |193| 
         0000006e 0114 
     893                      .dwpsn  file "../sources/dual_axis_servo_drive_user.c",line 196,column 9,is_stmt,isa 0
     894 0000006f E802          MOVIZ     R1H,#17437            ; [CPU_FPU] |196| 
         00000070 20E9 
     895                      .dwpsn  file "../sources/dual_axis_servo_drive_user.c",line 195,column 9,is_stmt,isa 0
     896 00000071 E80A          MOVXI     R3H,#22908            ; [CPU_FPU] |195| 
         00000072 CBE3 
     897                      .dwpsn  file "../sources/dual_axis_servo_drive_user.c",line 193,column 9,is_stmt,isa 0
     898 00000073 E203          MOV32     *+XAR2[AR0],R2H       ; [CPU_FPU] |193| 
         00000074 0292 
     899                      .dwpsn  file "../sources/dual_axis_servo_drive_user.c",line 195,column 9,is_stmt,isa 0
     900 00000075 8D00          MOVL      XAR0,#278             ; [CPU_ALU] |195| 
         00000076 0116 
     901                      .dwpsn  file "../sources/dual_axis_servo_drive_user.c",line 196,column 9,is_stmt,isa 0
     902 00000077 E808          MOVXI     R1H,#5219             ; [CPU_FPU] |196| 
         00000078 A319 
     903                      .dwpsn  file "../sources/dual_axis_servo_drive_user.c",line 197,column 9,is_stmt,isa 0
     904 00000079 E802          MOVIZ     R2H,#17437            ; [CPU_FPU] |197| 
         0000007a 20EA 
     905                      .dwpsn  file "../sources/dual_axis_servo_drive_user.c",line 195,column 9,is_stmt,isa 0
     906 0000007b E203          MOV32     *+XAR2[AR0],R3H       ; [CPU_FPU] |195| 
         0000007c 0392 
     907                      .dwpsn  file "../sources/dual_axis_servo_drive_user.c",line 196,column 9,is_stmt,isa 0
     908 0000007d 8D00          MOVL      XAR0,#270             ; [CPU_ALU] |196| 
         0000007e 010E 
     909                      .dwpsn  file "../sources/dual_axis_servo_drive_user.c",line 167,column 9,is_stmt,isa 0
TMS320C2000 Assembler PC v22.6.2 Sat Dec 27 15:00:18 2025

Copyright (c) 1996-2018 Texas Instruments Incorporated
dual_axis_servo_drive_user.asm                                       PAGE   21

     910 0000007f E801          MOVIZ     R3H,#14545            ; [CPU_FPU] |167| 
         00000080 C68B 
     911                      .dwpsn  file "../sources/dual_axis_servo_drive_user.c",line 197,column 9,is_stmt,isa 0
     912 00000081 E808          MOVXI     R2H,#5219             ; [CPU_FPU] |197| 
         00000082 A31A 
     913                      .dwpsn  file "../sources/dual_axis_servo_drive_user.c",line 196,column 9,is_stmt,isa 0
     914 00000083 E203          MOV32     *+XAR2[AR0],R1H       ; [CPU_FPU] |196| 
         00000084 0192 
     915                      .dwpsn  file "../sources/dual_axis_servo_drive_user.c",line 197,column 9,is_stmt,isa 0
     916 00000085 8D00          MOVL      XAR0,#272             ; [CPU_ALU] |197| 
         00000086 0110 
     917                      .dwpsn  file "../sources/dual_axis_servo_drive_user.c",line 167,column 9,is_stmt,isa 0
     918 00000087 E80D          MOVXI     R3H,#46871            ; [CPU_FPU] |167| 
         00000088 B8BB 
     919                      .dwpsn  file "../sources/dual_axis_servo_drive_user.c",line 173,column 9,is_stmt,isa 0
     920 00000089 E801          MOVIZ     R1H,#16250            ; [CPU_FPU] |173| 
         0000008a FBD1 
     921                      .dwpsn  file "../sources/dual_axis_servo_drive_user.c",line 197,column 9,is_stmt,isa 0
     922 0000008b E203          MOV32     *+XAR2[AR0],R2H       ; [CPU_FPU] |197| 
         0000008c 0292 
     923                      .dwpsn  file "../sources/dual_axis_servo_drive_user.c",line 167,column 9,is_stmt,isa 0
     924 0000008d D00A          MOVB      XAR0,#10              ; [CPU_ALU] |167| 
     925                      .dwpsn  file "../sources/dual_axis_servo_drive_user.c",line 173,column 9,is_stmt,isa 0
     926 0000008e E80F          MOVXI     R1H,#57672            ; [CPU_FPU] |173| 
         0000008f 0A41 
     927                      .dwpsn  file "../sources/dual_axis_servo_drive_user.c",line 167,column 9,is_stmt,isa 0
     928 00000090 E203          MOV32     *+XAR2[AR0],R3H       ; [CPU_FPU] |167| 
         00000091 0392 
     929                      .dwpsn  file "../sources/dual_axis_servo_drive_user.c",line 173,column 9,is_stmt,isa 0
     930 00000092 D00C          MOVB      XAR0,#12              ; [CPU_ALU] |173| 
     931 00000093 E203          MOV32     *+XAR2[AR0],R1H       ; [CPU_FPU] |173| 
         00000094 0192 
     932                      .dwpsn  file "../sources/dual_axis_servo_drive_user.c",line 200,column 9,is_stmt,isa 0
     933 00000095 8D00          MOVL      XAR0,#280             ; [CPU_ALU] |200| 
         00000096 0118 
     934 00000097 0792          ADDL      ACC,*+XAR2[AR0]       ; [CPU_ALU] |200| 
     935 00000098 8AA9          MOVL      XAR4,ACC              ; [CPU_ALU] |200| 
     936                      .dwpsn  file "../sources/dual_axis_servo_drive_user.c",line 201,column 9,is_stmt,isa 0
     937 00000099 8D40          MOVL      XAR1,#280             ; [CPU_ALU] |201| 
         0000009a 0118 
     938                      .dwpsn  file "../sources/dual_axis_servo_drive_user.c",line 200,column 9,is_stmt,isa 0
     939 0000009b 28C4          MOV       *+XAR4[0],#1000       ; [CPU_ALU] |200| 
         0000009c 03E8 
     940                      .dwpsn  file "../sources/dual_axis_servo_drive_user.c",line 201,column 9,is_stmt,isa 0
     941 0000009d 8A9A          MOVL      XAR4,*+XAR2[AR1]      ; [CPU_ALU] |201| 
     942 0000009e D042          MOVB      XAR0,#66              ; [CPU_ALU] |201| 
     943 0000009f E2C4          UI16TOF32 R0H,*+XAR4[AR0]       ; [CPU_FPU] |201| 
         000000a0 0094 
     944 000000a1 7700          NOP       ; [CPU_ALU] 
     945 000000a2 E801          MOVIZ     R2H,#16000            ; [CPU_FPU] |201| 
         000000a3 F402 
     946 000000a4 E274          DIVF32    R0H,R2H,R0H           ; [CPU_FPU] |201| 
         000000a5 0010 
     947 000000a6 7700          NOP       ; [CPU_ALU] 
     948 000000a7 7700          NOP       ; [CPU_ALU] 
TMS320C2000 Assembler PC v22.6.2 Sat Dec 27 15:00:18 2025

Copyright (c) 1996-2018 Texas Instruments Incorporated
dual_axis_servo_drive_user.asm                                       PAGE   22

     949                      .dwpsn  file "../sources/dual_axis_servo_drive_user.c",line 204,column 9,is_stmt,isa 0
     950 000000a8 0243          MOVB      ACC,#67               ; [CPU_ALU] |204| 
     951                      .dwpsn  file "../sources/dual_axis_servo_drive_user.c",line 201,column 9,is_stmt,isa 0
     952 000000a9 D040          MOVB      XAR0,#64              ; [CPU_ALU] |201| 
     953 000000aa E203          MOV32     *+XAR4[AR0],R0H       ; [CPU_FPU] |201| 
         000000ab 0094 
     954                      .dwpsn  file "../sources/dual_axis_servo_drive_user.c",line 204,column 9,is_stmt,isa 0
     955 000000ac 8D00          MOVL      XAR0,#280             ; [CPU_ALU] |204| 
         000000ad 0118 
     956 000000ae 0792          ADDL      ACC,*+XAR2[AR0]       ; [CPU_ALU] |204| 
     957 000000af 8AA9          MOVL      XAR4,ACC              ; [CPU_ALU] |204| 
     958                      .dwpsn  file "../sources/dual_axis_servo_drive_user.c",line 224,column 9,is_stmt,isa 0
     959 000000b0 E802          MOVIZ     R2H,#16672            ; [CPU_FPU] |224| 
         000000b1 0902 
     960                      .dwpsn  file "../sources/dual_axis_servo_drive_user.c",line 205,column 9,is_stmt,isa 0
     961 000000b2 0244          MOVB      ACC,#68               ; [CPU_ALU] |205| 
     962                      .dwpsn  file "../sources/dual_axis_servo_drive_user.c",line 204,column 9,is_stmt,isa 0
     963 000000b3 56BF          MOVB      *+XAR4[0],#4,UNC      ; [CPU_ALU] |204| 
         000000b4 04C4 
     964                      .dwpsn  file "../sources/dual_axis_servo_drive_user.c",line 205,column 9,is_stmt,isa 0
     965 000000b5 0792          ADDL      ACC,*+XAR2[AR0]       ; [CPU_ALU] |205| 
     966                      .dwpsn  file "../sources/dual_axis_servo_drive_user.c",line 213,column 9,is_stmt,isa 0
     967 000000b6 D098          MOVB      XAR0,#152             ; [CPU_ALU] |213| 
     968                      .dwpsn  file "../sources/dual_axis_servo_drive_user.c",line 205,column 9,is_stmt,isa 0
     969 000000b7 8AA9          MOVL      XAR4,ACC              ; [CPU_ALU] |205| 
     970                      .dwpsn  file "../sources/dual_axis_servo_drive_user.c",line 223,column 9,is_stmt,isa 0
     971 000000b8 E802          MOVIZ     R1H,#16968            ; [CPU_FPU] |223| 
         000000b9 1241 
     972                      .dwpsn  file "../sources/dual_axis_servo_drive_user.c",line 222,column 9,is_stmt,isa 0
     973 000000ba E802          MOVIZ     R3H,#16672            ; [CPU_FPU] |222| 
         000000bb 0903 
     974                      .dwpsn  file "../sources/dual_axis_servo_drive_user.c",line 205,column 9,is_stmt,isa 0
     975 000000bc BE00          MOVB      XAR6,#0               ; [CPU_ALU] |205| 
     976 000000bd C2C4          MOVL      *+XAR4[0],XAR6        ; [CPU_ALU] |205| 
     977                      .dwpsn  file "../sources/dual_axis_servo_drive_user.c",line 213,column 9,is_stmt,isa 0
     978 000000be 8F00          MOVL      XAR4,#3720            ; [CPU_ARAU] |213| 
         000000bf 0E88 
     979 000000c0 A892          MOVL      *+XAR2[AR0],XAR4      ; [CPU_ALU] |213| 
     980                      .dwpsn  file "../sources/dual_axis_servo_drive_user.c",line 222,column 9,is_stmt,isa 0
     981 000000c1 8D00          MOVL      XAR0,#300             ; [CPU_ALU] |222| 
         000000c2 012C 
     982 000000c3 E203          MOV32     *+XAR2[AR0],R3H       ; [CPU_FPU] |222| 
         000000c4 0392 
     983                      .dwpsn  file "../sources/dual_axis_servo_drive_user.c",line 223,column 9,is_stmt,isa 0
     984 000000c5 8D00          MOVL      XAR0,#302             ; [CPU_ALU] |223| 
         000000c6 012E 
     985                      .dwpsn  file "../sources/dual_axis_servo_drive_user.c",line 216,column 9,is_stmt,isa 0
     986 000000c7 E801          MOVIZ     R3H,#15320            ; [CPU_FPU] |216| 
         000000c8 DEC3 
     987                      .dwpsn  file "../sources/dual_axis_servo_drive_user.c",line 223,column 9,is_stmt,isa 0
     988 000000c9 E203          MOV32     *+XAR2[AR0],R1H       ; [CPU_FPU] |223| 
         000000ca 0192 
     989                      .dwpsn  file "../sources/dual_axis_servo_drive_user.c",line 224,column 9,is_stmt,isa 0
     990 000000cb 8D00          MOVL      XAR0,#304             ; [CPU_ALU] |224| 
         000000cc 0130 
TMS320C2000 Assembler PC v22.6.2 Sat Dec 27 15:00:18 2025

Copyright (c) 1996-2018 Texas Instruments Incorporated
dual_axis_servo_drive_user.asm                                       PAGE   23

     991                      .dwpsn  file "../sources/dual_axis_servo_drive_user.c",line 217,column 9,is_stmt,isa 0
     992 000000cd E801          MOVIZ     R1H,#15508            ; [CPU_FPU] |217| 
         000000ce E4A1 
     993 000000cf E809          MOVXI     R1H,#13107            ; [CPU_FPU] |217| 
         000000d0 9999 
     994                      .dwpsn  file "../sources/dual_axis_servo_drive_user.c",line 224,column 9,is_stmt,isa 0
     995 000000d1 E203          MOV32     *+XAR2[AR0],R2H       ; [CPU_FPU] |224| 
         000000d2 0292 
     996                      .dwpsn  file "../sources/dual_axis_servo_drive_user.c",line 216,column 9,is_stmt,isa 0
     997 000000d3 D02E          MOVB      XAR0,#46              ; [CPU_ALU] |216| 
     998                      .dwpsn  file "../sources/dual_axis_servo_drive_user.c",line 218,column 9,is_stmt,isa 0
     999 000000d4 E801          MOVIZ     R2H,#14720            ; [CPU_FPU] |218| 
         000000d5 CC02 
    1000                      .dwpsn  file "../sources/dual_axis_servo_drive_user.c",line 216,column 9,is_stmt,isa 0
    1001 000000d6 E203          MOV32     *+XAR2[AR0],R3H       ; [CPU_FPU] |216| 
         000000d7 0392 
    1002                      .dwpsn  file "../sources/dual_axis_servo_drive_user.c",line 217,column 9,is_stmt,isa 0
    1003 000000d8 D030          MOVB      XAR0,#48              ; [CPU_ALU] |217| 
    1004 000000d9 E203          MOV32     *+XAR2[AR0],R1H       ; [CPU_FPU] |217| 
         000000da 0192 
    1005                      .dwpsn  file "../sources/dual_axis_servo_drive_user.c",line 218,column 9,is_stmt,isa 0
    1006 000000db D032          MOVB      XAR0,#50              ; [CPU_ALU] |218| 
    1007 000000dc E203          MOV32     *+XAR2[AR0],R2H       ; [CPU_FPU] |218| 
         000000dd 0292 
    1008                      .dwpsn  file "../sources/dual_axis_servo_drive_user.c",line 208,column 9,is_stmt,isa 0
    1009 000000de D00A          MOVB      XAR0,#10              ; [CPU_ALU] |208| 
    1010 000000df E2AF          MOV32     R0H,*+XAR2[AR0]       ; [CPU_FPU] |208| 
         000000e0 0092 
    1011 000000e1 E850          MPYF32    R0H,R0H,#17274        ; [CPU_FPU] |208| 
         000000e2 DE80 
    1012 000000e3 7700          NOP       ; [CPU_ALU] 
    1013 000000e4 E801          MOVIZ     R3H,#16256            ; [CPU_FPU] |208| 
         000000e5 FC03 
    1014 000000e6 E274          DIVF32    R0H,R3H,R0H           ; [CPU_FPU] |208| 
         000000e7 0018 
    1015 000000e8 7700          NOP       ; [CPU_ALU] 
    1016                      .dwpsn  file "../sources/dual_axis_servo_drive_user.c",line 211,column 9,is_stmt,isa 0
    1017 000000e9 E802          MOVIZ     R2H,#16585            ; [CPU_FPU] |211| 
         000000ea 064A 
    1018 000000eb E808          MOVXI     R2H,#4059             ; [CPU_FPU] |211| 
         000000ec 7EDA 
    1019                      .dwpsn  file "../sources/dual_axis_servo_drive_user.c",line 208,column 9,is_stmt,isa 0
    1020 000000ed D09A          MOVB      XAR0,#154             ; [CPU_ALU] |208| 
    1021 000000ee E203          MOV32     *+XAR2[AR0],R0H       ; [CPU_FPU] |208| 
         000000ef 0092 
    1022                      .dwpsn  file "../sources/dual_axis_servo_drive_user.c",line 211,column 9,is_stmt,isa 0
    1023 000000f0 D00A          MOVB      XAR0,#10              ; [CPU_ALU] |211| 
    1024 000000f1 E2AF          MOV32     R1H,*+XAR2[AR0]       ; [CPU_FPU] |211| 
         000000f2 0192 
    1025 000000f3 E700          MPYF32    R0H,R2H,R1H           ; [CPU_FPU] |211| 
         000000f4 0050 
    1026                      .dwpsn  file "../sources/dual_axis_servo_drive_user.c",line 246,column 9,is_stmt,isa 0
    1027 000000f5 8F40          MOVL      XAR5,#2816            ; [CPU_ARAU] |246| 
         000000f6 0B00 
    1028                      .dwpsn  file "../sources/dual_axis_servo_drive_user.c",line 211,column 9,is_stmt,isa 0
TMS320C2000 Assembler PC v22.6.2 Sat Dec 27 15:00:18 2025

Copyright (c) 1996-2018 Texas Instruments Incorporated
dual_axis_servo_drive_user.asm                                       PAGE   24

    1029 000000f7 E850          MPYF32    R0H,R0H,#16544        ; [CPU_FPU] |211| 
         000000f8 2800 
    1030                      .dwpsn  file "../sources/dual_axis_servo_drive_user.c",line 246,column 9,is_stmt,isa 0
    1031 000000f9 FF20          MOV       ACC,#29696            ; [CPU_ALU] |246| 
         000000fa 7400 
    1032                      .dwpsn  file "../sources/dual_axis_servo_drive_user.c",line 211,column 9,is_stmt,isa 0
    1033 000000fb E88F          ADDF32    R0H,R0H,#16256        ; [CPU_FPU] |211| 
         000000fc E000 
    1034                      .dwpsn  file "../sources/dual_axis_servo_drive_user.c",line 246,column 9,is_stmt,isa 0
    1035 000000fd 7680          MOVL      XAR6,#2848            ; [CPU_ARAU] |246| 
         000000fe 0B20 
    1036                      .dwpsn  file "../sources/dual_axis_servo_drive_user.c",line 211,column 9,is_stmt,isa 0
    1037 000000ff E801          MOVIZ     R1H,#16256            ; [CPU_FPU] |211| 
         00000100 FC01 
    1038 00000101 E274          DIVF32    R0H,R1H,R0H           ; [CPU_FPU] |211| 
         00000102 0008 
    1039                      .dwpsn  file "../sources/dual_axis_servo_drive_user.c",line 246,column 9,is_stmt,isa 0
    1040 00000103 8F00          MOVL      XAR4,#2880            ; [CPU_ARAU] |246| 
         00000104 0B40 
    1041                      .dwpsn  file "../sources/dual_axis_servo_drive_user.c",line 219,column 9,is_stmt,isa 0
    1042 00000105 E802          MOVIZ     R3H,#17175            ; [CPU_FPU] |219| 
         00000106 18BB 
    1043 00000107 E80D          MOVXI     R3H,#46118            ; [CPU_FPU] |219| 
         00000108 A133 
    1044                      .dwpsn  file "../sources/dual_axis_servo_drive_user.c",line 211,column 9,is_stmt,isa 0
    1045 00000109 D09C          MOVB      XAR0,#156             ; [CPU_ALU] |211| 
    1046 0000010a E203          MOV32     *+XAR2[AR0],R0H       ; [CPU_FPU] |211| 
         0000010b 0092 
    1047                      .dwpsn  file "../sources/dual_axis_servo_drive_user.c",line 212,column 9,is_stmt,isa 0
    1048 0000010c D09C          MOVB      XAR0,#156             ; [CPU_ALU] |212| 
    1049 0000010d E2AF          MOV32     R0H,*+XAR2[AR0]       ; [CPU_FPU] |212| 
         0000010e 0092 
    1050 0000010f E8CF          SUBF32    R0H,#16256,R0H        ; [CPU_FPU] |212| 
         00000110 E000 
    1051 00000111 D09E          MOVB      XAR0,#158             ; [CPU_ALU] |212| 
    1052 00000112 E203          MOV32     *+XAR2[AR0],R0H       ; [CPU_FPU] |212| 
         00000113 0092 
    1053                      .dwpsn  file "../sources/dual_axis_servo_drive_user.c",line 226,column 9,is_stmt,isa 0
    1054 00000114 8D00          MOVL      XAR0,#320             ; [CPU_ALU] |226| 
         00000115 0140 
    1055                      .dwpsn  file "../sources/dual_axis_servo_drive_user.c",line 220,column 9,is_stmt,isa 0
    1056 00000116 E802          MOVIZ     R0H,#16989            ; [CPU_FPU] |220| 
         00000117 12E8 
    1057                      .dwpsn  file "../sources/dual_axis_servo_drive_user.c",line 226,column 9,is_stmt,isa 0
    1058 00000118 56BF          MOVB      *+XAR2[AR0],#26,UNC   ; [CPU_ALU] |226| 
         00000119 1A92 
    1059                      .dwpsn  file "../sources/dual_axis_servo_drive_user.c",line 227,column 9,is_stmt,isa 0
    1060 0000011a 8D00          MOVL      XAR0,#321             ; [CPU_ALU] |227| 
         0000011b 0141 
    1061                      .dwpsn  file "../sources/dual_axis_servo_drive_user.c",line 220,column 9,is_stmt,isa 0
    1062 0000011c E808          MOVXI     R0H,#6987             ; [CPU_FPU] |220| 
         0000011d DA58 
    1063                      .dwpsn  file "../sources/dual_axis_servo_drive_user.c",line 227,column 9,is_stmt,isa 0
    1064 0000011e 56BF          MOVB      *+XAR2[AR0],#14,UNC   ; [CPU_ALU] |227| 
         0000011f 0E92 
TMS320C2000 Assembler PC v22.6.2 Sat Dec 27 15:00:18 2025

Copyright (c) 1996-2018 Texas Instruments Incorporated
dual_axis_servo_drive_user.asm                                       PAGE   25

    1065                      .dwpsn  file "../sources/dual_axis_servo_drive_user.c",line 228,column 9,is_stmt,isa 0
    1066 00000120 8D00          MOVL      XAR0,#322             ; [CPU_ALU] |228| 
         00000121 0142 
    1067 00000122 56BF          MOVB      *+XAR2[AR0],#66,UNC   ; [CPU_ALU] |228| 
         00000123 4292 
    1068                      .dwpsn  file "../sources/dual_axis_servo_drive_user.c",line 230,column 9,is_stmt,isa 0
    1069 00000124 8D00          MOVL      XAR0,#318             ; [CPU_ALU] |230| 
         00000125 013E 
    1070 00000126 2892          MOV       *+XAR2[AR0],#2806     ; [CPU_ALU] |230| 
         00000127 0AF6 
    1071                      .dwpsn  file "../sources/dual_axis_servo_drive_user.c",line 233,column 9,is_stmt,isa 0
    1072 00000128 8D00          MOVL      XAR0,#319             ; [CPU_ALU] |233| 
         00000129 013F 
    1073 0000012a 2892          MOV       *+XAR2[AR0],#1290     ; [CPU_ALU] |233| 
         0000012b 050A 
    1074                      .dwpsn  file "../sources/dual_axis_servo_drive_user.c",line 219,column 9,is_stmt,isa 0
    1075 0000012c D034          MOVB      XAR0,#52              ; [CPU_ALU] |219| 
    1076 0000012d E203          MOV32     *+XAR2[AR0],R3H       ; [CPU_FPU] |219| 
         0000012e 0392 
    1077                      .dwpsn  file "../sources/dual_axis_servo_drive_user.c",line 220,column 9,is_stmt,isa 0
    1078 0000012f D036          MOVB      XAR0,#54              ; [CPU_ALU] |220| 
    1079 00000130 E203          MOV32     *+XAR2[AR0],R0H       ; [CPU_FPU] |220| 
         00000131 0092 
    1080                      .dwpsn  file "../sources/dual_axis_servo_drive_user.c",line 246,column 9,is_stmt,isa 0
    1081 00000132 C242          MOVL      *-SP[2],XAR6          ; [CPU_ALU] |246| 
    1082 00000133 A044          MOVL      *-SP[4],XAR5          ; [CPU_ALU] |246| 
    1083 00000134 D501          MOVB      XAR5,#1               ; [CPU_ALU] |246| 
    1084 00000135 56BF          MOVB      *-SP[5],#1,UNC        ; [CPU_ALU] |246| 
         00000136 0145 
    1085 00000137 A848          MOVL      *-SP[8],XAR4          ; [CPU_ALU] |246| 
    1086 00000138 8AA2          MOVL      XAR4,XAR2             ; [CPU_ALU] |246| 
    1087 00000139 56BF          MOVB      *-SP[9],#1,UNC        ; [CPU_ALU] |246| 
         0000013a 0149 
    1088              $C$DW$39        .dwtag  DW_TAG_TI_branch
    1089                      .dwattr $C$DW$39, DW_AT_low_pc(0x00)
    1090                      .dwattr $C$DW$39, DW_AT_name("FCL_initADC_3I")
    1091                      .dwattr $C$DW$39, DW_AT_TI_call
    1092              
    1093 0000013b 7640!         LCR       #||FCL_initADC_3I||   ; [CPU_ALU] |246| 
         0000013c 0000 
    1094                      ; call occurs [#||FCL_initADC_3I||] ; [] |246| 
    1095                      .dwpsn  file "../sources/dual_axis_servo_drive_user.c",line 251,column 9,is_stmt,isa 0
    1096 0000013d 8F00          MOVL      XAR4,#2930            ; [CPU_ARAU] |251| 
         0000013e 0B72 
    1097 0000013f FFEF          B         ||$C$L10||,UNC        ; [CPU_ALU] |251| 
         00000140 012E 
    1098                      ; branch occurs ; [] |251| 
    1099 00000141       ||$C$L9||:    
    1100                      .dwpsn  file "../sources/dual_axis_servo_drive_user.c",line 73,column 9,is_stmt,isa 0
    1101 00000141 8D00          MOVL      XAR0,#280             ; [CPU_ALU] |73| 
         00000142 0118 
    1102 00000143 8F00!         MOVL      XAR4,#||fclVars||     ; [CPU_ARAU] |73| 
         00000144 0000 
    1103                      .dwpsn  file "../sources/dual_axis_servo_drive_user.c",line 83,column 9,is_stmt,isa 0
    1104 00000145 E802          MOVIZ     R0H,#19737            ; [CPU_FPU] |83| 
TMS320C2000 Assembler PC v22.6.2 Sat Dec 27 15:00:18 2025

Copyright (c) 1996-2018 Texas Instruments Incorporated
dual_axis_servo_drive_user.asm                                       PAGE   26

         00000146 68C8 
    1105                      .dwpsn  file "../sources/dual_axis_servo_drive_user.c",line 93,column 9,is_stmt,isa 0
    1106 00000147 E801          MOVIZ     R3H,#16349            ; [CPU_FPU] |93| 
         00000148 FEEB 
    1107                      .dwpsn  file "../sources/dual_axis_servo_drive_user.c",line 73,column 9,is_stmt,isa 0
    1108 00000149 A892          MOVL      *+XAR2[AR0],XAR4      ; [CPU_ALU] |73| 
    1109                      .dwpsn  file "../sources/dual_axis_servo_drive_user.c",line 83,column 9,is_stmt,isa 0
    1110 0000014a E809          MOVXI     R0H,#8192             ; [CPU_FPU] |83| 
         0000014b 0000 
    1111 0000014c D0FA          MOVB      XAR0,#250             ; [CPU_ALU] |83| 
    1112                      .dwpsn  file "../sources/dual_axis_servo_drive_user.c",line 102,column 9,is_stmt,isa 0
    1113 0000014d E802          MOVIZ     R2H,#16728            ; [CPU_FPU] |102| 
         0000014e 0AC2 
    1114                      .dwpsn  file "../sources/dual_axis_servo_drive_user.c",line 93,column 9,is_stmt,isa 0
    1115 0000014f E80D          MOVXI     R3H,#46039            ; [CPU_FPU] |93| 
         00000150 9EBB 
    1116                      .dwpsn  file "../sources/dual_axis_servo_drive_user.c",line 83,column 9,is_stmt,isa 0
    1117 00000151 E203          MOV32     *+XAR2[AR0],R0H       ; [CPU_FPU] |83| 
         00000152 0092 
    1118                      .dwpsn  file "../sources/dual_axis_servo_drive_user.c",line 93,column 9,is_stmt,isa 0
    1119 00000153 D0FA          MOVB      XAR0,#250             ; [CPU_ALU] |93| 
    1120 00000154 E2AF          MOV32     R1H,*+XAR2[AR0]       ; [CPU_FPU] |93| 
         00000155 0192 
    1121 00000156 E700          MPYF32    R0H,R3H,R1H           ; [CPU_FPU] |93| 
         00000157 0058 
    1122 00000158 D0FE          MOVB      XAR0,#254             ; [CPU_ALU] |93| 
    1123 00000159 E203          MOV32     *+XAR2[AR0],R0H       ; [CPU_FPU] |93| 
         0000015a 0092 
    1124                      .dwpsn  file "../sources/dual_axis_servo_drive_user.c",line 77,column 9,is_stmt,isa 0
    1125 0000015b E802          MOVIZ     R3H,#16912            ; [CPU_FPU] |77| 
         0000015c 1083 
    1126                      .dwpsn  file "../sources/dual_axis_servo_drive_user.c",line 102,column 9,is_stmt,isa 0
    1127 0000015d 8D00          MOVL      XAR0,#268             ; [CPU_ALU] |102| 
         0000015e 010C 
    1128                      .dwpsn  file "../sources/dual_axis_servo_drive_user.c",line 78,column 9,is_stmt,isa 0
    1129 0000015f E802          MOVIZ     R1H,#16544            ; [CPU_FPU] |78| 
         00000160 0501 
    1130                      .dwpsn  file "../sources/dual_axis_servo_drive_user.c",line 102,column 9,is_stmt,isa 0
    1131 00000161 E203          MOV32     *+XAR2[AR0],R2H       ; [CPU_FPU] |102| 
         00000162 0292 
    1132                      .dwpsn  file "../sources/dual_axis_servo_drive_user.c",line 108,column 9,is_stmt,isa 0
    1133 00000163 0242          MOVB      ACC,#66               ; [CPU_ALU] |108| 
    1134                      .dwpsn  file "../sources/dual_axis_servo_drive_user.c",line 77,column 9,is_stmt,isa 0
    1135 00000164 D00E          MOVB      XAR0,#14              ; [CPU_ALU] |77| 
    1136 00000165 E203          MOV32     *+XAR2[AR0],R3H       ; [CPU_FPU] |77| 
         00000166 0392 
    1137                      .dwpsn  file "../sources/dual_axis_servo_drive_user.c",line 91,column 9,is_stmt,isa 0
    1138 00000167 E805          MOVIZ     R2H,#47616            ; [CPU_FPU] |91| 
         00000168 D002 
    1139                      .dwpsn  file "../sources/dual_axis_servo_drive_user.c",line 78,column 9,is_stmt,isa 0
    1140 00000169 D010          MOVB      XAR0,#16              ; [CPU_ALU] |78| 
    1141                      .dwpsn  file "../sources/dual_axis_servo_drive_user.c",line 96,column 9,is_stmt,isa 0
    1142 0000016a E801          MOVIZ     R3H,#14545            ; [CPU_FPU] |96| 
         0000016b C68B 
    1143                      .dwpsn  file "../sources/dual_axis_servo_drive_user.c",line 78,column 9,is_stmt,isa 0
TMS320C2000 Assembler PC v22.6.2 Sat Dec 27 15:00:18 2025

Copyright (c) 1996-2018 Texas Instruments Incorporated
dual_axis_servo_drive_user.asm                                       PAGE   27

    1144 0000016c E203          MOV32     *+XAR2[AR0],R1H       ; [CPU_FPU] |78| 
         0000016d 0192 
    1145                      .dwpsn  file "../sources/dual_axis_servo_drive_user.c",line 91,column 9,is_stmt,isa 0
    1146 0000016e D0FC          MOVB      XAR0,#252             ; [CPU_ALU] |91| 
    1147                      .dwpsn  file "../sources/dual_axis_servo_drive_user.c",line 97,column 9,is_stmt,isa 0
    1148 0000016f E801          MOVIZ     R1H,#16067            ; [CPU_FPU] |97| 
         00000170 F619 
    1149                      .dwpsn  file "../sources/dual_axis_servo_drive_user.c",line 96,column 9,is_stmt,isa 0
    1150 00000171 E80D          MOVXI     R3H,#46871            ; [CPU_FPU] |96| 
         00000172 B8BB 
    1151                      .dwpsn  file "../sources/dual_axis_servo_drive_user.c",line 91,column 9,is_stmt,isa 0
    1152 00000173 E203          MOV32     *+XAR2[AR0],R2H       ; [CPU_FPU] |91| 
         00000174 0292 
    1153                      .dwpsn  file "../sources/dual_axis_servo_drive_user.c",line 96,column 9,is_stmt,isa 0
    1154 00000175 8D00          MOVL      XAR0,#256             ; [CPU_ALU] |96| 
         00000176 0100 
    1155                      .dwpsn  file "../sources/dual_axis_servo_drive_user.c",line 97,column 9,is_stmt,isa 0
    1156 00000177 E809          MOVXI     R1H,#15953            ; [CPU_FPU] |97| 
         00000178 F289 
    1157                      .dwpsn  file "../sources/dual_axis_servo_drive_user.c",line 98,column 9,is_stmt,isa 0
    1158 00000179 E801          MOVIZ     R2H,#16067            ; [CPU_FPU] |98| 
         0000017a F61A 
    1159                      .dwpsn  file "../sources/dual_axis_servo_drive_user.c",line 96,column 9,is_stmt,isa 0
    1160 0000017b E203          MOV32     *+XAR2[AR0],R3H       ; [CPU_FPU] |96| 
         0000017c 0392 
    1161                      .dwpsn  file "../sources/dual_axis_servo_drive_user.c",line 97,column 9,is_stmt,isa 0
    1162 0000017d 8D00          MOVL      XAR0,#258             ; [CPU_ALU] |97| 
         0000017e 0102 
    1163                      .dwpsn  file "../sources/dual_axis_servo_drive_user.c",line 99,column 9,is_stmt,isa 0
    1164 0000017f E801          MOVIZ     R3H,#14642            ; [CPU_FPU] |99| 
         00000180 C993 
    1165                      .dwpsn  file "../sources/dual_axis_servo_drive_user.c",line 98,column 9,is_stmt,isa 0
    1166 00000181 E809          MOVXI     R2H,#15953            ; [CPU_FPU] |98| 
         00000182 F28A 
    1167                      .dwpsn  file "../sources/dual_axis_servo_drive_user.c",line 97,column 9,is_stmt,isa 0
    1168 00000183 E203          MOV32     *+XAR2[AR0],R1H       ; [CPU_FPU] |97| 
         00000184 0192 
    1169                      .dwpsn  file "../sources/dual_axis_servo_drive_user.c",line 98,column 9,is_stmt,isa 0
    1170 00000185 8D00          MOVL      XAR0,#260             ; [CPU_ALU] |98| 
         00000186 0104 
    1171                      .dwpsn  file "../sources/dual_axis_servo_drive_user.c",line 99,column 9,is_stmt,isa 0
    1172 00000187 E808          MOVXI     R3H,#2594             ; [CPU_FPU] |99| 
         00000188 5113 
    1173                      .dwpsn  file "../sources/dual_axis_servo_drive_user.c",line 100,column 9,is_stmt,isa 0
    1174 00000189 E801          MOVIZ     R1H,#14642            ; [CPU_FPU] |100| 
         0000018a C991 
    1175                      .dwpsn  file "../sources/dual_axis_servo_drive_user.c",line 98,column 9,is_stmt,isa 0
    1176 0000018b E203          MOV32     *+XAR2[AR0],R2H       ; [CPU_FPU] |98| 
         0000018c 0292 
    1177                      .dwpsn  file "../sources/dual_axis_servo_drive_user.c",line 99,column 9,is_stmt,isa 0
    1178 0000018d 8D00          MOVL      XAR0,#262             ; [CPU_ALU] |99| 
         0000018e 0106 
    1179                      .dwpsn  file "../sources/dual_axis_servo_drive_user.c",line 101,column 9,is_stmt,isa 0
    1180 0000018f E801          MOVIZ     R2H,#16204            ; [CPU_FPU] |101| 
         00000190 FA62 
TMS320C2000 Assembler PC v22.6.2 Sat Dec 27 15:00:18 2025

Copyright (c) 1996-2018 Texas Instruments Incorporated
dual_axis_servo_drive_user.asm                                       PAGE   28

    1181                      .dwpsn  file "../sources/dual_axis_servo_drive_user.c",line 100,column 9,is_stmt,isa 0
    1182 00000191 E808          MOVXI     R1H,#2594             ; [CPU_FPU] |100| 
         00000192 5111 
    1183                      .dwpsn  file "../sources/dual_axis_servo_drive_user.c",line 99,column 9,is_stmt,isa 0
    1184 00000193 E203          MOV32     *+XAR2[AR0],R3H       ; [CPU_FPU] |99| 
         00000194 0392 
    1185                      .dwpsn  file "../sources/dual_axis_servo_drive_user.c",line 100,column 9,is_stmt,isa 0
    1186 00000195 8D00          MOVL      XAR0,#264             ; [CPU_ALU] |100| 
         00000196 0108 
    1187                      .dwpsn  file "../sources/dual_axis_servo_drive_user.c",line 101,column 9,is_stmt,isa 0
    1188 00000197 E80E          MOVXI     R2H,#52429            ; [CPU_FPU] |101| 
         00000198 666A 
    1189                      .dwpsn  file "../sources/dual_axis_servo_drive_user.c",line 103,column 9,is_stmt,isa 0
    1190 00000199 E802          MOVIZ     R3H,#17604            ; [CPU_FPU] |103| 
         0000019a 2623 
    1191                      .dwpsn  file "../sources/dual_axis_servo_drive_user.c",line 100,column 9,is_stmt,isa 0
    1192 0000019b E203          MOV32     *+XAR2[AR0],R1H       ; [CPU_FPU] |100| 
         0000019c 0192 
    1193                      .dwpsn  file "../sources/dual_axis_servo_drive_user.c",line 101,column 9,is_stmt,isa 0
    1194 0000019d 8D00          MOVL      XAR0,#276             ; [CPU_ALU] |101| 
         0000019e 0114 
    1195                      .dwpsn  file "../sources/dual_axis_servo_drive_user.c",line 104,column 9,is_stmt,isa 0
    1196 0000019f E802          MOVIZ     R1H,#17437            ; [CPU_FPU] |104| 
         000001a0 20E9 
    1197                      .dwpsn  file "../sources/dual_axis_servo_drive_user.c",line 103,column 9,is_stmt,isa 0
    1198 000001a1 E80A          MOVXI     R3H,#22908            ; [CPU_FPU] |103| 
         000001a2 CBE3 
    1199                      .dwpsn  file "../sources/dual_axis_servo_drive_user.c",line 101,column 9,is_stmt,isa 0
    1200 000001a3 E203          MOV32     *+XAR2[AR0],R2H       ; [CPU_FPU] |101| 
         000001a4 0292 
    1201                      .dwpsn  file "../sources/dual_axis_servo_drive_user.c",line 103,column 9,is_stmt,isa 0
    1202 000001a5 8D00          MOVL      XAR0,#278             ; [CPU_ALU] |103| 
         000001a6 0116 
    1203                      .dwpsn  file "../sources/dual_axis_servo_drive_user.c",line 104,column 9,is_stmt,isa 0
    1204 000001a7 E808          MOVXI     R1H,#5219             ; [CPU_FPU] |104| 
         000001a8 A319 
    1205                      .dwpsn  file "../sources/dual_axis_servo_drive_user.c",line 105,column 9,is_stmt,isa 0
    1206 000001a9 E802          MOVIZ     R2H,#17437            ; [CPU_FPU] |105| 
         000001aa 20EA 
    1207                      .dwpsn  file "../sources/dual_axis_servo_drive_user.c",line 103,column 9,is_stmt,isa 0
    1208 000001ab E203          MOV32     *+XAR2[AR0],R3H       ; [CPU_FPU] |103| 
         000001ac 0392 
    1209                      .dwpsn  file "../sources/dual_axis_servo_drive_user.c",line 104,column 9,is_stmt,isa 0
    1210 000001ad 8D00          MOVL      XAR0,#270             ; [CPU_ALU] |104| 
         000001ae 010E 
    1211                      .dwpsn  file "../sources/dual_axis_servo_drive_user.c",line 75,column 9,is_stmt,isa 0
    1212 000001af E801          MOVIZ     R3H,#14545            ; [CPU_FPU] |75| 
         000001b0 C68B 
    1213                      .dwpsn  file "../sources/dual_axis_servo_drive_user.c",line 105,column 9,is_stmt,isa 0
    1214 000001b1 E808          MOVXI     R2H,#5219             ; [CPU_FPU] |105| 
         000001b2 A31A 
    1215                      .dwpsn  file "../sources/dual_axis_servo_drive_user.c",line 104,column 9,is_stmt,isa 0
    1216 000001b3 E203          MOV32     *+XAR2[AR0],R1H       ; [CPU_FPU] |104| 
         000001b4 0192 
    1217                      .dwpsn  file "../sources/dual_axis_servo_drive_user.c",line 105,column 9,is_stmt,isa 0
TMS320C2000 Assembler PC v22.6.2 Sat Dec 27 15:00:18 2025

Copyright (c) 1996-2018 Texas Instruments Incorporated
dual_axis_servo_drive_user.asm                                       PAGE   29

    1218 000001b5 8D00          MOVL      XAR0,#272             ; [CPU_ALU] |105| 
         000001b6 0110 
    1219                      .dwpsn  file "../sources/dual_axis_servo_drive_user.c",line 75,column 9,is_stmt,isa 0
    1220 000001b7 E80D          MOVXI     R3H,#46871            ; [CPU_FPU] |75| 
         000001b8 B8BB 
    1221                      .dwpsn  file "../sources/dual_axis_servo_drive_user.c",line 81,column 9,is_stmt,isa 0
    1222 000001b9 E801          MOVIZ     R1H,#16250            ; [CPU_FPU] |81| 
         000001ba FBD1 
    1223                      .dwpsn  file "../sources/dual_axis_servo_drive_user.c",line 105,column 9,is_stmt,isa 0
    1224 000001bb E203          MOV32     *+XAR2[AR0],R2H       ; [CPU_FPU] |105| 
         000001bc 0292 
    1225                      .dwpsn  file "../sources/dual_axis_servo_drive_user.c",line 75,column 9,is_stmt,isa 0
    1226 000001bd D00A          MOVB      XAR0,#10              ; [CPU_ALU] |75| 
    1227                      .dwpsn  file "../sources/dual_axis_servo_drive_user.c",line 81,column 9,is_stmt,isa 0
    1228 000001be E80F          MOVXI     R1H,#57672            ; [CPU_FPU] |81| 
         000001bf 0A41 
    1229                      .dwpsn  file "../sources/dual_axis_servo_drive_user.c",line 75,column 9,is_stmt,isa 0
    1230 000001c0 E203          MOV32     *+XAR2[AR0],R3H       ; [CPU_FPU] |75| 
         000001c1 0392 
    1231                      .dwpsn  file "../sources/dual_axis_servo_drive_user.c",line 81,column 9,is_stmt,isa 0
    1232 000001c2 D00C          MOVB      XAR0,#12              ; [CPU_ALU] |81| 
    1233 000001c3 E203          MOV32     *+XAR2[AR0],R1H       ; [CPU_FPU] |81| 
         000001c4 0192 
    1234                      .dwpsn  file "../sources/dual_axis_servo_drive_user.c",line 108,column 9,is_stmt,isa 0
    1235 000001c5 8D00          MOVL      XAR0,#280             ; [CPU_ALU] |108| 
         000001c6 0118 
    1236 000001c7 0792          ADDL      ACC,*+XAR2[AR0]       ; [CPU_ALU] |108| 
    1237 000001c8 8AA9          MOVL      XAR4,ACC              ; [CPU_ALU] |108| 
    1238                      .dwpsn  file "../sources/dual_axis_servo_drive_user.c",line 109,column 9,is_stmt,isa 0
    1239 000001c9 8D40          MOVL      XAR1,#280             ; [CPU_ALU] |109| 
         000001ca 0118 
    1240                      .dwpsn  file "../sources/dual_axis_servo_drive_user.c",line 108,column 9,is_stmt,isa 0
    1241 000001cb 28C4          MOV       *+XAR4[0],#1000       ; [CPU_ALU] |108| 
         000001cc 03E8 
    1242                      .dwpsn  file "../sources/dual_axis_servo_drive_user.c",line 109,column 9,is_stmt,isa 0
    1243 000001cd 8A9A          MOVL      XAR4,*+XAR2[AR1]      ; [CPU_ALU] |109| 
    1244 000001ce D042          MOVB      XAR0,#66              ; [CPU_ALU] |109| 
    1245 000001cf E2C4          UI16TOF32 R0H,*+XAR4[AR0]       ; [CPU_FPU] |109| 
         000001d0 0094 
    1246 000001d1 7700          NOP       ; [CPU_ALU] 
    1247 000001d2 E801          MOVIZ     R2H,#16000            ; [CPU_FPU] |109| 
         000001d3 F402 
    1248 000001d4 E274          DIVF32    R0H,R2H,R0H           ; [CPU_FPU] |109| 
         000001d5 0010 
    1249 000001d6 7700          NOP       ; [CPU_ALU] 
    1250 000001d7 7700          NOP       ; [CPU_ALU] 
    1251                      .dwpsn  file "../sources/dual_axis_servo_drive_user.c",line 112,column 9,is_stmt,isa 0
    1252 000001d8 0243          MOVB      ACC,#67               ; [CPU_ALU] |112| 
    1253                      .dwpsn  file "../sources/dual_axis_servo_drive_user.c",line 109,column 9,is_stmt,isa 0
    1254 000001d9 D040          MOVB      XAR0,#64              ; [CPU_ALU] |109| 
    1255 000001da E203          MOV32     *+XAR4[AR0],R0H       ; [CPU_FPU] |109| 
         000001db 0094 
    1256                      .dwpsn  file "../sources/dual_axis_servo_drive_user.c",line 112,column 9,is_stmt,isa 0
    1257 000001dc 8D00          MOVL      XAR0,#280             ; [CPU_ALU] |112| 
         000001dd 0118 
TMS320C2000 Assembler PC v22.6.2 Sat Dec 27 15:00:18 2025

Copyright (c) 1996-2018 Texas Instruments Incorporated
dual_axis_servo_drive_user.asm                                       PAGE   30

    1258 000001de 0792          ADDL      ACC,*+XAR2[AR0]       ; [CPU_ALU] |112| 
    1259 000001df 8AA9          MOVL      XAR4,ACC              ; [CPU_ALU] |112| 
    1260                      .dwpsn  file "../sources/dual_axis_servo_drive_user.c",line 132,column 9,is_stmt,isa 0
    1261 000001e0 E802          MOVIZ     R2H,#16672            ; [CPU_FPU] |132| 
         000001e1 0902 
    1262                      .dwpsn  file "../sources/dual_axis_servo_drive_user.c",line 113,column 9,is_stmt,isa 0
    1263 000001e2 0244          MOVB      ACC,#68               ; [CPU_ALU] |113| 
    1264                      .dwpsn  file "../sources/dual_axis_servo_drive_user.c",line 112,column 9,is_stmt,isa 0
    1265 000001e3 56BF          MOVB      *+XAR4[0],#4,UNC      ; [CPU_ALU] |112| 
         000001e4 04C4 
    1266                      .dwpsn  file "../sources/dual_axis_servo_drive_user.c",line 113,column 9,is_stmt,isa 0
    1267 000001e5 0792          ADDL      ACC,*+XAR2[AR0]       ; [CPU_ALU] |113| 
    1268                      .dwpsn  file "../sources/dual_axis_servo_drive_user.c",line 121,column 9,is_stmt,isa 0
    1269 000001e6 D098          MOVB      XAR0,#152             ; [CPU_ALU] |121| 
    1270                      .dwpsn  file "../sources/dual_axis_servo_drive_user.c",line 113,column 9,is_stmt,isa 0
    1271 000001e7 8AA9          MOVL      XAR4,ACC              ; [CPU_ALU] |113| 
    1272                      .dwpsn  file "../sources/dual_axis_servo_drive_user.c",line 131,column 9,is_stmt,isa 0
    1273 000001e8 E802          MOVIZ     R1H,#16968            ; [CPU_FPU] |131| 
         000001e9 1241 
    1274                      .dwpsn  file "../sources/dual_axis_servo_drive_user.c",line 130,column 9,is_stmt,isa 0
    1275 000001ea E802          MOVIZ     R3H,#16672            ; [CPU_FPU] |130| 
         000001eb 0903 
    1276                      .dwpsn  file "../sources/dual_axis_servo_drive_user.c",line 113,column 9,is_stmt,isa 0
    1277 000001ec BE00          MOVB      XAR6,#0               ; [CPU_ALU] |113| 
    1278 000001ed C2C4          MOVL      *+XAR4[0],XAR6        ; [CPU_ALU] |113| 
    1279                      .dwpsn  file "../sources/dual_axis_servo_drive_user.c",line 121,column 9,is_stmt,isa 0
    1280 000001ee 8F00          MOVL      XAR4,#3720            ; [CPU_ARAU] |121| 
         000001ef 0E88 
    1281 000001f0 A892          MOVL      *+XAR2[AR0],XAR4      ; [CPU_ALU] |121| 
    1282                      .dwpsn  file "../sources/dual_axis_servo_drive_user.c",line 130,column 9,is_stmt,isa 0
    1283 000001f1 8D00          MOVL      XAR0,#300             ; [CPU_ALU] |130| 
         000001f2 012C 
    1284 000001f3 E203          MOV32     *+XAR2[AR0],R3H       ; [CPU_FPU] |130| 
         000001f4 0392 
    1285                      .dwpsn  file "../sources/dual_axis_servo_drive_user.c",line 131,column 9,is_stmt,isa 0
    1286 000001f5 8D00          MOVL      XAR0,#302             ; [CPU_ALU] |131| 
         000001f6 012E 
    1287                      .dwpsn  file "../sources/dual_axis_servo_drive_user.c",line 124,column 9,is_stmt,isa 0
    1288 000001f7 E801          MOVIZ     R3H,#15320            ; [CPU_FPU] |124| 
         000001f8 DEC3 
    1289                      .dwpsn  file "../sources/dual_axis_servo_drive_user.c",line 131,column 9,is_stmt,isa 0
    1290 000001f9 E203          MOV32     *+XAR2[AR0],R1H       ; [CPU_FPU] |131| 
         000001fa 0192 
    1291                      .dwpsn  file "../sources/dual_axis_servo_drive_user.c",line 132,column 9,is_stmt,isa 0
    1292 000001fb 8D00          MOVL      XAR0,#304             ; [CPU_ALU] |132| 
         000001fc 0130 
    1293                      .dwpsn  file "../sources/dual_axis_servo_drive_user.c",line 125,column 9,is_stmt,isa 0
    1294 000001fd E801          MOVIZ     R1H,#15508            ; [CPU_FPU] |125| 
         000001fe E4A1 
    1295 000001ff E809          MOVXI     R1H,#13107            ; [CPU_FPU] |125| 
         00000200 9999 
    1296                      .dwpsn  file "../sources/dual_axis_servo_drive_user.c",line 132,column 9,is_stmt,isa 0
    1297 00000201 E203          MOV32     *+XAR2[AR0],R2H       ; [CPU_FPU] |132| 
         00000202 0292 
    1298                      .dwpsn  file "../sources/dual_axis_servo_drive_user.c",line 124,column 9,is_stmt,isa 0
TMS320C2000 Assembler PC v22.6.2 Sat Dec 27 15:00:18 2025

Copyright (c) 1996-2018 Texas Instruments Incorporated
dual_axis_servo_drive_user.asm                                       PAGE   31

    1299 00000203 D02E          MOVB      XAR0,#46              ; [CPU_ALU] |124| 
    1300                      .dwpsn  file "../sources/dual_axis_servo_drive_user.c",line 126,column 9,is_stmt,isa 0
    1301 00000204 E801          MOVIZ     R2H,#14720            ; [CPU_FPU] |126| 
         00000205 CC02 
    1302                      .dwpsn  file "../sources/dual_axis_servo_drive_user.c",line 124,column 9,is_stmt,isa 0
    1303 00000206 E203          MOV32     *+XAR2[AR0],R3H       ; [CPU_FPU] |124| 
         00000207 0392 
    1304                      .dwpsn  file "../sources/dual_axis_servo_drive_user.c",line 125,column 9,is_stmt,isa 0
    1305 00000208 D030          MOVB      XAR0,#48              ; [CPU_ALU] |125| 
    1306 00000209 E203          MOV32     *+XAR2[AR0],R1H       ; [CPU_FPU] |125| 
         0000020a 0192 
    1307                      .dwpsn  file "../sources/dual_axis_servo_drive_user.c",line 126,column 9,is_stmt,isa 0
    1308 0000020b D032          MOVB      XAR0,#50              ; [CPU_ALU] |126| 
    1309 0000020c E203          MOV32     *+XAR2[AR0],R2H       ; [CPU_FPU] |126| 
         0000020d 0292 
    1310                      .dwpsn  file "../sources/dual_axis_servo_drive_user.c",line 116,column 9,is_stmt,isa 0
    1311 0000020e D00A          MOVB      XAR0,#10              ; [CPU_ALU] |116| 
    1312 0000020f E2AF          MOV32     R0H,*+XAR2[AR0]       ; [CPU_FPU] |116| 
         00000210 0092 
    1313 00000211 E850          MPYF32    R0H,R0H,#17274        ; [CPU_FPU] |116| 
         00000212 DE80 
    1314 00000213 7700          NOP       ; [CPU_ALU] 
    1315 00000214 E801          MOVIZ     R3H,#16256            ; [CPU_FPU] |116| 
         00000215 FC03 
    1316 00000216 E274          DIVF32    R0H,R3H,R0H           ; [CPU_FPU] |116| 
         00000217 0018 
    1317 00000218 7700          NOP       ; [CPU_ALU] 
    1318                      .dwpsn  file "../sources/dual_axis_servo_drive_user.c",line 119,column 9,is_stmt,isa 0
    1319 00000219 E802          MOVIZ     R2H,#16585            ; [CPU_FPU] |119| 
         0000021a 064A 
    1320 0000021b E808          MOVXI     R2H,#4059             ; [CPU_FPU] |119| 
         0000021c 7EDA 
    1321                      .dwpsn  file "../sources/dual_axis_servo_drive_user.c",line 116,column 9,is_stmt,isa 0
    1322 0000021d D09A          MOVB      XAR0,#154             ; [CPU_ALU] |116| 
    1323 0000021e E203          MOV32     *+XAR2[AR0],R0H       ; [CPU_FPU] |116| 
         0000021f 0092 
    1324                      .dwpsn  file "../sources/dual_axis_servo_drive_user.c",line 119,column 9,is_stmt,isa 0
    1325 00000220 D00A          MOVB      XAR0,#10              ; [CPU_ALU] |119| 
    1326 00000221 E2AF          MOV32     R1H,*+XAR2[AR0]       ; [CPU_FPU] |119| 
         00000222 0192 
    1327 00000223 E700          MPYF32    R0H,R2H,R1H           ; [CPU_FPU] |119| 
         00000224 0050 
    1328                      .dwpsn  file "../sources/dual_axis_servo_drive_user.c",line 154,column 9,is_stmt,isa 0
    1329 00000225 8F40          MOVL      XAR5,#2816            ; [CPU_ARAU] |154| 
         00000226 0B00 
    1330                      .dwpsn  file "../sources/dual_axis_servo_drive_user.c",line 119,column 9,is_stmt,isa 0
    1331 00000227 E850          MPYF32    R0H,R0H,#16544        ; [CPU_FPU] |119| 
         00000228 2800 
    1332                      .dwpsn  file "../sources/dual_axis_servo_drive_user.c",line 154,column 9,is_stmt,isa 0
    1333 00000229 FF20          MOV       ACC,#29696            ; [CPU_ALU] |154| 
         0000022a 7400 
    1334                      .dwpsn  file "../sources/dual_axis_servo_drive_user.c",line 119,column 9,is_stmt,isa 0
    1335 0000022b E88F          ADDF32    R0H,R0H,#16256        ; [CPU_FPU] |119| 
         0000022c E000 
    1336                      .dwpsn  file "../sources/dual_axis_servo_drive_user.c",line 154,column 9,is_stmt,isa 0
TMS320C2000 Assembler PC v22.6.2 Sat Dec 27 15:00:18 2025

Copyright (c) 1996-2018 Texas Instruments Incorporated
dual_axis_servo_drive_user.asm                                       PAGE   32

    1337 0000022d 7680          MOVL      XAR6,#2848            ; [CPU_ARAU] |154| 
         0000022e 0B20 
    1338                      .dwpsn  file "../sources/dual_axis_servo_drive_user.c",line 119,column 9,is_stmt,isa 0
    1339 0000022f E801          MOVIZ     R1H,#16256            ; [CPU_FPU] |119| 
         00000230 FC01 
    1340 00000231 E274          DIVF32    R0H,R1H,R0H           ; [CPU_FPU] |119| 
         00000232 0008 
    1341                      .dwpsn  file "../sources/dual_axis_servo_drive_user.c",line 154,column 9,is_stmt,isa 0
    1342 00000233 8F00          MOVL      XAR4,#2880            ; [CPU_ARAU] |154| 
         00000234 0B40 
    1343                      .dwpsn  file "../sources/dual_axis_servo_drive_user.c",line 127,column 9,is_stmt,isa 0
    1344 00000235 E802          MOVIZ     R3H,#17175            ; [CPU_FPU] |127| 
         00000236 18BB 
    1345 00000237 E80D          MOVXI     R3H,#46118            ; [CPU_FPU] |127| 
         00000238 A133 
    1346                      .dwpsn  file "../sources/dual_axis_servo_drive_user.c",line 119,column 9,is_stmt,isa 0
    1347 00000239 D09C          MOVB      XAR0,#156             ; [CPU_ALU] |119| 
    1348 0000023a E203          MOV32     *+XAR2[AR0],R0H       ; [CPU_FPU] |119| 
         0000023b 0092 
    1349                      .dwpsn  file "../sources/dual_axis_servo_drive_user.c",line 120,column 9,is_stmt,isa 0
    1350 0000023c D09C          MOVB      XAR0,#156             ; [CPU_ALU] |120| 
    1351 0000023d E2AF          MOV32     R0H,*+XAR2[AR0]       ; [CPU_FPU] |120| 
         0000023e 0092 
    1352 0000023f E8CF          SUBF32    R0H,#16256,R0H        ; [CPU_FPU] |120| 
         00000240 E000 
    1353 00000241 D09E          MOVB      XAR0,#158             ; [CPU_ALU] |120| 
    1354 00000242 E203          MOV32     *+XAR2[AR0],R0H       ; [CPU_FPU] |120| 
         00000243 0092 
    1355                      .dwpsn  file "../sources/dual_axis_servo_drive_user.c",line 134,column 9,is_stmt,isa 0
    1356 00000244 8D00          MOVL      XAR0,#320             ; [CPU_ALU] |134| 
         00000245 0140 
    1357                      .dwpsn  file "../sources/dual_axis_servo_drive_user.c",line 128,column 9,is_stmt,isa 0
    1358 00000246 E802          MOVIZ     R0H,#16989            ; [CPU_FPU] |128| 
         00000247 12E8 
    1359                      .dwpsn  file "../sources/dual_axis_servo_drive_user.c",line 134,column 9,is_stmt,isa 0
    1360 00000248 56BF          MOVB      *+XAR2[AR0],#124,UNC  ; [CPU_ALU] |134| 
         00000249 7C92 
    1361                      .dwpsn  file "../sources/dual_axis_servo_drive_user.c",line 135,column 9,is_stmt,isa 0
    1362 0000024a 8D00          MOVL      XAR0,#321             ; [CPU_ALU] |135| 
         0000024b 0141 
    1363                      .dwpsn  file "../sources/dual_axis_servo_drive_user.c",line 128,column 9,is_stmt,isa 0
    1364 0000024c E808          MOVXI     R0H,#6987             ; [CPU_FPU] |128| 
         0000024d DA58 
    1365                      .dwpsn  file "../sources/dual_axis_servo_drive_user.c",line 135,column 9,is_stmt,isa 0
    1366 0000024e 56BF          MOVB      *+XAR2[AR0],#24,UNC   ; [CPU_ALU] |135| 
         0000024f 1892 
    1367                      .dwpsn  file "../sources/dual_axis_servo_drive_user.c",line 136,column 9,is_stmt,isa 0
    1368 00000250 8D00          MOVL      XAR0,#322             ; [CPU_ALU] |136| 
         00000251 0142 
    1369 00000252 56BF          MOVB      *+XAR2[AR0],#61,UNC   ; [CPU_ALU] |136| 
         00000253 3D92 
    1370                      .dwpsn  file "../sources/dual_axis_servo_drive_user.c",line 138,column 9,is_stmt,isa 0
    1371 00000254 8D00          MOVL      XAR0,#318             ; [CPU_ALU] |138| 
         00000255 013E 
    1372 00000256 2892          MOV       *+XAR2[AR0],#2806     ; [CPU_ALU] |138| 
TMS320C2000 Assembler PC v22.6.2 Sat Dec 27 15:00:18 2025

Copyright (c) 1996-2018 Texas Instruments Incorporated
dual_axis_servo_drive_user.asm                                       PAGE   33

         00000257 0AF6 
    1373                      .dwpsn  file "../sources/dual_axis_servo_drive_user.c",line 141,column 9,is_stmt,isa 0
    1374 00000258 8D00          MOVL      XAR0,#319             ; [CPU_ALU] |141| 
         00000259 013F 
    1375 0000025a 2892          MOV       *+XAR2[AR0],#1290     ; [CPU_ALU] |141| 
         0000025b 050A 
    1376                      .dwpsn  file "../sources/dual_axis_servo_drive_user.c",line 127,column 9,is_stmt,isa 0
    1377 0000025c D034          MOVB      XAR0,#52              ; [CPU_ALU] |127| 
    1378 0000025d E203          MOV32     *+XAR2[AR0],R3H       ; [CPU_FPU] |127| 
         0000025e 0392 
    1379                      .dwpsn  file "../sources/dual_axis_servo_drive_user.c",line 128,column 9,is_stmt,isa 0
    1380 0000025f D036          MOVB      XAR0,#54              ; [CPU_ALU] |128| 
    1381 00000260 E203          MOV32     *+XAR2[AR0],R0H       ; [CPU_FPU] |128| 
         00000261 0092 
    1382                      .dwpsn  file "../sources/dual_axis_servo_drive_user.c",line 154,column 9,is_stmt,isa 0
    1383 00000262 C242          MOVL      *-SP[2],XAR6          ; [CPU_ALU] |154| 
    1384 00000263 A044          MOVL      *-SP[4],XAR5          ; [CPU_ALU] |154| 
    1385 00000264 D500          MOVB      XAR5,#0               ; [CPU_ALU] |154| 
    1386 00000265 2B45          MOV       *-SP[5],#0            ; [CPU_ALU] |154| 
    1387 00000266 A848          MOVL      *-SP[8],XAR4          ; [CPU_ALU] |154| 
    1388 00000267 8AA2          MOVL      XAR4,XAR2             ; [CPU_ALU] |154| 
    1389 00000268 2B49          MOV       *-SP[9],#0            ; [CPU_ALU] |154| 
    1390              $C$DW$40        .dwtag  DW_TAG_TI_branch
    1391                      .dwattr $C$DW$40, DW_AT_low_pc(0x00)
    1392                      .dwattr $C$DW$40, DW_AT_name("FCL_initADC_3I")
    1393                      .dwattr $C$DW$40, DW_AT_TI_call
    1394              
    1395 00000269 7640!         LCR       #||FCL_initADC_3I||   ; [CPU_ALU] |154| 
         0000026a 0000 
    1396                      ; call occurs [#||FCL_initADC_3I||] ; [] |154| 
    1397                      .dwpsn  file "../sources/dual_axis_servo_drive_user.c",line 159,column 9,is_stmt,isa 0
    1398 0000026b 8F00          MOVL      XAR4,#2928            ; [CPU_ARAU] |159| 
         0000026c 0B70 
    1399 0000026d       ||$C$L10||:    
    1400 0000026d D048          MOVB      XAR0,#72              ; [CPU_ALU] |159| 
    1401 0000026e A892          MOVL      *+XAR2[AR0],XAR4      ; [CPU_ALU] |159| 
    1402 0000026f       ||$C$L11||:    
    1403                      .dwpsn  file "../sources/dual_axis_servo_drive_user.c",line 260,column 5,is_stmt,isa 0
    1404 0000026f 06D3          MOVL      ACC,*+XAR3[2]         ; [CPU_ALU] |260| 
    1405 00000270 1E42          MOVL      *-SP[2],ACC           ; [CPU_ALU] |260| 
    1406 00000271 8AA2          MOVL      XAR4,XAR2             ; [CPU_ALU] |260| 
    1407 00000272 06E3          MOVL      ACC,*+XAR3[4]         ; [CPU_ALU] |260| 
    1408 00000273 1E44          MOVL      *-SP[4],ACC           ; [CPU_ALU] |260| 
    1409 00000274 06C3          MOVL      ACC,*+XAR3[0]         ; [CPU_ALU] |260| 
    1410              $C$DW$41        .dwtag  DW_TAG_TI_branch
    1411                      .dwattr $C$DW$41, DW_AT_low_pc(0x00)
    1412                      .dwattr $C$DW$41, DW_AT_name("FCL_initPWM")
    1413                      .dwattr $C$DW$41, DW_AT_TI_call
    1414              
    1415 00000275 7640!         LCR       #||FCL_initPWM||      ; [CPU_ALU] |260| 
         00000276 0000 
    1416                      ; call occurs [#||FCL_initPWM||] ; [] |260| 
    1417                      .dwpsn  file "../sources/dual_axis_servo_drive_user.c",line 264,column 5,is_stmt,isa 0
    1418 00000277 D00E          MOVB      XAR0,#14              ; [CPU_ALU] |264| 
    1419 00000278 8AA2          MOVL      XAR4,XAR2             ; [CPU_ALU] |264| 
TMS320C2000 Assembler PC v22.6.2 Sat Dec 27 15:00:18 2025

Copyright (c) 1996-2018 Texas Instruments Incorporated
dual_axis_servo_drive_user.asm                                       PAGE   34

    1420 00000279 0693          MOVL      ACC,*+XAR3[AR0]       ; [CPU_ALU] |264| 
    1421              $C$DW$42        .dwtag  DW_TAG_TI_branch
    1422                      .dwattr $C$DW$42, DW_AT_low_pc(0x00)
    1423                      .dwattr $C$DW$42, DW_AT_name("FCL_initQEP")
    1424                      .dwattr $C$DW$42, DW_AT_TI_call
    1425              
    1426 0000027a 7640!         LCR       #||FCL_initQEP||      ; [CPU_ALU] |264| 
         0000027b 0000 
    1427                      ; call occurs [#||FCL_initQEP||] ; [] |264| 
    1428                      .dwpsn  file "../sources/dual_axis_servo_drive_user.c",line 266,column 5,is_stmt,isa 0
    1429 0000027c 8D00          MOVL      XAR0,#280             ; [CPU_ALU] |266| 
         0000027d 0118 
    1430 0000027e 024A          MOVB      ACC,#74               ; [CPU_ALU] |266| 
    1431 0000027f BE00          MOVB      XAR6,#0               ; [CPU_ALU] |266| 
    1432 00000280 0792          ADDL      ACC,*+XAR2[AR0]       ; [CPU_ALU] |266| 
    1433 00000281 8AA9          MOVL      XAR4,ACC              ; [CPU_ALU] |266| 
    1434                      .dwpsn  file "../sources/dual_axis_servo_drive_user.c",line 267,column 5,is_stmt,isa 0
    1435 00000282 024C          MOVB      ACC,#76               ; [CPU_ALU] |267| 
    1436                      .dwpsn  file "../sources/dual_axis_servo_drive_user.c",line 266,column 5,is_stmt,isa 0
    1437 00000283 C2C4          MOVL      *+XAR4[0],XAR6        ; [CPU_ALU] |266| 
    1438                      .dwpsn  file "../sources/dual_axis_servo_drive_user.c",line 267,column 5,is_stmt,isa 0
    1439 00000284 0792          ADDL      ACC,*+XAR2[AR0]       ; [CPU_ALU] |267| 
    1440 00000285 8AA9          MOVL      XAR4,ACC              ; [CPU_ALU] |267| 
    1441                      .dwpsn  file "../sources/dual_axis_servo_drive_user.c",line 268,column 5,is_stmt,isa 0
    1442 00000286 024E          MOVB      ACC,#78               ; [CPU_ALU] |268| 
    1443                      .dwpsn  file "../sources/dual_axis_servo_drive_user.c",line 267,column 5,is_stmt,isa 0
    1444 00000287 C2C4          MOVL      *+XAR4[0],XAR6        ; [CPU_ALU] |267| 
    1445                      .dwpsn  file "../sources/dual_axis_servo_drive_user.c",line 268,column 5,is_stmt,isa 0
    1446 00000288 0792          ADDL      ACC,*+XAR2[AR0]       ; [CPU_ALU] |268| 
    1447 00000289 8AA9          MOVL      XAR4,ACC              ; [CPU_ALU] |268| 
    1448                      .dwpsn  file "../sources/dual_axis_servo_drive_user.c",line 269,column 5,is_stmt,isa 0
    1449 0000028a 0250          MOVB      ACC,#80               ; [CPU_ALU] |269| 
    1450                      .dwpsn  file "../sources/dual_axis_servo_drive_user.c",line 268,column 5,is_stmt,isa 0
    1451 0000028b C2C4          MOVL      *+XAR4[0],XAR6        ; [CPU_ALU] |268| 
    1452                      .dwpsn  file "../sources/dual_axis_servo_drive_user.c",line 269,column 5,is_stmt,isa 0
    1453 0000028c 0792          ADDL      ACC,*+XAR2[AR0]       ; [CPU_ALU] |269| 
    1454 0000028d 8AA9          MOVL      XAR4,ACC              ; [CPU_ALU] |269| 
    1455 0000028e FE8A          SUBB      SP,#10                ; [CPU_ARAU] 
    1456                      .dwcfi  cfa_offset, -8
    1457 0000028f C2C4          MOVL      *+XAR4[0],XAR6        ; [CPU_ALU] |269| 
    1458 00000290 82BE          MOVL      XAR3,*--SP            ; [CPU_ALU] 
    1459                      .dwcfi  cfa_offset, -6
    1460                      .dwcfi  restore_reg, 11
    1461 00000291 86BE          MOVL      XAR2,*--SP            ; [CPU_ALU] 
    1462                      .dwcfi  cfa_offset, -4
    1463                      .dwcfi  restore_reg, 9
    1464 00000292 8BBE          MOVL      XAR1,*--SP            ; [CPU_ALU] 
    1465                      .dwcfi  cfa_offset, -2
    1466                      .dwcfi  restore_reg, 7
    1467              $C$DW$43        .dwtag  DW_TAG_TI_branch
    1468                      .dwattr $C$DW$43, DW_AT_low_pc(0x00)
    1469                      .dwattr $C$DW$43, DW_AT_TI_return
    1470              
    1471 00000293 0006          LRETR     ; [CPU_ALU] 
    1472                      ; return occurs ; [] 
TMS320C2000 Assembler PC v22.6.2 Sat Dec 27 15:00:18 2025

Copyright (c) 1996-2018 Texas Instruments Incorporated
dual_axis_servo_drive_user.asm                                       PAGE   35

    1473                      .dwattr $C$DW$34, DW_AT_TI_end_file("../sources/dual_axis_servo_drive_user.c")
    1474                      .dwattr $C$DW$34, DW_AT_TI_end_line(0x110)
    1475                      .dwattr $C$DW$34, DW_AT_TI_end_column(0x01)
    1476                      .dwendentry
    1477                      .dwendtag $C$DW$34
    1478              
    1479 00000000               .sect   ".text:initControlVars"
    1480                      .clink
    1481                      .global ||initControlVars||
    1482              
    1483              $C$DW$44        .dwtag  DW_TAG_subprogram
    1484                      .dwattr $C$DW$44, DW_AT_name("initControlVars")
    1485                      .dwattr $C$DW$44, DW_AT_low_pc(||initControlVars||)
    1486                      .dwattr $C$DW$44, DW_AT_high_pc(0x00)
    1487                      .dwattr $C$DW$44, DW_AT_linkage_name("initControlVars")
    1488                      .dwattr $C$DW$44, DW_AT_external
    1489                      .dwattr $C$DW$44, DW_AT_decl_file("../sources/dual_axis_servo_drive_user.c")
    1490                      .dwattr $C$DW$44, DW_AT_decl_line(0x115)
    1491                      .dwattr $C$DW$44, DW_AT_decl_column(0x06)
    1492                      .dwattr $C$DW$44, DW_AT_TI_max_frame_size(-4)
    1493                      .dwpsn  file "../sources/dual_axis_servo_drive_user.c",line 278,column 1,is_stmt,address ||initContro
    1494              
    1495                      .dwfde $C$DW$CIE, ||initControlVars||
    1496              $C$DW$45        .dwtag  DW_TAG_formal_parameter
    1497                      .dwattr $C$DW$45, DW_AT_name("pMotor")
    1498                      .dwattr $C$DW$45, DW_AT_type(*$C$DW$T$116)
    1499                      .dwattr $C$DW$45, DW_AT_location[DW_OP_reg12]
    1500              
    1501              
    1502              ;***************************************************************
    1503              ;* FNAME: initControlVars               FR SIZE:   2           *
    1504              ;*                                                             *
    1505              ;* FUNCTION ENVIRONMENT                                        *
    1506              ;*                                                             *
    1507              ;* FUNCTION PROPERTIES                                         *
    1508              ;*                            0 Parameter,  0 Auto,  2 SOE     *
    1509              ;***************************************************************
    1510              
    1511              ||initControlVars||:
    1512              ;* AR5   assigned to $O$C1
    1513              ;* AR5   assigned to $O$C2
    1514              ;* AR4   assigned to pMotor
    1515              $C$DW$46        .dwtag  DW_TAG_variable
    1516                      .dwattr $C$DW$46, DW_AT_name("pMotor")
    1517                      .dwattr $C$DW$46, DW_AT_type(*$C$DW$T$117)
    1518                      .dwattr $C$DW$46, DW_AT_location[DW_OP_reg12]
    1519              
    1520                      .dwcfi  cfa_offset, -2
    1521                      .dwcfi  save_reg_to_mem, 26, 0
    1522 00000000 B2BD          MOVL      *SP++,XAR1            ; [CPU_ALU] 
    1523                      .dwcfi  save_reg_to_mem, 7, 2
    1524                      .dwcfi  cfa_offset, -4
    1525                      .dwpsn  file "../sources/dual_axis_servo_drive_user.c",line 302,column 5,is_stmt,isa 0
    1526 00000001 D00A          MOVB      XAR0,#10              ; [CPU_ALU] |302| 
    1527 00000002 E2AF          MOV32     R0H,*+XAR4[AR0]       ; [CPU_FPU] |302| 
TMS320C2000 Assembler PC v22.6.2 Sat Dec 27 15:00:18 2025

Copyright (c) 1996-2018 Texas Instruments Incorporated
dual_axis_servo_drive_user.asm                                       PAGE   36

         00000003 0094 
    1528                      .dwpsn  file "../sources/dual_axis_servo_drive_user.c",line 301,column 5,is_stmt,isa 0
    1529 00000004 E801          MOVIZ     R1H,#16256            ; [CPU_FPU] |301| 
         00000005 FC01 
    1530                      .dwpsn  file "../sources/dual_axis_servo_drive_user.c",line 302,column 5,is_stmt,isa 0
    1531 00000006 E850          MPYF32    R0H,R0H,#16840        ; [CPU_FPU] |302| 
         00000007 7200 
    1532 00000008 D0B0          MOVB      XAR0,#176             ; [CPU_ALU] |302| 
    1533 00000009 E203          MOV32     *+XAR4[AR0],R0H       ; [CPU_FPU] |302| 
         0000000a 0094 
    1534                      .dwpsn  file "../sources/dual_axis_servo_drive_user.c",line 303,column 5,is_stmt,isa 0
    1535 0000000b D0B0          MOVB      XAR0,#176             ; [CPU_ALU] |303| 
    1536 0000000c E2AF          MOV32     R0H,*+XAR4[AR0]       ; [CPU_FPU] |303| 
         0000000d 0094 
    1537                      .dwpsn  file "../sources/dual_axis_servo_drive_user.c",line 301,column 5,is_stmt,isa 0
    1538 0000000e D0AE          MOVB      XAR0,#174             ; [CPU_ALU] |301| 
    1539                      .dwpsn  file "../sources/dual_axis_servo_drive_user.c",line 303,column 5,is_stmt,isa 0
    1540 0000000f E84F          MPYF32    R0H,R0H,#16128        ; [CPU_FPU] |303| 
         00000010 C000 
    1541                      .dwpsn  file "../sources/dual_axis_servo_drive_user.c",line 301,column 5,is_stmt,isa 0
    1542 00000011 E203          MOV32     *+XAR4[AR0],R1H       ; [CPU_FPU] |301| 
         00000012 0194 
    1543                      .dwpsn  file "../sources/dual_axis_servo_drive_user.c",line 303,column 5,is_stmt,isa 0
    1544 00000013 D0AE          MOVB      XAR0,#174             ; [CPU_ALU] |303| 
    1545 00000014 E2AF          MOV32     R1H,*+XAR4[AR0]       ; [CPU_FPU] |303| 
         00000015 0194 
    1546                      .dwpsn  file "../sources/dual_axis_servo_drive_user.c",line 304,column 5,is_stmt,isa 0
    1547 00000016 D0B0          MOVB      XAR0,#176             ; [CPU_ALU] |304| 
    1548                      .dwpsn  file "../sources/dual_axis_servo_drive_user.c",line 303,column 5,is_stmt,isa 0
    1549              
    1550                      MOV32     R0H,*+XAR4[AR0]       ; [CPU_FPU] |304| 
    1551 00000017 E310  ||      ADDF32    R3H,R1H,R0H           ; [CPU_FPU] |303| 
         00000018 5894 
    1552              
    1553                      .dwpsn  file "../sources/dual_axis_servo_drive_user.c",line 304,column 5,is_stmt,isa 0
    1554 00000019 D0AE          MOVB      XAR0,#174             ; [CPU_ALU] |304| 
    1555 0000001a E84F          MPYF32    R1H,R0H,#16128        ; [CPU_FPU] |304| 
         0000001b C001 
    1556 0000001c E2AF          MOV32     R0H,*+XAR4[AR0]       ; [CPU_FPU] |304| 
         0000001d 0094 
    1557                      .dwpsn  file "../sources/dual_axis_servo_drive_user.c",line 312,column 5,is_stmt,isa 0
    1558 0000001e D00A          MOVB      XAR0,#10              ; [CPU_ALU] |312| 
    1559                      .dwpsn  file "../sources/dual_axis_servo_drive_user.c",line 304,column 5,is_stmt,isa 0
    1560              
    1561                      MOV32     R0H,*+XAR4[6]         ; [CPU_FPU] |312| 
    1562 0000001f E320  ||      SUBF32    R2H,R1H,R0H           ; [CPU_FPU] |304| 
         00000020 50F4 
    1563              
    1564                      .dwpsn  file "../sources/dual_axis_servo_drive_user.c",line 312,column 5,is_stmt,isa 0
    1565 00000021 E2AF          MOV32     R1H,*+XAR4[AR0]       ; [CPU_FPU] |312| 
         00000022 0194 
    1566 00000023 E700          MPYF32    R0H,R1H,R0H           ; [CPU_FPU] |312| 
         00000024 0008 
    1567 00000025 7700          NOP       ; [CPU_ALU] 
    1568 00000026 E801          MOVIZ     R1H,#16256            ; [CPU_FPU] |312| 
TMS320C2000 Assembler PC v22.6.2 Sat Dec 27 15:00:18 2025

Copyright (c) 1996-2018 Texas Instruments Incorporated
dual_axis_servo_drive_user.asm                                       PAGE   37

         00000027 FC01 
    1569 00000028 E274          DIVF32    R0H,R1H,R0H           ; [CPU_FPU] |312| 
         00000029 0008 
    1570 0000002a 7700          NOP       ; [CPU_ALU] 
    1571 0000002b 7700          NOP       ; [CPU_ALU] 
    1572 0000002c D09A          MOVB      XAR0,#154             ; [CPU_ALU] |312| 
    1573                      .dwpsn  file "../sources/dual_axis_servo_drive_user.c",line 317,column 5,is_stmt,isa 0
    1574 0000002d E2AF          MOV32     R1H,*+XAR4[6]         ; [CPU_FPU] |317| 
         0000002e 01F4 
    1575                      .dwpsn  file "../sources/dual_axis_servo_drive_user.c",line 312,column 5,is_stmt,isa 0
    1576 0000002f E203          MOV32     *+XAR4[AR0],R0H       ; [CPU_FPU] |312| 
         00000030 0094 
    1577                      .dwpsn  file "../sources/dual_axis_servo_drive_user.c",line 317,column 5,is_stmt,isa 0
    1578 00000031 D008          MOVB      XAR0,#8               ; [CPU_ALU] |317| 
    1579 00000032 E2AF          MOV32     R0H,*+XAR4[AR0]       ; [CPU_FPU] |317| 
         00000033 0094 
    1580 00000034 E274          DIVF32    R0H,R1H,R0H           ; [CPU_FPU] |317| 
         00000035 0008 
    1581 00000036 7700          NOP       ; [CPU_ALU] 
    1582 00000037 7700          NOP       ; [CPU_ALU] 
    1583 00000038 7700          NOP       ; [CPU_ALU] 
    1584 00000039 7700          NOP       ; [CPU_ALU] 
    1585 0000003a E850          MPYF32    R0H,R0H,#17136        ; [CPU_FPU] |317| 
         0000003b BC00 
    1586 0000003c 7700          NOP       ; [CPU_ALU] 
    1587 0000003d E68A          F32TOUI32 R0H,R0H               ; [CPU_FPU] |317| 
         0000003e 0000 
    1588 0000003f D098          MOVB      XAR0,#152             ; [CPU_ALU] |317| 
    1589 00000040 E203          MOV32     *+XAR4[AR0],R0H       ; [CPU_FPU] |317| 
         00000041 0094 
    1590                      .dwpsn  file "../sources/dual_axis_servo_drive_user.c",line 303,column 5,is_stmt,isa 0
    1591 00000042 D0B2          MOVB      XAR0,#178             ; [CPU_ALU] |303| 
    1592                      .dwpsn  file "../sources/dual_axis_servo_drive_user.c",line 315,column 5,is_stmt,isa 0
    1593 00000043 E802          MOVIZ     R0H,#16585            ; [CPU_FPU] |315| 
         00000044 0648 
    1594                      .dwpsn  file "../sources/dual_axis_servo_drive_user.c",line 303,column 5,is_stmt,isa 0
    1595 00000045 E203          MOV32     *+XAR4[AR0],R3H       ; [CPU_FPU] |303| 
         00000046 0394 
    1596                      .dwpsn  file "../sources/dual_axis_servo_drive_user.c",line 304,column 5,is_stmt,isa 0
    1597 00000047 D0B4          MOVB      XAR0,#180             ; [CPU_ALU] |304| 
    1598                      .dwpsn  file "../sources/dual_axis_servo_drive_user.c",line 315,column 5,is_stmt,isa 0
    1599 00000048 E808          MOVXI     R0H,#4059             ; [CPU_FPU] |315| 
         00000049 7ED8 
    1600                      .dwpsn  file "../sources/dual_axis_servo_drive_user.c",line 304,column 5,is_stmt,isa 0
    1601 0000004a E203          MOV32     *+XAR4[AR0],R2H       ; [CPU_FPU] |304| 
         0000004b 0294 
    1602                      .dwpsn  file "../sources/dual_axis_servo_drive_user.c",line 315,column 5,is_stmt,isa 0
    1603 0000004c D00A          MOVB      XAR0,#10              ; [CPU_ALU] |315| 
    1604 0000004d E2AF          MOV32     R1H,*+XAR4[AR0]       ; [CPU_FPU] |315| 
         0000004e 0194 
    1605 0000004f E700          MPYF32    R0H,R0H,R1H           ; [CPU_FPU] |315| 
         00000050 0040 
    1606 00000051 7700          NOP       ; [CPU_ALU] 
    1607 00000052 E850          MPYF32    R0H,R0H,#16544        ; [CPU_FPU] |315| 
         00000053 2800 
TMS320C2000 Assembler PC v22.6.2 Sat Dec 27 15:00:18 2025

Copyright (c) 1996-2018 Texas Instruments Incorporated
dual_axis_servo_drive_user.asm                                       PAGE   38

    1608 00000054 7700          NOP       ; [CPU_ALU] 
    1609 00000055 E88F          ADDF32    R0H,R0H,#16256        ; [CPU_FPU] |315| 
         00000056 E000 
    1610 00000057 7700          NOP       ; [CPU_ALU] 
    1611 00000058 E801          MOVIZ     R1H,#16256            ; [CPU_FPU] |315| 
         00000059 FC01 
    1612 0000005a E274          DIVF32    R0H,R1H,R0H           ; [CPU_FPU] |315| 
         0000005b 0008 
    1613 0000005c 7700          NOP       ; [CPU_ALU] 
    1614 0000005d 7700          NOP       ; [CPU_ALU] 
    1615                      .dwpsn  file "../sources/dual_axis_servo_drive_user.c",line 281,column 5,is_stmt,isa 0
    1616 0000005e 020A          MOVB      ACC,#10               ; [CPU_ALU] |281| 
    1617                      .dwpsn  file "../sources/dual_axis_servo_drive_user.c",line 315,column 5,is_stmt,isa 0
    1618 0000005f D09C          MOVB      XAR0,#156             ; [CPU_ALU] |315| 
    1619 00000060 E203          MOV32     *+XAR4[AR0],R0H       ; [CPU_FPU] |315| 
         00000061 0094 
    1620                      .dwpsn  file "../sources/dual_axis_servo_drive_user.c",line 316,column 5,is_stmt,isa 0
    1621 00000062 D09C          MOVB      XAR0,#156             ; [CPU_ALU] |316| 
    1622 00000063 E2AF          MOV32     R1H,*+XAR4[AR0]       ; [CPU_FPU] |316| 
         00000064 0194 
    1623                      .dwpsn  file "../sources/dual_axis_servo_drive_user.c",line 305,column 5,is_stmt,isa 0
    1624 00000065 D00C          MOVB      XAR0,#12              ; [CPU_ALU] |305| 
    1625 00000066 E2AF          MOV32     R0H,*+XAR4[AR0]       ; [CPU_FPU] |305| 
         00000067 0094 
    1626 00000068 E84F          MPYF32    R0H,R0H,#16128        ; [CPU_FPU] |305| 
         00000069 C000 
    1627 0000006a D0B6          MOVB      XAR0,#182             ; [CPU_ALU] |305| 
    1628 0000006b E203          MOV32     *+XAR4[AR0],R0H       ; [CPU_FPU] |305| 
         0000006c 0094 
    1629                      .dwpsn  file "../sources/dual_axis_servo_drive_user.c",line 306,column 5,is_stmt,isa 0
    1630 0000006d D00C          MOVB      XAR0,#12              ; [CPU_ALU] |306| 
    1631 0000006e E2AF          MOV32     R0H,*+XAR4[AR0]       ; [CPU_FPU] |306| 
         0000006f 0094 
    1632 00000070 E86F          MPYF32    R0H,R0H,#48896        ; [CPU_FPU] |306| 
         00000071 C000 
    1633 00000072 D0B8          MOVB      XAR0,#184             ; [CPU_ALU] |306| 
    1634 00000073 E203          MOV32     *+XAR4[AR0],R0H       ; [CPU_FPU] |306| 
         00000074 0094 
    1635                      .dwpsn  file "../sources/dual_axis_servo_drive_user.c",line 281,column 5,is_stmt,isa 0
    1636 00000075 D05C          MOVB      XAR0,#92              ; [CPU_ALU] |281| 
    1637                      .dwpsn  file "../sources/dual_axis_servo_drive_user.c",line 287,column 5,is_stmt,isa 0
    1638 00000076 E801          MOVIZ     R0H,#16128            ; [CPU_FPU] |287| 
         00000077 F800 
    1639                      .dwpsn  file "../sources/dual_axis_servo_drive_user.c",line 281,column 5,is_stmt,isa 0
    1640 00000078 1E94          MOVL      *+XAR4[AR0],ACC       ; [CPU_ALU] |281| 
    1641                      .dwpsn  file "../sources/dual_axis_servo_drive_user.c",line 320,column 5,is_stmt,isa 0
    1642 00000079 D0AE          MOVB      XAR0,#174             ; [CPU_ALU] |320| 
    1643 0000007a C494          MOVL      XAR6,*+XAR4[AR0]      ; [CPU_ALU] |320| 
    1644                      .dwpsn  file "../sources/dual_axis_servo_drive_user.c",line 287,column 5,is_stmt,isa 0
    1645 0000007b D0C0          MOVB      XAR0,#192             ; [CPU_ALU] |287| 
    1646 0000007c E203          MOV32     *+XAR4[AR0],R0H       ; [CPU_FPU] |287| 
         0000007d 0094 
    1647                      .dwpsn  file "../sources/dual_axis_servo_drive_user.c",line 289,column 5,is_stmt,isa 0
    1648 0000007e D0C4          MOVB      XAR0,#196             ; [CPU_ALU] |289| 
    1649 0000007f E801          MOVIZ     R0H,#16256            ; [CPU_FPU] |289| 
TMS320C2000 Assembler PC v22.6.2 Sat Dec 27 15:00:18 2025

Copyright (c) 1996-2018 Texas Instruments Incorporated
dual_axis_servo_drive_user.asm                                       PAGE   39

         00000080 FC00 
    1650 00000081 E203          MOV32     *+XAR4[AR0],R0H       ; [CPU_FPU] |289| 
         00000082 0094 
    1651                      .dwpsn  file "../sources/dual_axis_servo_drive_user.c",line 290,column 5,is_stmt,isa 0
    1652 00000083 D0C6          MOVB      XAR0,#198             ; [CPU_ALU] |290| 
    1653 00000084 E805          MOVIZ     R0H,#49024            ; [CPU_FPU] |290| 
         00000085 FC00 
    1654                      .dwpsn  file "../sources/dual_axis_servo_drive_user.c",line 320,column 5,is_stmt,isa 0
    1655 00000086 022A          MOVB      ACC,#42               ; [CPU_ALU] |320| 
    1656                      .dwpsn  file "../sources/dual_axis_servo_drive_user.c",line 290,column 5,is_stmt,isa 0
    1657 00000087 E203          MOV32     *+XAR4[AR0],R0H       ; [CPU_FPU] |290| 
         00000088 0094 
    1658                      .dwpsn  file "../sources/dual_axis_servo_drive_user.c",line 293,column 5,is_stmt,isa 0
    1659 00000089 D0DE          MOVB      XAR0,#222             ; [CPU_ALU] |293| 
    1660 0000008a E801          MOVIZ     R0H,#16128            ; [CPU_FPU] |293| 
         0000008b F800 
    1661 0000008c E203          MOV32     *+XAR4[AR0],R0H       ; [CPU_FPU] |293| 
         0000008d 0094 
    1662                      .dwpsn  file "../sources/dual_axis_servo_drive_user.c",line 295,column 5,is_stmt,isa 0
    1663 0000008e D0E2          MOVB      XAR0,#226             ; [CPU_ALU] |295| 
    1664 0000008f E590          ZERO      R0H                   ; [CPU_FPU] |295| 
    1665 00000090 E203          MOV32     *+XAR4[AR0],R0H       ; [CPU_FPU] |295| 
         00000091 0094 
    1666                      .dwpsn  file "../sources/dual_axis_servo_drive_user.c",line 296,column 5,is_stmt,isa 0
    1667 00000092 D0DC          MOVB      XAR0,#220             ; [CPU_ALU] |296| 
    1668 00000093 E801          MOVIZ     R0H,#16256            ; [CPU_FPU] |296| 
         00000094 FC00 
    1669 00000095 E203          MOV32     *+XAR4[AR0],R0H       ; [CPU_FPU] |296| 
         00000096 0094 
    1670                      .dwpsn  file "../sources/dual_axis_servo_drive_user.c",line 307,column 5,is_stmt,isa 0
    1671 00000097 D0A4          MOVB      XAR0,#164             ; [CPU_ALU] |307| 
    1672 00000098 E590          ZERO      R0H                   ; [CPU_FPU] |307| 
    1673 00000099 E203          MOV32     *+XAR4[AR0],R0H       ; [CPU_FPU] |307| 
         0000009a 0094 
    1674                      .dwpsn  file "../sources/dual_axis_servo_drive_user.c",line 308,column 5,is_stmt,isa 0
    1675 0000009b D0A8          MOVB      XAR0,#168             ; [CPU_ALU] |308| 
    1676 0000009c E203          MOV32     *+XAR4[AR0],R0H       ; [CPU_FPU] |308| 
         0000009d 0094 
    1677                      .dwpsn  file "../sources/dual_axis_servo_drive_user.c",line 309,column 5,is_stmt,isa 0
    1678 0000009e D0AA          MOVB      XAR0,#170             ; [CPU_ALU] |309| 
    1679 0000009f E203          MOV32     *+XAR4[AR0],R0H       ; [CPU_FPU] |309| 
         000000a0 0094 
    1680                      .dwpsn  file "../sources/dual_axis_servo_drive_user.c",line 288,column 5,is_stmt,isa 0
    1681 000000a1 D0C2          MOVB      XAR0,#194             ; [CPU_ALU] |288| 
    1682 000000a2 E801          MOVIZ     R0H,#14979            ; [CPU_FPU] |288| 
         000000a3 D418 
    1683 000000a4 E808          MOVXI     R0H,#4719             ; [CPU_FPU] |288| 
         000000a5 9378 
    1684 000000a6 E203          MOV32     *+XAR4[AR0],R0H       ; [CPU_FPU] |288| 
         000000a7 0094 
    1685                      .dwpsn  file "../sources/dual_axis_servo_drive_user.c",line 294,column 5,is_stmt,isa 0
    1686 000000a8 D0E0          MOVB      XAR0,#224             ; [CPU_ALU] |294| 
    1687 000000a9 E801          MOVIZ     R0H,#14979            ; [CPU_FPU] |294| 
         000000aa D418 
    1688 000000ab E808          MOVXI     R0H,#4719             ; [CPU_FPU] |294| 
TMS320C2000 Assembler PC v22.6.2 Sat Dec 27 15:00:18 2025

Copyright (c) 1996-2018 Texas Instruments Incorporated
dual_axis_servo_drive_user.asm                                       PAGE   40

         000000ac 9378 
    1689 000000ad E203          MOV32     *+XAR4[AR0],R0H       ; [CPU_FPU] |294| 
         000000ae 0094 
    1690                      .dwpsn  file "../sources/dual_axis_servo_drive_user.c",line 297,column 5,is_stmt,isa 0
    1691 000000af D0E6          MOVB      XAR0,#230             ; [CPU_ALU] |297| 
    1692 000000b0 E801          MOVIZ     R0H,#16243            ; [CPU_FPU] |297| 
         000000b1 FB98 
    1693 000000b2 E809          MOVXI     R0H,#13107            ; [CPU_FPU] |297| 
         000000b3 9998 
    1694 000000b4 E203          MOV32     *+XAR4[AR0],R0H       ; [CPU_FPU] |297| 
         000000b5 0094 
    1695                      .dwpsn  file "../sources/dual_axis_servo_drive_user.c",line 298,column 5,is_stmt,isa 0
    1696 000000b6 D0E8          MOVB      XAR0,#232             ; [CPU_ALU] |298| 
    1697 000000b7 E805          MOVIZ     R0H,#49011            ; [CPU_FPU] |298| 
         000000b8 FB98 
    1698 000000b9 E809          MOVXI     R0H,#13107            ; [CPU_FPU] |298| 
         000000ba 9998 
    1699 000000bb E203          MOV32     *+XAR4[AR0],R0H       ; [CPU_FPU] |298| 
         000000bc 0094 
    1700                      .dwpsn  file "../sources/dual_axis_servo_drive_user.c",line 316,column 5,is_stmt,isa 0
    1701 000000bd E8CF          SUBF32    R0H,#16256,R1H        ; [CPU_FPU] |316| 
         000000be E008 
    1702 000000bf D09E          MOVB      XAR0,#158             ; [CPU_ALU] |316| 
    1703 000000c0 E203          MOV32     *+XAR4[AR0],R0H       ; [CPU_FPU] |316| 
         000000c1 0094 
    1704                      .dwpsn  file "../sources/dual_axis_servo_drive_user.c",line 320,column 5,is_stmt,isa 0
    1705 000000c2 8D00          MOVL      XAR0,#280             ; [CPU_ALU] |320| 
         000000c3 0118 
    1706 000000c4 0794          ADDL      ACC,*+XAR4[AR0]       ; [CPU_ALU] |320| 
    1707 000000c5 83A9          MOVL      XAR5,ACC              ; [CPU_ALU] |320| 
    1708                      .dwpsn  file "../sources/dual_axis_servo_drive_user.c",line 321,column 5,is_stmt,isa 0
    1709 000000c6 022C          MOVB      ACC,#44               ; [CPU_ALU] |321| 
    1710                      .dwpsn  file "../sources/dual_axis_servo_drive_user.c",line 320,column 5,is_stmt,isa 0
    1711 000000c7 C2C5          MOVL      *+XAR5[0],XAR6        ; [CPU_ALU] |320| 
    1712                      .dwpsn  file "../sources/dual_axis_servo_drive_user.c",line 321,column 5,is_stmt,isa 0
    1713 000000c8 0794          ADDL      ACC,*+XAR4[AR0]       ; [CPU_ALU] |321| 
    1714 000000c9 83A9          MOVL      XAR5,ACC              ; [CPU_ALU] |321| 
    1715 000000ca D0B0          MOVB      XAR0,#176             ; [CPU_ALU] |321| 
    1716 000000cb C494          MOVL      XAR6,*+XAR4[AR0]      ; [CPU_ALU] |321| 
    1717                      .dwpsn  file "../sources/dual_axis_servo_drive_user.c",line 322,column 5,is_stmt,isa 0
    1718 000000cc 8D40          MOVL      XAR1,#280             ; [CPU_ALU] |322| 
         000000cd 0118 
    1719                      .dwpsn  file "../sources/dual_axis_servo_drive_user.c",line 321,column 5,is_stmt,isa 0
    1720 000000ce C2C5          MOVL      *+XAR5[0],XAR6        ; [CPU_ALU] |321| 
    1721                      .dwpsn  file "../sources/dual_axis_servo_drive_user.c",line 322,column 5,is_stmt,isa 0
    1722 000000cf 839C          MOVL      XAR5,*+XAR4[AR1]      ; [CPU_ALU] |322| 
    1723 000000d0 D02C          MOVB      XAR0,#44              ; [CPU_ALU] |322| 
    1724 000000d1 D12A          MOVB      XAR1,#42              ; [CPU_ALU] |322| 
    1725 000000d2 E2AF          MOV32     R0H,*+XAR5[AR0]       ; [CPU_FPU] |322| 
         000000d3 0095 
    1726 000000d4 E84F          MPYF32    R0H,R0H,#16128        ; [CPU_FPU] |322| 
         000000d5 C000 
    1727 000000d6 E2AF          MOV32     R1H,*+XAR5[AR1]       ; [CPU_FPU] |322| 
         000000d7 019D 
    1728 000000d8 E710          ADDF32    R0H,R0H,R1H           ; [CPU_FPU] |322| 
TMS320C2000 Assembler PC v22.6.2 Sat Dec 27 15:00:18 2025

Copyright (c) 1996-2018 Texas Instruments Incorporated
dual_axis_servo_drive_user.asm                                       PAGE   41

         000000d9 0040 
    1729 000000da D02E          MOVB      XAR0,#46              ; [CPU_ALU] |322| 
    1730 000000db E203          MOV32     *+XAR5[AR0],R0H       ; [CPU_FPU] |322| 
         000000dc 0095 
    1731                      .dwpsn  file "../sources/dual_axis_servo_drive_user.c",line 325,column 5,is_stmt,isa 0
    1732 000000dd 8D00          MOVL      XAR0,#280             ; [CPU_ALU] |325| 
         000000de 0118 
    1733 000000df 8394          MOVL      XAR5,*+XAR4[AR0]      ; [CPU_ALU] |325| 
    1734 000000e0 D12C          MOVB      XAR1,#44              ; [CPU_ALU] |325| 
    1735                      .dwpsn  file "../sources/dual_axis_servo_drive_user.c",line 328,column 5,is_stmt,isa 0
    1736 000000e1 0232          MOVB      ACC,#50               ; [CPU_ALU] |328| 
    1737                      .dwpsn  file "../sources/dual_axis_servo_drive_user.c",line 325,column 5,is_stmt,isa 0
    1738 000000e2 D02A          MOVB      XAR0,#42              ; [CPU_ALU] |325| 
    1739 000000e3 E2AF          MOV32     R0H,*+XAR5[AR1]       ; [CPU_FPU] |325| 
         000000e4 009D 
    1740 000000e5 E84F          MPYF32    R1H,R0H,#16128        ; [CPU_FPU] |325| 
         000000e6 C001 
    1741 000000e7 E2AF          MOV32     R0H,*+XAR5[AR0]       ; [CPU_FPU] |325| 
         000000e8 0095 
    1742 000000e9 E720          SUBF32    R0H,R1H,R0H           ; [CPU_FPU] |325| 
         000000ea 0008 
    1743 000000eb D030          MOVB      XAR0,#48              ; [CPU_ALU] |325| 
    1744 000000ec E203          MOV32     *+XAR5[AR0],R0H       ; [CPU_FPU] |325| 
         000000ed 0095 
    1745                      .dwpsn  file "../sources/dual_axis_servo_drive_user.c",line 328,column 5,is_stmt,isa 0
    1746 000000ee D00C          MOVB      XAR0,#12              ; [CPU_ALU] |328| 
    1747 000000ef E801          MOVIZ     R0H,#16204            ; [CPU_FPU] |328| 
         000000f0 FA60 
    1748 000000f1 E2AF          MOV32     R1H,*+XAR4[AR0]       ; [CPU_FPU] |328| 
         000000f2 0194 
    1749 000000f3 8D00          MOVL      XAR0,#280             ; [CPU_ALU] |328| 
         000000f4 0118 
    1750 000000f5 0794          ADDL      ACC,*+XAR4[AR0]       ; [CPU_ALU] |328| 
    1751                      .dwpsn  file "../sources/dual_axis_servo_drive_user.c",line 329,column 5,is_stmt,isa 0
    1752 000000f6 D00C          MOVB      XAR0,#12              ; [CPU_ALU] |329| 
    1753                      .dwpsn  file "../sources/dual_axis_servo_drive_user.c",line 328,column 5,is_stmt,isa 0
    1754 000000f7 83A9          MOVL      XAR5,ACC              ; [CPU_ALU] |328| 
    1755 000000f8 E80E          MOVXI     R0H,#52429            ; [CPU_FPU] |328| 
         000000f9 6668 
    1756 000000fa E700          MPYF32    R0H,R0H,R1H           ; [CPU_FPU] |328| 
         000000fb 0040 
    1757                      .dwpsn  file "../sources/dual_axis_servo_drive_user.c",line 329,column 5,is_stmt,isa 0
    1758 000000fc 0234          MOVB      ACC,#52               ; [CPU_ALU] |329| 
    1759                      .dwpsn  file "../sources/dual_axis_servo_drive_user.c",line 328,column 5,is_stmt,isa 0
    1760 000000fd E203          MOV32     *+XAR5[0],R0H         ; [CPU_FPU] |328| 
         000000fe 00C5 
    1761                      .dwpsn  file "../sources/dual_axis_servo_drive_user.c",line 329,column 5,is_stmt,isa 0
    1762 000000ff E805          MOVIZ     R0H,#48972            ; [CPU_FPU] |329| 
         00000100 FA60 
    1763 00000101 E2AF          MOV32     R1H,*+XAR4[AR0]       ; [CPU_FPU] |329| 
         00000102 0194 
    1764 00000103 8D00          MOVL      XAR0,#280             ; [CPU_ALU] |329| 
         00000104 0118 
    1765 00000105 0794          ADDL      ACC,*+XAR4[AR0]       ; [CPU_ALU] |329| 
    1766 00000106 83A9          MOVL      XAR5,ACC              ; [CPU_ALU] |329| 
TMS320C2000 Assembler PC v22.6.2 Sat Dec 27 15:00:18 2025

Copyright (c) 1996-2018 Texas Instruments Incorporated
dual_axis_servo_drive_user.asm                                       PAGE   42

    1767 00000107 E80E          MOVXI     R0H,#52429            ; [CPU_FPU] |329| 
         00000108 6668 
    1768 00000109 E700          MPYF32    R0H,R0H,R1H           ; [CPU_FPU] |329| 
         0000010a 0040 
    1769                      .dwpsn  file "../sources/dual_axis_servo_drive_user.c",line 330,column 5,is_stmt,isa 0
    1770 0000010b 0220          MOVB      ACC,#32               ; [CPU_ALU] |330| 
    1771                      .dwpsn  file "../sources/dual_axis_servo_drive_user.c",line 329,column 5,is_stmt,isa 0
    1772 0000010c E203          MOV32     *+XAR5[0],R0H         ; [CPU_FPU] |329| 
         0000010d 00C5 
    1773                      .dwpsn  file "../sources/dual_axis_servo_drive_user.c",line 330,column 5,is_stmt,isa 0
    1774 0000010e 0794          ADDL      ACC,*+XAR4[AR0]       ; [CPU_ALU] |330| 
    1775 0000010f 83A9          MOVL      XAR5,ACC              ; [CPU_ALU] |330| 
    1776 00000110 E590          ZERO      R0H                   ; [CPU_FPU] |330| 
    1777                      .dwpsn  file "../sources/dual_axis_servo_drive_user.c",line 331,column 5,is_stmt,isa 0
    1778 00000111 0224          MOVB      ACC,#36               ; [CPU_ALU] |331| 
    1779                      .dwpsn  file "../sources/dual_axis_servo_drive_user.c",line 330,column 5,is_stmt,isa 0
    1780 00000112 E203          MOV32     *+XAR5[0],R0H         ; [CPU_FPU] |330| 
         00000113 00C5 
    1781                      .dwpsn  file "../sources/dual_axis_servo_drive_user.c",line 331,column 5,is_stmt,isa 0
    1782 00000114 0794          ADDL      ACC,*+XAR4[AR0]       ; [CPU_ALU] |331| 
    1783 00000115 83A9          MOVL      XAR5,ACC              ; [CPU_ALU] |331| 
    1784                      .dwpsn  file "../sources/dual_axis_servo_drive_user.c",line 332,column 5,is_stmt,isa 0
    1785 00000116 0226          MOVB      ACC,#38               ; [CPU_ALU] |332| 
    1786                      .dwpsn  file "../sources/dual_axis_servo_drive_user.c",line 331,column 5,is_stmt,isa 0
    1787 00000117 E203          MOV32     *+XAR5[0],R0H         ; [CPU_FPU] |331| 
         00000118 00C5 
    1788                      .dwpsn  file "../sources/dual_axis_servo_drive_user.c",line 332,column 5,is_stmt,isa 0
    1789 00000119 0794          ADDL      ACC,*+XAR4[AR0]       ; [CPU_ALU] |332| 
    1790 0000011a 83A9          MOVL      XAR5,ACC              ; [CPU_ALU] |332| 
    1791                      .dwpsn  file "../sources/dual_axis_servo_drive_user.c",line 335,column 5,is_stmt,isa 0
    1792 0000011b D00A          MOVB      XAR0,#10              ; [CPU_ALU] |335| 
    1793 0000011c 0216          MOVB      ACC,#22               ; [CPU_ALU] |335| 
    1794                      .dwpsn  file "../sources/dual_axis_servo_drive_user.c",line 332,column 5,is_stmt,isa 0
    1795 0000011d E203          MOV32     *+XAR5[0],R0H         ; [CPU_FPU] |332| 
         0000011e 00C5 
    1796                      .dwpsn  file "../sources/dual_axis_servo_drive_user.c",line 335,column 5,is_stmt,isa 0
    1797 0000011f E2AF          MOV32     R1H,*+XAR4[AR0]       ; [CPU_FPU] |335| 
         00000120 0194 
    1798 00000121 8D00          MOVL      XAR0,#280             ; [CPU_ALU] |335| 
         00000122 0118 
    1799 00000123 0794          ADDL      ACC,*+XAR4[AR0]       ; [CPU_ALU] |335| 
    1800 00000124 83A9          MOVL      XAR5,ACC              ; [CPU_ALU] |335| 
    1801 00000125 E2AF          MOV32     R0H,*+XAR4[6]         ; [CPU_FPU] |335| 
         00000126 00F4 
    1802 00000127 E700          MPYF32    R0H,R1H,R0H           ; [CPU_FPU] |335| 
         00000128 0008 
    1803                      .dwpsn  file "../sources/dual_axis_servo_drive_user.c",line 336,column 5,is_stmt,isa 0
    1804 00000129 0218          MOVB      ACC,#24               ; [CPU_ALU] |336| 
    1805                      .dwpsn  file "../sources/dual_axis_servo_drive_user.c",line 335,column 5,is_stmt,isa 0
    1806 0000012a E203          MOV32     *+XAR5[0],R0H         ; [CPU_FPU] |335| 
         0000012b 00C5 
    1807                      .dwpsn  file "../sources/dual_axis_servo_drive_user.c",line 336,column 5,is_stmt,isa 0
    1808 0000012c 0794          ADDL      ACC,*+XAR4[AR0]       ; [CPU_ALU] |336| 
    1809 0000012d 83A9          MOVL      XAR5,ACC              ; [CPU_ALU] |336| 
    1810 0000012e E590          ZERO      R0H                   ; [CPU_FPU] |336| 
TMS320C2000 Assembler PC v22.6.2 Sat Dec 27 15:00:18 2025

Copyright (c) 1996-2018 Texas Instruments Incorporated
dual_axis_servo_drive_user.asm                                       PAGE   43

    1811                      .dwpsn  file "../sources/dual_axis_servo_drive_user.c",line 337,column 5,is_stmt,isa 0
    1812 0000012f 021C          MOVB      ACC,#28               ; [CPU_ALU] |337| 
    1813                      .dwpsn  file "../sources/dual_axis_servo_drive_user.c",line 336,column 5,is_stmt,isa 0
    1814 00000130 E203          MOV32     *+XAR5[0],R0H         ; [CPU_FPU] |336| 
         00000131 00C5 
    1815                      .dwpsn  file "../sources/dual_axis_servo_drive_user.c",line 337,column 5,is_stmt,isa 0
    1816 00000132 0794          ADDL      ACC,*+XAR4[AR0]       ; [CPU_ALU] |337| 
    1817 00000133 83A9          MOVL      XAR5,ACC              ; [CPU_ALU] |337| 
    1818                      .dwpsn  file "../sources/dual_axis_servo_drive_user.c",line 338,column 5,is_stmt,isa 0
    1819 00000134 021A          MOVB      ACC,#26               ; [CPU_ALU] |338| 
    1820                      .dwpsn  file "../sources/dual_axis_servo_drive_user.c",line 337,column 5,is_stmt,isa 0
    1821 00000135 E203          MOV32     *+XAR5[0],R0H         ; [CPU_FPU] |337| 
         00000136 00C5 
    1822                      .dwpsn  file "../sources/dual_axis_servo_drive_user.c",line 338,column 5,is_stmt,isa 0
    1823 00000137 0794          ADDL      ACC,*+XAR4[AR0]       ; [CPU_ALU] |338| 
    1824 00000138 83A9          MOVL      XAR5,ACC              ; [CPU_ALU] |338| 
    1825 00000139 E801          MOVIZ     R0H,#16256            ; [CPU_FPU] |338| 
         0000013a FC00 
    1826                      .dwpsn  file "../sources/dual_axis_servo_drive_user.c",line 339,column 5,is_stmt,isa 0
    1827 0000013b 021E          MOVB      ACC,#30               ; [CPU_ALU] |339| 
    1828                      .dwpsn  file "../sources/dual_axis_servo_drive_user.c",line 338,column 5,is_stmt,isa 0
    1829 0000013c E203          MOV32     *+XAR5[0],R0H         ; [CPU_FPU] |338| 
         0000013d 00C5 
    1830                      .dwpsn  file "../sources/dual_axis_servo_drive_user.c",line 339,column 5,is_stmt,isa 0
    1831 0000013e E801          MOVIZ     R0H,#16256            ; [CPU_FPU] |339| 
         0000013f FC00 
    1832 00000140 0794          ADDL      ACC,*+XAR4[AR0]       ; [CPU_ALU] |339| 
    1833                      .dwpsn  file "../sources/dual_axis_servo_drive_user.c",line 343,column 5,is_stmt,isa 0
    1834 00000141 D018          MOVB      XAR0,#24              ; [CPU_ALU] |343| 
    1835                      .dwpsn  file "../sources/dual_axis_servo_drive_user.c",line 339,column 5,is_stmt,isa 0
    1836 00000142 83A9          MOVL      XAR5,ACC              ; [CPU_ALU] |339| 
    1837                      .dwpsn  file "../sources/dual_axis_servo_drive_user.c",line 342,column 5,is_stmt,isa 0
    1838 00000143 E801          MOVIZ     R1H,#15820            ; [CPU_FPU] |342| 
         00000144 EE61 
    1839 00000145 E80E          MOVXI     R1H,#52429            ; [CPU_FPU] |342| 
         00000146 6669 
    1840 00000147 D11C          MOVB      XAR1,#28              ; [CPU_ALU] |342| 
    1841                      .dwpsn  file "../sources/dual_axis_servo_drive_user.c",line 339,column 5,is_stmt,isa 0
    1842 00000148 E203          MOV32     *+XAR5[0],R0H         ; [CPU_FPU] |339| 
         00000149 00C5 
    1843                      .dwpsn  file "../sources/dual_axis_servo_drive_user.c",line 343,column 5,is_stmt,isa 0
    1844 0000014a E590          ZERO      R0H                   ; [CPU_FPU] |343| 
    1845 0000014b E203          MOV32     *+XAR4[AR0],R0H       ; [CPU_FPU] |343| 
         0000014c 0094 
    1846                      .dwpsn  file "../sources/dual_axis_servo_drive_user.c",line 348,column 5,is_stmt,isa 0
    1847 0000014d D01A          MOVB      XAR0,#26              ; [CPU_ALU] |348| 
    1848 0000014e E801          MOVIZ     R0H,#15605            ; [CPU_FPU] |348| 
         0000014f E7A8 
    1849                      .dwpsn  file "../sources/dual_axis_servo_drive_user.c",line 342,column 5,is_stmt,isa 0
    1850 00000150 E203          MOV32     *+XAR4[AR1],R1H       ; [CPU_FPU] |342| 
         00000151 019C 
    1851                      .dwpsn  file "../sources/dual_axis_servo_drive_user.c",line 348,column 5,is_stmt,isa 0
    1852 00000152 E80E          MOVXI     R0H,#49807            ; [CPU_FPU] |348| 
         00000153 1478 
    1853 00000154 E203          MOV32     *+XAR4[AR0],R0H       ; [CPU_FPU] |348| 
TMS320C2000 Assembler PC v22.6.2 Sat Dec 27 15:00:18 2025

Copyright (c) 1996-2018 Texas Instruments Incorporated
dual_axis_servo_drive_user.asm                                       PAGE   44

         00000155 0094 
    1854 00000156 8BBE          MOVL      XAR1,*--SP            ; [CPU_ALU] 
    1855                      .dwcfi  cfa_offset, -2
    1856                      .dwcfi  restore_reg, 7
    1857              $C$DW$47        .dwtag  DW_TAG_TI_branch
    1858                      .dwattr $C$DW$47, DW_AT_low_pc(0x00)
    1859                      .dwattr $C$DW$47, DW_AT_TI_return
    1860              
    1861 00000157 0006          LRETR     ; [CPU_ALU] 
    1862                      ; return occurs ; [] 
    1863                      .dwattr $C$DW$44, DW_AT_TI_end_file("../sources/dual_axis_servo_drive_user.c")
    1864                      .dwattr $C$DW$44, DW_AT_TI_end_line(0x160)
    1865                      .dwattr $C$DW$44, DW_AT_TI_end_column(0x01)
    1866                      .dwendentry
    1867                      .dwendtag $C$DW$44
    1868              
    1869 00000000               .sect   ".text:__signbitl"
    1870                      .clink
    1871                      .global ||__signbitl||
    1872              
    1873              $C$DW$48        .dwtag  DW_TAG_subprogram
    1874                      .dwattr $C$DW$48, DW_AT_name("__signbitl")
    1875                      .dwattr $C$DW$48, DW_AT_low_pc(||__signbitl||)
    1876                      .dwattr $C$DW$48, DW_AT_high_pc(0x00)
    1877                      .dwattr $C$DW$48, DW_AT_linkage_name("__signbitl")
    1878                      .dwattr $C$DW$48, DW_AT_external
    1879                      .dwattr $C$DW$48, DW_AT_type(*$C$DW$T$10)
    1880                      .dwattr $C$DW$48, DW_AT_decl_file("D:/TI/ccs/tools/compiler/ti-cgt-c2000_22.6.2.LTS/include/_defs.h")
    1881                      .dwattr $C$DW$48, DW_AT_decl_line(0x16f)
    1882                      .dwattr $C$DW$48, DW_AT_decl_column(0x18)
    1883                      .dwattr $C$DW$48, DW_AT_TI_max_frame_size(-6)
    1884                      .dwpsn  file "D:/TI/ccs/tools/compiler/ti-cgt-c2000_22.6.2.LTS/include/_defs.h",line 368,column 1,is_
    1885              
    1886                      .dwfde $C$DW$CIE, ||__signbitl||
    1887              $C$DW$49        .dwtag  DW_TAG_formal_parameter
    1888                      .dwattr $C$DW$49, DW_AT_name("e")
    1889                      .dwattr $C$DW$49, DW_AT_type(*$C$DW$T$151)
    1890                      .dwattr $C$DW$49, DW_AT_location[DW_OP_reg12]
    1891              
    1892              
    1893              ;***************************************************************
    1894              ;* FNAME: __signbitl                    FR SIZE:   4           *
    1895              ;*                                                             *
    1896              ;* FUNCTION ENVIRONMENT                                        *
    1897              ;*                                                             *
    1898              ;* FUNCTION PROPERTIES                                         *
    1899              ;*                            4 Parameter,  0 Auto,  0 SOE     *
    1900              ;***************************************************************
    1901              
    1902              ||__signbitl||:
    1903              ;* AR4   assigned to e
    1904              $C$DW$50        .dwtag  DW_TAG_variable
    1905                      .dwattr $C$DW$50, DW_AT_name("e")
    1906                      .dwattr $C$DW$50, DW_AT_type(*$C$DW$T$152)
    1907                      .dwattr $C$DW$50, DW_AT_location[DW_OP_reg12]
TMS320C2000 Assembler PC v22.6.2 Sat Dec 27 15:00:18 2025

Copyright (c) 1996-2018 Texas Instruments Incorporated
dual_axis_servo_drive_user.asm                                       PAGE   45

    1908              
    1909                      .dwcfi  cfa_offset, -2
    1910                      .dwcfi  save_reg_to_mem, 26, 0
    1911 00000000 FE04          ADDB      SP,#4                 ; [CPU_ARAU] 
    1912                      .dwcfi  cfa_offset, -6
    1913                      .dwpsn  file "D:/TI/ccs/tools/compiler/ti-cgt-c2000_22.6.2.LTS/include/_defs.h",line 368,column 3,is_
    1914 00000001 0200          MOVB      ACC,#0                ; [CPU_ALU] |368| 
    1915 00000002 1E44          MOVL      *-SP[4],ACC           ; [CPU_ALU] |368| 
    1916 00000003 2B42          MOV       *-SP[2],#0            ; [CPU_ALU] |368| 
    1917 00000004 2B41          MOV       *-SP[1],#0            ; [CPU_ALU] |368| 
    1918 00000005 A3C4          MOVL      P,*+XAR4[0]           ; [CPU_ALU] |368| 
    1919 00000006 06D4          MOVL      ACC,*+XAR4[2]         ; [CPU_ALU] |368| 
    1920 00000007 18AB          AND       PL,#0                 ; [CPU_ALU] |368| 
         00000008 0000 
    1921 00000009 18AA          AND       PH,#0                 ; [CPU_ALU] |368| 
         0000000a 0000 
    1922 0000000b 9000          ANDB      AL,#0                 ; [CPU_ALU] |368| 
    1923 0000000c 18A8          AND       AH,#32768             ; [CPU_ALU] |368| 
         0000000d 8000 
    1924              $C$DW$51        .dwtag  DW_TAG_TI_branch
    1925                      .dwattr $C$DW$51, DW_AT_low_pc(0x00)
    1926                      .dwattr $C$DW$51, DW_AT_name("__c28xabi_cmpull")
    1927                      .dwattr $C$DW$51, DW_AT_TI_call
    1928              
    1929 0000000e 7640!         LCR       #||__c28xabi_cmpull|| ; [CPU_ALU] |368| 
         0000000f 0000 
    1930                      ; call occurs [#||__c28xabi_cmpull||] ; [] |368| 
    1931 00000010 9B00          MOVB      AH,#0                 ; [CPU_ALU] |368| 
    1932 00000011 5200          CMPB      AL,#0                 ; [CPU_ALU] |368| 
    1933 00000012 56B0          MOVB      AH,#1,NEQ             ; [CPU_ALU] |368| 
         00000013 01A8 
    1934 00000014 92A8          MOV       AL,AH                 ; [CPU_ALU] |368| 
    1935 00000015 FE84          SUBB      SP,#4                 ; [CPU_ARAU] 
    1936                      .dwcfi  cfa_offset, -2
    1937              $C$DW$52        .dwtag  DW_TAG_TI_branch
    1938                      .dwattr $C$DW$52, DW_AT_low_pc(0x00)
    1939                      .dwattr $C$DW$52, DW_AT_TI_return
    1940              
    1941 00000016 0006          LRETR     ; [CPU_ALU] 
    1942                      ; return occurs ; [] 
    1943                      .dwattr $C$DW$48, DW_AT_TI_end_file("D:/TI/ccs/tools/compiler/ti-cgt-c2000_22.6.2.LTS/include/_defs.h
    1944                      .dwattr $C$DW$48, DW_AT_TI_end_line(0x170)
    1945                      .dwattr $C$DW$48, DW_AT_TI_end_column(0x2b)
    1946                      .dwendentry
    1947                      .dwendtag $C$DW$48
    1948              
    1949 00000000               .sect   ".text:__signbitf"
    1950                      .clink
    1951                      .global ||__signbitf||
    1952              
    1953              $C$DW$53        .dwtag  DW_TAG_subprogram
    1954                      .dwattr $C$DW$53, DW_AT_name("__signbitf")
    1955                      .dwattr $C$DW$53, DW_AT_low_pc(||__signbitf||)
    1956                      .dwattr $C$DW$53, DW_AT_high_pc(0x00)
    1957                      .dwattr $C$DW$53, DW_AT_linkage_name("__signbitf")
TMS320C2000 Assembler PC v22.6.2 Sat Dec 27 15:00:18 2025

Copyright (c) 1996-2018 Texas Instruments Incorporated
dual_axis_servo_drive_user.asm                                       PAGE   46

    1958                      .dwattr $C$DW$53, DW_AT_external
    1959                      .dwattr $C$DW$53, DW_AT_type(*$C$DW$T$10)
    1960                      .dwattr $C$DW$53, DW_AT_decl_file("D:/TI/ccs/tools/compiler/ti-cgt-c2000_22.6.2.LTS/include/_defs.h")
    1961                      .dwattr $C$DW$53, DW_AT_decl_line(0x16d)
    1962                      .dwattr $C$DW$53, DW_AT_decl_column(0x18)
    1963                      .dwattr $C$DW$53, DW_AT_TI_max_frame_size(-2)
    1964                      .dwpsn  file "D:/TI/ccs/tools/compiler/ti-cgt-c2000_22.6.2.LTS/include/_defs.h",line 366,column 1,is_
    1965              
    1966                      .dwfde $C$DW$CIE, ||__signbitf||
    1967              $C$DW$54        .dwtag  DW_TAG_formal_parameter
    1968                      .dwattr $C$DW$54, DW_AT_name("f")
    1969                      .dwattr $C$DW$54, DW_AT_type(*$C$DW$T$16)
    1970                      .dwattr $C$DW$54, DW_AT_location[DW_OP_regx 0x2b]
    1971              
    1972              
    1973              ;***************************************************************
    1974              ;* FNAME: __signbitf                    FR SIZE:   0           *
    1975              ;*                                                             *
    1976              ;* FUNCTION ENVIRONMENT                                        *
    1977              ;*                                                             *
    1978              ;* FUNCTION PROPERTIES                                         *
    1979              ;*                            0 Parameter,  0 Auto,  0 SOE     *
    1980              ;***************************************************************
    1981              
    1982              ||__signbitf||:
    1983              ;* R0    assigned to f
    1984              $C$DW$55        .dwtag  DW_TAG_variable
    1985                      .dwattr $C$DW$55, DW_AT_name("f")
    1986                      .dwattr $C$DW$55, DW_AT_type(*$C$DW$T$147)
    1987                      .dwattr $C$DW$55, DW_AT_location[DW_OP_regx 0x2b]
    1988              
    1989                      .dwcfi  cfa_offset, -2
    1990                      .dwcfi  save_reg_to_mem, 26, 0
    1991                      .dwpsn  file "D:/TI/ccs/tools/compiler/ti-cgt-c2000_22.6.2.LTS/include/_defs.h",line 366,column 3,is_
    1992 00000000 BFA9          MOV32     ACC,R0H               ; [CPU_FPU] |366| 
         00000001 0F12 
    1993 00000002 BE00          MOVB      XAR6,#0               ; [CPU_ALU] |366| 
    1994 00000003 9000          ANDB      AL,#0                 ; [CPU_ALU] |366| 
    1995 00000004 18A8          AND       AH,#32768             ; [CPU_ALU] |366| 
         00000005 8000 
    1996 00000006 FF58          TEST      ACC                   ; [CPU_ALU] |366| 
    1997 00000007 56B0          MOVB      XAR6,#1,NEQ           ; [CPU_ALU] |366| 
         00000008 01A6 
    1998 00000009 92A6          MOV       AL,AR6                ; [CPU_ALU] |366| 
    1999              $C$DW$56        .dwtag  DW_TAG_TI_branch
    2000                      .dwattr $C$DW$56, DW_AT_low_pc(0x00)
    2001                      .dwattr $C$DW$56, DW_AT_TI_return
    2002              
    2003 0000000a 0006          LRETR     ; [CPU_ALU] 
    2004                      ; return occurs ; [] 
    2005                      .dwattr $C$DW$53, DW_AT_TI_end_file("D:/TI/ccs/tools/compiler/ti-cgt-c2000_22.6.2.LTS/include/_defs.h
    2006                      .dwattr $C$DW$53, DW_AT_TI_end_line(0x16e)
    2007                      .dwattr $C$DW$53, DW_AT_TI_end_column(0x29)
    2008                      .dwendentry
    2009                      .dwendtag $C$DW$53
TMS320C2000 Assembler PC v22.6.2 Sat Dec 27 15:00:18 2025

Copyright (c) 1996-2018 Texas Instruments Incorporated
dual_axis_servo_drive_user.asm                                       PAGE   47

    2010              
    2011 00000000               .sect   ".text:__signbit"
    2012                      .clink
    2013                      .global ||__signbit||
    2014              
    2015              $C$DW$57        .dwtag  DW_TAG_subprogram
    2016                      .dwattr $C$DW$57, DW_AT_name("__signbit")
    2017                      .dwattr $C$DW$57, DW_AT_low_pc(||__signbit||)
    2018                      .dwattr $C$DW$57, DW_AT_high_pc(0x00)
    2019                      .dwattr $C$DW$57, DW_AT_linkage_name("__signbit")
    2020                      .dwattr $C$DW$57, DW_AT_external
    2021                      .dwattr $C$DW$57, DW_AT_type(*$C$DW$T$10)
    2022                      .dwattr $C$DW$57, DW_AT_decl_file("D:/TI/ccs/tools/compiler/ti-cgt-c2000_22.6.2.LTS/include/_defs.h")
    2023                      .dwattr $C$DW$57, DW_AT_decl_line(0x16b)
    2024                      .dwattr $C$DW$57, DW_AT_decl_column(0x18)
    2025                      .dwattr $C$DW$57, DW_AT_TI_max_frame_size(-6)
    2026                      .dwpsn  file "D:/TI/ccs/tools/compiler/ti-cgt-c2000_22.6.2.LTS/include/_defs.h",line 364,column 1,is_
    2027              
    2028                      .dwfde $C$DW$CIE, ||__signbit||
    2029              $C$DW$58        .dwtag  DW_TAG_formal_parameter
    2030                      .dwattr $C$DW$58, DW_AT_name("d")
    2031                      .dwattr $C$DW$58, DW_AT_type(*$C$DW$T$149)
    2032                      .dwattr $C$DW$58, DW_AT_location[DW_OP_reg12]
    2033              
    2034              
    2035              ;***************************************************************
    2036              ;* FNAME: __signbit                     FR SIZE:   4           *
    2037              ;*                                                             *
    2038              ;* FUNCTION ENVIRONMENT                                        *
    2039              ;*                                                             *
    2040              ;* FUNCTION PROPERTIES                                         *
    2041              ;*                            4 Parameter,  0 Auto,  0 SOE     *
    2042              ;***************************************************************
    2043              
    2044              ||__signbit||:
    2045              ;* AR4   assigned to d
    2046              $C$DW$59        .dwtag  DW_TAG_variable
    2047                      .dwattr $C$DW$59, DW_AT_name("d")
    2048                      .dwattr $C$DW$59, DW_AT_type(*$C$DW$T$150)
    2049                      .dwattr $C$DW$59, DW_AT_location[DW_OP_reg12]
    2050              
    2051                      .dwcfi  cfa_offset, -2
    2052                      .dwcfi  save_reg_to_mem, 26, 0
    2053 00000000 FE04          ADDB      SP,#4                 ; [CPU_ARAU] 
    2054                      .dwcfi  cfa_offset, -6
    2055                      .dwpsn  file "D:/TI/ccs/tools/compiler/ti-cgt-c2000_22.6.2.LTS/include/_defs.h",line 364,column 3,is_
    2056 00000001 0200          MOVB      ACC,#0                ; [CPU_ALU] |364| 
    2057 00000002 1E44          MOVL      *-SP[4],ACC           ; [CPU_ALU] |364| 
    2058 00000003 2B42          MOV       *-SP[2],#0            ; [CPU_ALU] |364| 
    2059 00000004 2B41          MOV       *-SP[1],#0            ; [CPU_ALU] |364| 
    2060 00000005 A3C4          MOVL      P,*+XAR4[0]           ; [CPU_ALU] |364| 
    2061 00000006 06D4          MOVL      ACC,*+XAR4[2]         ; [CPU_ALU] |364| 
    2062 00000007 18AB          AND       PL,#0                 ; [CPU_ALU] |364| 
         00000008 0000 
    2063 00000009 18AA          AND       PH,#0                 ; [CPU_ALU] |364| 
TMS320C2000 Assembler PC v22.6.2 Sat Dec 27 15:00:18 2025

Copyright (c) 1996-2018 Texas Instruments Incorporated
dual_axis_servo_drive_user.asm                                       PAGE   48

         0000000a 0000 
    2064 0000000b 9000          ANDB      AL,#0                 ; [CPU_ALU] |364| 
    2065 0000000c 18A8          AND       AH,#32768             ; [CPU_ALU] |364| 
         0000000d 8000 
    2066              $C$DW$60        .dwtag  DW_TAG_TI_branch
    2067                      .dwattr $C$DW$60, DW_AT_low_pc(0x00)
    2068                      .dwattr $C$DW$60, DW_AT_name("__c28xabi_cmpull")
    2069                      .dwattr $C$DW$60, DW_AT_TI_call
    2070              
    2071 0000000e 7640!         LCR       #||__c28xabi_cmpull|| ; [CPU_ALU] |364| 
         0000000f 0000 
    2072                      ; call occurs [#||__c28xabi_cmpull||] ; [] |364| 
    2073 00000010 9B00          MOVB      AH,#0                 ; [CPU_ALU] |364| 
    2074 00000011 5200          CMPB      AL,#0                 ; [CPU_ALU] |364| 
    2075 00000012 56B0          MOVB      AH,#1,NEQ             ; [CPU_ALU] |364| 
         00000013 01A8 
    2076 00000014 92A8          MOV       AL,AH                 ; [CPU_ALU] |364| 
    2077 00000015 FE84          SUBB      SP,#4                 ; [CPU_ARAU] 
    2078                      .dwcfi  cfa_offset, -2
    2079              $C$DW$61        .dwtag  DW_TAG_TI_branch
    2080                      .dwattr $C$DW$61, DW_AT_low_pc(0x00)
    2081                      .dwattr $C$DW$61, DW_AT_TI_return
    2082              
    2083 00000016 0006          LRETR     ; [CPU_ALU] 
    2084                      ; return occurs ; [] 
    2085                      .dwattr $C$DW$57, DW_AT_TI_end_file("D:/TI/ccs/tools/compiler/ti-cgt-c2000_22.6.2.LTS/include/_defs.h
    2086                      .dwattr $C$DW$57, DW_AT_TI_end_line(0x16c)
    2087                      .dwattr $C$DW$57, DW_AT_TI_end_column(0x2a)
    2088                      .dwendentry
    2089                      .dwendtag $C$DW$57
    2090              
    2091 00000000               .sect   ".text:__relaxed_sinf"
    2092                      .clink
    2093                      .global ||__relaxed_sinf||
    2094              
    2095              $C$DW$62        .dwtag  DW_TAG_subprogram
    2096                      .dwattr $C$DW$62, DW_AT_name("__relaxed_sinf")
    2097                      .dwattr $C$DW$62, DW_AT_low_pc(||__relaxed_sinf||)
    2098                      .dwattr $C$DW$62, DW_AT_high_pc(0x00)
    2099                      .dwattr $C$DW$62, DW_AT_linkage_name("__relaxed_sinf")
    2100                      .dwattr $C$DW$62, DW_AT_external
    2101                      .dwattr $C$DW$62, DW_AT_type(*$C$DW$T$16)
    2102                      .dwattr $C$DW$62, DW_AT_decl_file("D:/TI/ccs/tools/compiler/ti-cgt-c2000_22.6.2.LTS/include/math.h")
    2103                      .dwattr $C$DW$62, DW_AT_decl_line(0x108)
    2104                      .dwattr $C$DW$62, DW_AT_decl_column(0x10)
    2105                      .dwattr $C$DW$62, DW_AT_TI_max_frame_size(-2)
    2106                      .dwpsn  file "D:/TI/ccs/tools/compiler/ti-cgt-c2000_22.6.2.LTS/include/math.h",line 265,column 1,is_s
    2107              
    2108                      .dwfde $C$DW$CIE, ||__relaxed_sinf||
    2109              $C$DW$63        .dwtag  DW_TAG_formal_parameter
    2110                      .dwattr $C$DW$63, DW_AT_name("x")
    2111                      .dwattr $C$DW$63, DW_AT_type(*$C$DW$T$16)
    2112                      .dwattr $C$DW$63, DW_AT_location[DW_OP_regx 0x2b]
    2113              
    2114              
TMS320C2000 Assembler PC v22.6.2 Sat Dec 27 15:00:18 2025

Copyright (c) 1996-2018 Texas Instruments Incorporated
dual_axis_servo_drive_user.asm                                       PAGE   49

    2115              ;***************************************************************
    2116              ;* FNAME: __relaxed_sinf                FR SIZE:   0           *
    2117              ;*                                                             *
    2118              ;* FUNCTION ENVIRONMENT                                        *
    2119              ;*                                                             *
    2120              ;* FUNCTION PROPERTIES                                         *
    2121              ;*                            0 Parameter,  0 Auto,  0 SOE     *
    2122              ;***************************************************************
    2123              
    2124              ||__relaxed_sinf||:
    2125              ;* R0    assigned to x
    2126              $C$DW$64        .dwtag  DW_TAG_variable
    2127                      .dwattr $C$DW$64, DW_AT_name("x")
    2128                      .dwattr $C$DW$64, DW_AT_type(*$C$DW$T$147)
    2129                      .dwattr $C$DW$64, DW_AT_location[DW_OP_regx 0x2b]
    2130              
    2131                      .dwcfi  cfa_offset, -2
    2132                      .dwcfi  save_reg_to_mem, 26, 0
    2133                      .dwpsn  file "D:/TI/ccs/tools/compiler/ti-cgt-c2000_22.6.2.LTS/include/math.h",line 266,column 5,is_s
    2134 00000000 E271          DIV2PIF32 R0H,R0H               ; [CPU_FPU] |266| 
         00000001 0000 
    2135 00000002 7700          NOP       ; [CPU_ALU] 
    2136 00000003 E278          SINPUF32  R0H,R0H               ; [CPU_FPU] |266| 
         00000004 0000 
    2137 00000005 7700          NOP       ; [CPU_ALU] 
    2138 00000006 7700          NOP       ; [CPU_ALU] 
    2139              $C$DW$65        .dwtag  DW_TAG_TI_branch
    2140                      .dwattr $C$DW$65, DW_AT_low_pc(0x00)
    2141                      .dwattr $C$DW$65, DW_AT_TI_return
    2142              
    2143 00000007 0006          LRETR     ; [CPU_ALU] 
    2144                      ; return occurs ; [] 
    2145                      .dwattr $C$DW$62, DW_AT_TI_end_file("D:/TI/ccs/tools/compiler/ti-cgt-c2000_22.6.2.LTS/include/math.h"
    2146                      .dwattr $C$DW$62, DW_AT_TI_end_line(0x10b)
    2147                      .dwattr $C$DW$62, DW_AT_TI_end_column(0x01)
    2148                      .dwendentry
    2149                      .dwendtag $C$DW$62
    2150              
    2151 00000000               .sect   ".text:__relaxed_fmodf"
    2152                      .clink
    2153                      .global ||__relaxed_fmodf||
    2154              
    2155              $C$DW$66        .dwtag  DW_TAG_subprogram
    2156                      .dwattr $C$DW$66, DW_AT_name("__relaxed_fmodf")
    2157                      .dwattr $C$DW$66, DW_AT_low_pc(||__relaxed_fmodf||)
    2158                      .dwattr $C$DW$66, DW_AT_high_pc(0x00)
    2159                      .dwattr $C$DW$66, DW_AT_linkage_name("__relaxed_fmodf")
    2160                      .dwattr $C$DW$66, DW_AT_external
    2161                      .dwattr $C$DW$66, DW_AT_type(*$C$DW$T$16)
    2162                      .dwattr $C$DW$66, DW_AT_decl_file("D:/TI/ccs/tools/compiler/ti-cgt-c2000_22.6.2.LTS/include/math.h")
    2163                      .dwattr $C$DW$66, DW_AT_decl_line(0x11c)
    2164                      .dwattr $C$DW$66, DW_AT_decl_column(0x10)
    2165                      .dwattr $C$DW$66, DW_AT_TI_max_frame_size(-2)
    2166                      .dwpsn  file "D:/TI/ccs/tools/compiler/ti-cgt-c2000_22.6.2.LTS/include/math.h",line 285,column 1,is_s
    2167              
TMS320C2000 Assembler PC v22.6.2 Sat Dec 27 15:00:18 2025

Copyright (c) 1996-2018 Texas Instruments Incorporated
dual_axis_servo_drive_user.asm                                       PAGE   50

    2168                      .dwfde $C$DW$CIE, ||__relaxed_fmodf||
    2169              $C$DW$67        .dwtag  DW_TAG_formal_parameter
    2170                      .dwattr $C$DW$67, DW_AT_name("y")
    2171                      .dwattr $C$DW$67, DW_AT_type(*$C$DW$T$16)
    2172                      .dwattr $C$DW$67, DW_AT_location[DW_OP_regx 0x2b]
    2173              
    2174              $C$DW$68        .dwtag  DW_TAG_formal_parameter
    2175                      .dwattr $C$DW$68, DW_AT_name("x")
    2176                      .dwattr $C$DW$68, DW_AT_type(*$C$DW$T$16)
    2177                      .dwattr $C$DW$68, DW_AT_location[DW_OP_regx 0x2f]
    2178              
    2179              
    2180              ;***************************************************************
    2181              ;* FNAME: __relaxed_fmodf               FR SIZE:   0           *
    2182              ;*                                                             *
    2183              ;* FUNCTION ENVIRONMENT                                        *
    2184              ;*                                                             *
    2185              ;* FUNCTION PROPERTIES                                         *
    2186              ;*                            0 Parameter,  0 Auto,  0 SOE     *
    2187              ;***************************************************************
    2188              
    2189              ||__relaxed_fmodf||:
    2190              ;* R0    assigned to y
    2191              $C$DW$69        .dwtag  DW_TAG_variable
    2192                      .dwattr $C$DW$69, DW_AT_name("y")
    2193                      .dwattr $C$DW$69, DW_AT_type(*$C$DW$T$147)
    2194                      .dwattr $C$DW$69, DW_AT_location[DW_OP_regx 0x2b]
    2195              
    2196              ;* R1    assigned to x
    2197              $C$DW$70        .dwtag  DW_TAG_variable
    2198                      .dwattr $C$DW$70, DW_AT_name("x")
    2199                      .dwattr $C$DW$70, DW_AT_type(*$C$DW$T$147)
    2200                      .dwattr $C$DW$70, DW_AT_location[DW_OP_regx 0x2f]
    2201              
    2202                      .dwcfi  cfa_offset, -2
    2203                      .dwcfi  save_reg_to_mem, 26, 0
    2204                      .dwpsn  file "D:/TI/ccs/tools/compiler/ti-cgt-c2000_22.6.2.LTS/include/math.h",line 286,column 3,is_s
    2205 00000000 E274          DIVF32    R2H,R0H,R1H           ; [CPU_FPU] |286| 
         00000001 0042 
    2206 00000002 7700          NOP       ; [CPU_ALU] 
    2207 00000003 7700          NOP       ; [CPU_ALU] 
    2208 00000004 7700          NOP       ; [CPU_ALU] 
    2209 00000005 7700          NOP       ; [CPU_ALU] 
    2210 00000006 E688          F32TOI32  R2H,R2H               ; [CPU_FPU] |286| 
         00000007 0012 
    2211 00000008 7700          NOP       ; [CPU_ALU] 
    2212 00000009 E689          I32TOF32  R2H,R2H               ; [CPU_FPU] |286| 
         0000000a 0012 
    2213 0000000b 7700          NOP       ; [CPU_ALU] 
    2214 0000000c E700          MPYF32    R1H,R1H,R2H           ; [CPU_FPU] |286| 
         0000000d 0089 
    2215 0000000e 7700          NOP       ; [CPU_ALU] 
    2216 0000000f E720          SUBF32    R0H,R0H,R1H           ; [CPU_FPU] |286| 
         00000010 0040 
    2217              $C$DW$71        .dwtag  DW_TAG_TI_branch
TMS320C2000 Assembler PC v22.6.2 Sat Dec 27 15:00:18 2025

Copyright (c) 1996-2018 Texas Instruments Incorporated
dual_axis_servo_drive_user.asm                                       PAGE   51

    2218                      .dwattr $C$DW$71, DW_AT_low_pc(0x00)
    2219                      .dwattr $C$DW$71, DW_AT_TI_return
    2220              
    2221 00000011 0006          LRETR     ; [CPU_ALU] 
    2222                      ; return occurs ; [] 
    2223                      .dwattr $C$DW$66, DW_AT_TI_end_file("D:/TI/ccs/tools/compiler/ti-cgt-c2000_22.6.2.LTS/include/math.h"
    2224                      .dwattr $C$DW$66, DW_AT_TI_end_line(0x11f)
    2225                      .dwattr $C$DW$66, DW_AT_TI_end_column(0x01)
    2226                      .dwendentry
    2227                      .dwendtag $C$DW$66
    2228              
    2229 00000000               .sect   ".text:__relaxed_fminf"
    2230                      .clink
    2231                      .global ||__relaxed_fminf||
    2232              
    2233              $C$DW$72        .dwtag  DW_TAG_subprogram
    2234                      .dwattr $C$DW$72, DW_AT_name("__relaxed_fminf")
    2235                      .dwattr $C$DW$72, DW_AT_low_pc(||__relaxed_fminf||)
    2236                      .dwattr $C$DW$72, DW_AT_high_pc(0x00)
    2237                      .dwattr $C$DW$72, DW_AT_linkage_name("__relaxed_fminf")
    2238                      .dwattr $C$DW$72, DW_AT_external
    2239                      .dwattr $C$DW$72, DW_AT_type(*$C$DW$T$16)
    2240                      .dwattr $C$DW$72, DW_AT_decl_file("D:/TI/ccs/tools/compiler/ti-cgt-c2000_22.6.2.LTS/include/math.h")
    2241                      .dwattr $C$DW$72, DW_AT_decl_line(0xee)
    2242                      .dwattr $C$DW$72, DW_AT_decl_column(0x10)
    2243                      .dwattr $C$DW$72, DW_AT_TI_max_frame_size(-2)
    2244                      .dwpsn  file "D:/TI/ccs/tools/compiler/ti-cgt-c2000_22.6.2.LTS/include/math.h",line 239,column 1,is_s
    2245              
    2246                      .dwfde $C$DW$CIE, ||__relaxed_fminf||
    2247              $C$DW$73        .dwtag  DW_TAG_formal_parameter
    2248                      .dwattr $C$DW$73, DW_AT_name("x")
    2249                      .dwattr $C$DW$73, DW_AT_type(*$C$DW$T$16)
    2250                      .dwattr $C$DW$73, DW_AT_location[DW_OP_regx 0x2b]
    2251              
    2252              $C$DW$74        .dwtag  DW_TAG_formal_parameter
    2253                      .dwattr $C$DW$74, DW_AT_name("y")
    2254                      .dwattr $C$DW$74, DW_AT_type(*$C$DW$T$16)
    2255                      .dwattr $C$DW$74, DW_AT_location[DW_OP_regx 0x2f]
    2256              
    2257              
    2258              ;***************************************************************
    2259              ;* FNAME: __relaxed_fminf               FR SIZE:   0           *
    2260              ;*                                                             *
    2261              ;* FUNCTION ENVIRONMENT                                        *
    2262              ;*                                                             *
    2263              ;* FUNCTION PROPERTIES                                         *
    2264              ;*                            0 Parameter,  0 Auto,  0 SOE     *
    2265              ;***************************************************************
    2266              
    2267              ||__relaxed_fminf||:
    2268              ;* R1    assigned to y
    2269              $C$DW$75        .dwtag  DW_TAG_variable
    2270                      .dwattr $C$DW$75, DW_AT_name("y")
    2271                      .dwattr $C$DW$75, DW_AT_type(*$C$DW$T$147)
    2272                      .dwattr $C$DW$75, DW_AT_location[DW_OP_regx 0x2f]
TMS320C2000 Assembler PC v22.6.2 Sat Dec 27 15:00:18 2025

Copyright (c) 1996-2018 Texas Instruments Incorporated
dual_axis_servo_drive_user.asm                                       PAGE   52

    2273              
    2274                      .dwcfi  cfa_offset, -2
    2275                      .dwcfi  save_reg_to_mem, 26, 0
    2276                      .dwpsn  file "D:/TI/ccs/tools/compiler/ti-cgt-c2000_22.6.2.LTS/include/math.h",line 240,column 5,is_s
    2277 00000000 E697          MINF32    R0H,R1H               ; [CPU_FPU] |240| 
         00000001 0008 
    2278              $C$DW$76        .dwtag  DW_TAG_TI_branch
    2279                      .dwattr $C$DW$76, DW_AT_low_pc(0x00)
    2280                      .dwattr $C$DW$76, DW_AT_TI_return
    2281              
    2282 00000002 0006          LRETR     ; [CPU_ALU] 
    2283                      ; return occurs ; [] 
    2284                      .dwattr $C$DW$72, DW_AT_TI_end_file("D:/TI/ccs/tools/compiler/ti-cgt-c2000_22.6.2.LTS/include/math.h"
    2285                      .dwattr $C$DW$72, DW_AT_TI_end_line(0xf1)
    2286                      .dwattr $C$DW$72, DW_AT_TI_end_column(0x01)
    2287                      .dwendentry
    2288                      .dwendtag $C$DW$72
    2289              
    2290 00000000               .sect   ".text:__relaxed_fmaxf"
    2291                      .clink
    2292                      .global ||__relaxed_fmaxf||
    2293              
    2294              $C$DW$77        .dwtag  DW_TAG_subprogram
    2295                      .dwattr $C$DW$77, DW_AT_name("__relaxed_fmaxf")
    2296                      .dwattr $C$DW$77, DW_AT_low_pc(||__relaxed_fmaxf||)
    2297                      .dwattr $C$DW$77, DW_AT_high_pc(0x00)
    2298                      .dwattr $C$DW$77, DW_AT_linkage_name("__relaxed_fmaxf")
    2299                      .dwattr $C$DW$77, DW_AT_external
    2300                      .dwattr $C$DW$77, DW_AT_type(*$C$DW$T$16)
    2301                      .dwattr $C$DW$77, DW_AT_decl_file("D:/TI/ccs/tools/compiler/ti-cgt-c2000_22.6.2.LTS/include/math.h")
    2302                      .dwattr $C$DW$77, DW_AT_decl_line(0xe8)
    2303                      .dwattr $C$DW$77, DW_AT_decl_column(0x10)
    2304                      .dwattr $C$DW$77, DW_AT_TI_max_frame_size(-2)
    2305                      .dwpsn  file "D:/TI/ccs/tools/compiler/ti-cgt-c2000_22.6.2.LTS/include/math.h",line 233,column 1,is_s
    2306              
    2307                      .dwfde $C$DW$CIE, ||__relaxed_fmaxf||
    2308              $C$DW$78        .dwtag  DW_TAG_formal_parameter
    2309                      .dwattr $C$DW$78, DW_AT_name("x")
    2310                      .dwattr $C$DW$78, DW_AT_type(*$C$DW$T$16)
    2311                      .dwattr $C$DW$78, DW_AT_location[DW_OP_regx 0x2b]
    2312              
    2313              $C$DW$79        .dwtag  DW_TAG_formal_parameter
    2314                      .dwattr $C$DW$79, DW_AT_name("y")
    2315                      .dwattr $C$DW$79, DW_AT_type(*$C$DW$T$16)
    2316                      .dwattr $C$DW$79, DW_AT_location[DW_OP_regx 0x2f]
    2317              
    2318              
    2319              ;***************************************************************
    2320              ;* FNAME: __relaxed_fmaxf               FR SIZE:   0           *
    2321              ;*                                                             *
    2322              ;* FUNCTION ENVIRONMENT                                        *
    2323              ;*                                                             *
    2324              ;* FUNCTION PROPERTIES                                         *
    2325              ;*                            0 Parameter,  0 Auto,  0 SOE     *
    2326              ;***************************************************************
TMS320C2000 Assembler PC v22.6.2 Sat Dec 27 15:00:18 2025

Copyright (c) 1996-2018 Texas Instruments Incorporated
dual_axis_servo_drive_user.asm                                       PAGE   53

    2327              
    2328              ||__relaxed_fmaxf||:
    2329              ;* R1    assigned to y
    2330              $C$DW$80        .dwtag  DW_TAG_variable
    2331                      .dwattr $C$DW$80, DW_AT_name("y")
    2332                      .dwattr $C$DW$80, DW_AT_type(*$C$DW$T$147)
    2333                      .dwattr $C$DW$80, DW_AT_location[DW_OP_regx 0x2f]
    2334              
    2335                      .dwcfi  cfa_offset, -2
    2336                      .dwcfi  save_reg_to_mem, 26, 0
    2337                      .dwpsn  file "D:/TI/ccs/tools/compiler/ti-cgt-c2000_22.6.2.LTS/include/math.h",line 234,column 5,is_s
    2338 00000000 E696          MAXF32    R0H,R1H               ; [CPU_FPU] |234| 
         00000001 0008 
    2339              $C$DW$81        .dwtag  DW_TAG_TI_branch
    2340                      .dwattr $C$DW$81, DW_AT_low_pc(0x00)
    2341                      .dwattr $C$DW$81, DW_AT_TI_return
    2342              
    2343 00000002 0006          LRETR     ; [CPU_ALU] 
    2344                      ; return occurs ; [] 
    2345                      .dwattr $C$DW$77, DW_AT_TI_end_file("D:/TI/ccs/tools/compiler/ti-cgt-c2000_22.6.2.LTS/include/math.h"
    2346                      .dwattr $C$DW$77, DW_AT_TI_end_line(0xeb)
    2347                      .dwattr $C$DW$77, DW_AT_TI_end_column(0x01)
    2348                      .dwendentry
    2349                      .dwendtag $C$DW$77
    2350              
    2351 00000000               .sect   ".text:__relaxed_cosf"
    2352                      .clink
    2353                      .global ||__relaxed_cosf||
    2354              
    2355              $C$DW$82        .dwtag  DW_TAG_subprogram
    2356                      .dwattr $C$DW$82, DW_AT_name("__relaxed_cosf")
    2357                      .dwattr $C$DW$82, DW_AT_low_pc(||__relaxed_cosf||)
    2358                      .dwattr $C$DW$82, DW_AT_high_pc(0x00)
    2359                      .dwattr $C$DW$82, DW_AT_linkage_name("__relaxed_cosf")
    2360                      .dwattr $C$DW$82, DW_AT_external
    2361                      .dwattr $C$DW$82, DW_AT_type(*$C$DW$T$16)
    2362                      .dwattr $C$DW$82, DW_AT_decl_file("D:/TI/ccs/tools/compiler/ti-cgt-c2000_22.6.2.LTS/include/math.h")
    2363                      .dwattr $C$DW$82, DW_AT_decl_line(0x10d)
    2364                      .dwattr $C$DW$82, DW_AT_decl_column(0x10)
    2365                      .dwattr $C$DW$82, DW_AT_TI_max_frame_size(-2)
    2366                      .dwpsn  file "D:/TI/ccs/tools/compiler/ti-cgt-c2000_22.6.2.LTS/include/math.h",line 270,column 1,is_s
    2367              
    2368                      .dwfde $C$DW$CIE, ||__relaxed_cosf||
    2369              $C$DW$83        .dwtag  DW_TAG_formal_parameter
    2370                      .dwattr $C$DW$83, DW_AT_name("x")
    2371                      .dwattr $C$DW$83, DW_AT_type(*$C$DW$T$16)
    2372                      .dwattr $C$DW$83, DW_AT_location[DW_OP_regx 0x2b]
    2373              
    2374              
    2375              ;***************************************************************
    2376              ;* FNAME: __relaxed_cosf                FR SIZE:   0           *
    2377              ;*                                                             *
    2378              ;* FUNCTION ENVIRONMENT                                        *
    2379              ;*                                                             *
    2380              ;* FUNCTION PROPERTIES                                         *
TMS320C2000 Assembler PC v22.6.2 Sat Dec 27 15:00:18 2025

Copyright (c) 1996-2018 Texas Instruments Incorporated
dual_axis_servo_drive_user.asm                                       PAGE   54

    2381              ;*                            0 Parameter,  0 Auto,  0 SOE     *
    2382              ;***************************************************************
    2383              
    2384              ||__relaxed_cosf||:
    2385              ;* R0    assigned to x
    2386              $C$DW$84        .dwtag  DW_TAG_variable
    2387                      .dwattr $C$DW$84, DW_AT_name("x")
    2388                      .dwattr $C$DW$84, DW_AT_type(*$C$DW$T$147)
    2389                      .dwattr $C$DW$84, DW_AT_location[DW_OP_regx 0x2b]
    2390              
    2391                      .dwcfi  cfa_offset, -2
    2392                      .dwcfi  save_reg_to_mem, 26, 0
    2393                      .dwpsn  file "D:/TI/ccs/tools/compiler/ti-cgt-c2000_22.6.2.LTS/include/math.h",line 271,column 5,is_s
    2394 00000000 E271          DIV2PIF32 R0H,R0H               ; [CPU_FPU] |271| 
         00000001 0000 
    2395 00000002 7700          NOP       ; [CPU_ALU] 
    2396 00000003 E279          COSPUF32  R0H,R0H               ; [CPU_FPU] |271| 
         00000004 0000 
    2397 00000005 7700          NOP       ; [CPU_ALU] 
    2398 00000006 7700          NOP       ; [CPU_ALU] 
    2399              $C$DW$85        .dwtag  DW_TAG_TI_branch
    2400                      .dwattr $C$DW$85, DW_AT_low_pc(0x00)
    2401                      .dwattr $C$DW$85, DW_AT_TI_return
    2402              
    2403 00000007 0006          LRETR     ; [CPU_ALU] 
    2404                      ; return occurs ; [] 
    2405                      .dwattr $C$DW$82, DW_AT_TI_end_file("D:/TI/ccs/tools/compiler/ti-cgt-c2000_22.6.2.LTS/include/math.h"
    2406                      .dwattr $C$DW$82, DW_AT_TI_end_line(0x110)
    2407                      .dwattr $C$DW$82, DW_AT_TI_end_column(0x01)
    2408                      .dwendentry
    2409                      .dwendtag $C$DW$82
    2410              
    2411 00000000               .sect   ".text:__relaxed_atanf"
    2412                      .clink
    2413                      .global ||__relaxed_atanf||
    2414              
    2415              $C$DW$86        .dwtag  DW_TAG_subprogram
    2416                      .dwattr $C$DW$86, DW_AT_name("__relaxed_atanf")
    2417                      .dwattr $C$DW$86, DW_AT_low_pc(||__relaxed_atanf||)
    2418                      .dwattr $C$DW$86, DW_AT_high_pc(0x00)
    2419                      .dwattr $C$DW$86, DW_AT_linkage_name("__relaxed_atanf")
    2420                      .dwattr $C$DW$86, DW_AT_external
    2421                      .dwattr $C$DW$86, DW_AT_type(*$C$DW$T$16)
    2422                      .dwattr $C$DW$86, DW_AT_decl_file("D:/TI/ccs/tools/compiler/ti-cgt-c2000_22.6.2.LTS/include/math.h")
    2423                      .dwattr $C$DW$86, DW_AT_decl_line(0x112)
    2424                      .dwattr $C$DW$86, DW_AT_decl_column(0x10)
    2425                      .dwattr $C$DW$86, DW_AT_TI_max_frame_size(-2)
    2426                      .dwpsn  file "D:/TI/ccs/tools/compiler/ti-cgt-c2000_22.6.2.LTS/include/math.h",line 275,column 1,is_s
    2427              
    2428                      .dwfde $C$DW$CIE, ||__relaxed_atanf||
    2429              $C$DW$87        .dwtag  DW_TAG_formal_parameter
    2430                      .dwattr $C$DW$87, DW_AT_name("x")
    2431                      .dwattr $C$DW$87, DW_AT_type(*$C$DW$T$16)
    2432                      .dwattr $C$DW$87, DW_AT_location[DW_OP_regx 0x2b]
    2433              
TMS320C2000 Assembler PC v22.6.2 Sat Dec 27 15:00:18 2025

Copyright (c) 1996-2018 Texas Instruments Incorporated
dual_axis_servo_drive_user.asm                                       PAGE   55

    2434              
    2435              ;***************************************************************
    2436              ;* FNAME: __relaxed_atanf               FR SIZE:   0           *
    2437              ;*                                                             *
    2438              ;* FUNCTION ENVIRONMENT                                        *
    2439              ;*                                                             *
    2440              ;* FUNCTION PROPERTIES                                         *
    2441              ;*                            0 Parameter,  0 Auto,  0 SOE     *
    2442              ;***************************************************************
    2443              
    2444              ||__relaxed_atanf||:
    2445              ;* R0    assigned to x
    2446              $C$DW$88        .dwtag  DW_TAG_variable
    2447                      .dwattr $C$DW$88, DW_AT_name("x")
    2448                      .dwattr $C$DW$88, DW_AT_type(*$C$DW$T$147)
    2449                      .dwattr $C$DW$88, DW_AT_location[DW_OP_regx 0x2b]
    2450              
    2451                      .dwcfi  cfa_offset, -2
    2452                      .dwcfi  save_reg_to_mem, 26, 0
    2453                      .dwpsn  file "D:/TI/ccs/tools/compiler/ti-cgt-c2000_22.6.2.LTS/include/math.h",line 276,column 3,is_s
    2454 00000000 E801          MOVIZ     R1H,#16256            ; [CPU_FPU] |276| 
         00000001 FC01 
    2455 00000002 E27C          QUADF32   R1H,R0H,R0H,R1H       ; [CPU_FPU] |276| 
         00000003 0201 
    2456 00000004 7700          NOP       ; [CPU_ALU] 
    2457 00000005 7700          NOP       ; [CPU_ALU] 
    2458 00000006 7700          NOP       ; [CPU_ALU] 
    2459 00000007 7700          NOP       ; [CPU_ALU] 
    2460 00000008 E27A          ATANPUF32 R0H,R0H               ; [CPU_FPU] |276| 
         00000009 0000 
    2461 0000000a 7700          NOP       ; [CPU_ALU] 
    2462 0000000b 7700          NOP       ; [CPU_ALU] 
    2463 0000000c 7700          NOP       ; [CPU_ALU] 
    2464 0000000d E710          ADDF32    R0H,R0H,R1H           ; [CPU_FPU] |276| 
         0000000e 0040 
    2465 0000000f 7700          NOP       ; [CPU_ALU] 
    2466 00000010 7700          NOP       ; [CPU_ALU] 
    2467 00000011 E270          MPY2PIF32 R0H,R0H               ; [CPU_FPU] |276| 
         00000012 0000 
    2468 00000013 7700          NOP       ; [CPU_ALU] 
    2469              $C$DW$89        .dwtag  DW_TAG_TI_branch
    2470                      .dwattr $C$DW$89, DW_AT_low_pc(0x00)
    2471                      .dwattr $C$DW$89, DW_AT_TI_return
    2472              
    2473 00000014 0006          LRETR     ; [CPU_ALU] 
    2474                      ; return occurs ; [] 
    2475                      .dwattr $C$DW$86, DW_AT_TI_end_file("D:/TI/ccs/tools/compiler/ti-cgt-c2000_22.6.2.LTS/include/math.h"
    2476                      .dwattr $C$DW$86, DW_AT_TI_end_line(0x115)
    2477                      .dwattr $C$DW$86, DW_AT_TI_end_column(0x01)
    2478                      .dwendentry
    2479                      .dwendtag $C$DW$86
    2480              
    2481 00000000               .sect   ".text:__relaxed_atan2f"
    2482                      .clink
    2483                      .global ||__relaxed_atan2f||
TMS320C2000 Assembler PC v22.6.2 Sat Dec 27 15:00:18 2025

Copyright (c) 1996-2018 Texas Instruments Incorporated
dual_axis_servo_drive_user.asm                                       PAGE   56

    2484              
    2485              $C$DW$90        .dwtag  DW_TAG_subprogram
    2486                      .dwattr $C$DW$90, DW_AT_name("__relaxed_atan2f")
    2487                      .dwattr $C$DW$90, DW_AT_low_pc(||__relaxed_atan2f||)
    2488                      .dwattr $C$DW$90, DW_AT_high_pc(0x00)
    2489                      .dwattr $C$DW$90, DW_AT_linkage_name("__relaxed_atan2f")
    2490                      .dwattr $C$DW$90, DW_AT_external
    2491                      .dwattr $C$DW$90, DW_AT_type(*$C$DW$T$16)
    2492                      .dwattr $C$DW$90, DW_AT_decl_file("D:/TI/ccs/tools/compiler/ti-cgt-c2000_22.6.2.LTS/include/math.h")
    2493                      .dwattr $C$DW$90, DW_AT_decl_line(0x117)
    2494                      .dwattr $C$DW$90, DW_AT_decl_column(0x10)
    2495                      .dwattr $C$DW$90, DW_AT_TI_max_frame_size(-2)
    2496                      .dwpsn  file "D:/TI/ccs/tools/compiler/ti-cgt-c2000_22.6.2.LTS/include/math.h",line 280,column 1,is_s
    2497              
    2498                      .dwfde $C$DW$CIE, ||__relaxed_atan2f||
    2499              $C$DW$91        .dwtag  DW_TAG_formal_parameter
    2500                      .dwattr $C$DW$91, DW_AT_name("y")
    2501                      .dwattr $C$DW$91, DW_AT_type(*$C$DW$T$16)
    2502                      .dwattr $C$DW$91, DW_AT_location[DW_OP_regx 0x2b]
    2503              
    2504              $C$DW$92        .dwtag  DW_TAG_formal_parameter
    2505                      .dwattr $C$DW$92, DW_AT_name("x")
    2506                      .dwattr $C$DW$92, DW_AT_type(*$C$DW$T$16)
    2507                      .dwattr $C$DW$92, DW_AT_location[DW_OP_regx 0x2f]
    2508              
    2509              
    2510              ;***************************************************************
    2511              ;* FNAME: __relaxed_atan2f              FR SIZE:   0           *
    2512              ;*                                                             *
    2513              ;* FUNCTION ENVIRONMENT                                        *
    2514              ;*                                                             *
    2515              ;* FUNCTION PROPERTIES                                         *
    2516              ;*                            0 Parameter,  0 Auto,  0 SOE     *
    2517              ;***************************************************************
    2518              
    2519              ||__relaxed_atan2f||:
    2520              ;* R0    assigned to y
    2521              $C$DW$93        .dwtag  DW_TAG_variable
    2522                      .dwattr $C$DW$93, DW_AT_name("y")
    2523                      .dwattr $C$DW$93, DW_AT_type(*$C$DW$T$147)
    2524                      .dwattr $C$DW$93, DW_AT_location[DW_OP_regx 0x2b]
    2525              
    2526              ;* R1    assigned to x
    2527              $C$DW$94        .dwtag  DW_TAG_variable
    2528                      .dwattr $C$DW$94, DW_AT_name("x")
    2529                      .dwattr $C$DW$94, DW_AT_type(*$C$DW$T$147)
    2530                      .dwattr $C$DW$94, DW_AT_location[DW_OP_regx 0x2f]
    2531              
    2532                      .dwcfi  cfa_offset, -2
    2533                      .dwcfi  save_reg_to_mem, 26, 0
    2534                      .dwpsn  file "D:/TI/ccs/tools/compiler/ti-cgt-c2000_22.6.2.LTS/include/math.h",line 281,column 3,is_s
    2535 00000000 E27C          QUADF32   R1H,R0H,R0H,R1H       ; [CPU_FPU] |281| 
         00000001 0201 
    2536 00000002 7700          NOP       ; [CPU_ALU] 
    2537 00000003 7700          NOP       ; [CPU_ALU] 
TMS320C2000 Assembler PC v22.6.2 Sat Dec 27 15:00:18 2025

Copyright (c) 1996-2018 Texas Instruments Incorporated
dual_axis_servo_drive_user.asm                                       PAGE   57

    2538 00000004 7700          NOP       ; [CPU_ALU] 
    2539 00000005 7700          NOP       ; [CPU_ALU] 
    2540 00000006 E27A          ATANPUF32 R0H,R0H               ; [CPU_FPU] |281| 
         00000007 0000 
    2541 00000008 7700          NOP       ; [CPU_ALU] 
    2542 00000009 7700          NOP       ; [CPU_ALU] 
    2543 0000000a 7700          NOP       ; [CPU_ALU] 
    2544 0000000b E710          ADDF32    R0H,R0H,R1H           ; [CPU_FPU] |281| 
         0000000c 0040 
    2545 0000000d 7700          NOP       ; [CPU_ALU] 
    2546 0000000e 7700          NOP       ; [CPU_ALU] 
    2547 0000000f E270          MPY2PIF32 R0H,R0H               ; [CPU_FPU] |281| 
         00000010 0000 
    2548 00000011 7700          NOP       ; [CPU_ALU] 
    2549              $C$DW$95        .dwtag  DW_TAG_TI_branch
    2550                      .dwattr $C$DW$95, DW_AT_low_pc(0x00)
    2551                      .dwattr $C$DW$95, DW_AT_TI_return
    2552              
    2553 00000012 0006          LRETR     ; [CPU_ALU] 
    2554                      ; return occurs ; [] 
    2555                      .dwattr $C$DW$90, DW_AT_TI_end_file("D:/TI/ccs/tools/compiler/ti-cgt-c2000_22.6.2.LTS/include/math.h"
    2556                      .dwattr $C$DW$90, DW_AT_TI_end_line(0x11a)
    2557                      .dwattr $C$DW$90, DW_AT_TI_end_column(0x01)
    2558                      .dwendentry
    2559                      .dwendtag $C$DW$90
    2560              
    2561 00000000               .sect   ".text:__isnormall"
    2562                      .clink
    2563                      .global ||__isnormall||
    2564              
    2565              $C$DW$96        .dwtag  DW_TAG_subprogram
    2566                      .dwattr $C$DW$96, DW_AT_name("__isnormall")
    2567                      .dwattr $C$DW$96, DW_AT_low_pc(||__isnormall||)
    2568                      .dwattr $C$DW$96, DW_AT_high_pc(0x00)
    2569                      .dwattr $C$DW$96, DW_AT_linkage_name("__isnormall")
    2570                      .dwattr $C$DW$96, DW_AT_external
    2571                      .dwattr $C$DW$96, DW_AT_type(*$C$DW$T$10)
    2572                      .dwattr $C$DW$96, DW_AT_decl_file("D:/TI/ccs/tools/compiler/ti-cgt-c2000_22.6.2.LTS/include/_defs.h")
    2573                      .dwattr $C$DW$96, DW_AT_decl_line(0x167)
    2574                      .dwattr $C$DW$96, DW_AT_decl_column(0x18)
    2575                      .dwattr $C$DW$96, DW_AT_TI_max_frame_size(-6)
    2576                      .dwpsn  file "D:/TI/ccs/tools/compiler/ti-cgt-c2000_22.6.2.LTS/include/_defs.h",line 360,column 1,is_
    2577              
    2578                      .dwfde $C$DW$CIE, ||__isnormall||
    2579              $C$DW$97        .dwtag  DW_TAG_formal_parameter
    2580                      .dwattr $C$DW$97, DW_AT_name("e")
    2581                      .dwattr $C$DW$97, DW_AT_type(*$C$DW$T$151)
    2582                      .dwattr $C$DW$97, DW_AT_location[DW_OP_reg12]
    2583              
    2584              
    2585              ;***************************************************************
    2586              ;* FNAME: __isnormall                   FR SIZE:   4           *
    2587              ;*                                                             *
    2588              ;* FUNCTION ENVIRONMENT                                        *
    2589              ;*                                                             *
TMS320C2000 Assembler PC v22.6.2 Sat Dec 27 15:00:18 2025

Copyright (c) 1996-2018 Texas Instruments Incorporated
dual_axis_servo_drive_user.asm                                       PAGE   58

    2590              ;* FUNCTION PROPERTIES                                         *
    2591              ;*                            4 Parameter,  0 Auto,  0 SOE     *
    2592              ;***************************************************************
    2593              
    2594              ||__isnormall||:
    2595              ;* AR5   assigned to $O$C2
    2596              ;* AR6   assigned to $O$S1
    2597              ;* AR4   assigned to e
    2598              $C$DW$98        .dwtag  DW_TAG_variable
    2599                      .dwattr $C$DW$98, DW_AT_name("e")
    2600                      .dwattr $C$DW$98, DW_AT_type(*$C$DW$T$152)
    2601                      .dwattr $C$DW$98, DW_AT_location[DW_OP_reg12]
    2602              
    2603                      .dwcfi  cfa_offset, -2
    2604                      .dwcfi  save_reg_to_mem, 26, 0
    2605 00000000 FE04          ADDB      SP,#4                 ; [CPU_ARAU] 
    2606                      .dwcfi  cfa_offset, -6
    2607                      .dwpsn  file "D:/TI/ccs/tools/compiler/ti-cgt-c2000_22.6.2.LTS/include/_defs.h",line 360,column 3,is_
    2608 00000001 83C4          MOVL      XAR5,*+XAR4[0]        ; [CPU_ALU] |360| 
    2609 00000002 8AD4          MOVL      XAR4,*+XAR4[2]        ; [CPU_ALU] |360| 
    2610 00000003 BE00          MOVB      XAR6,#0               ; [CPU_ALU] |360| 
    2611 00000004 28AC          MOV       T,#52                 ; [CPU_ALU] |360| 
         00000005 0034 
    2612 00000006 A0AB          MOVL      P,XAR5                ; [CPU_ALU] |360| 
    2613 00000007 A8A9          MOVL      ACC,XAR4              ; [CPU_ALU] |360| 
    2614 00000008 C244          MOVL      *-SP[4],XAR6          ; [CPU_ALU] |360| 
    2615 00000009 2B42          MOV       *-SP[2],#0            ; [CPU_ALU] |360| 
    2616 0000000a 565B          LSR64     ACC:P,T               ; [CPU_ALU] |360| 
    2617 0000000b 2B41          MOV       *-SP[1],#0            ; [CPU_FPU] |360| 
    2618 0000000c 9000          ANDB      AL,#0                 ; [CPU_ALU] |360| 
    2619 0000000d 9100          ANDB      AH,#0                 ; [CPU_ALU] |360| 
    2620 0000000e 18AB          AND       PL,#2047              ; [CPU_ALU] |360| 
         0000000f 07FF 
    2621 00000010 18AA          AND       PH,#0                 ; [CPU_ALU] |360| 
         00000011 0000 
    2622              $C$DW$99        .dwtag  DW_TAG_TI_branch
    2623                      .dwattr $C$DW$99, DW_AT_low_pc(0x00)
    2624                      .dwattr $C$DW$99, DW_AT_name("__c28xabi_cmpull")
    2625                      .dwattr $C$DW$99, DW_AT_TI_call
    2626              
    2627 00000012 7640!         LCR       #||__c28xabi_cmpull|| ; [CPU_ALU] |360| 
         00000013 0000 
    2628                      ; call occurs [#||__c28xabi_cmpull||] ; [] |360| 
    2629 00000014 BE00          MOVB      XAR6,#0               ; [CPU_ALU] |360| 
    2630 00000015 5200          CMPB      AL,#0                 ; [CPU_ALU] |360| 
    2631 00000016 610E          B         ||$C$L12||,EQ         ; [CPU_ALU] |360| 
    2632                      ; branchcc occurs ; [] |360| 
    2633 00000017 A0AB          MOVL      P,XAR5                ; [CPU_ALU] |360| 
    2634 00000018 A8A9          MOVL      ACC,XAR4              ; [CPU_ALU] |360| 
    2635 00000019 28AC          MOV       T,#48                 ; [CPU_ALU] |360| 
         0000001a 0030 
    2636 0000001b 565B          LSR64     ACC:P,T               ; [CPU_ALU] |360| 
    2637 0000001c 18AB          AND       PL,#0x7ff0            ; [CPU_ALU] |360| 
         0000001d 7FF0 
    2638 0000001e 80AB          MOVZ      AR7,PL                ; [CPU_ALU] |360| 
TMS320C2000 Assembler PC v22.6.2 Sat Dec 27 15:00:18 2025

Copyright (c) 1996-2018 Texas Instruments Incorporated
dual_axis_servo_drive_user.asm                                       PAGE   59

    2639 0000001f FF20          MOV       ACC,#32752            ; [CPU_ALU] |360| 
         00000020 7FF0 
    2640 00000021 0FA7          CMPL      ACC,XAR7              ; [CPU_ALU] |360| 
    2641 00000022 56B0          MOVB      XAR6,#1,NEQ           ; [CPU_ALU] |360| 
         00000023 01A6 
    2642 00000024       ||$C$L12||:    
    2643 00000024 FE84          SUBB      SP,#4                 ; [CPU_ARAU] 
    2644                      .dwcfi  cfa_offset, -2
    2645 00000025 92A6          MOV       AL,AR6                ; [CPU_ALU] |360| 
    2646              $C$DW$100       .dwtag  DW_TAG_TI_branch
    2647                      .dwattr $C$DW$100, DW_AT_low_pc(0x00)
    2648                      .dwattr $C$DW$100, DW_AT_TI_return
    2649              
    2650 00000026 0006          LRETR     ; [CPU_ALU] 
    2651                      ; return occurs ; [] 
    2652                      .dwattr $C$DW$96, DW_AT_TI_end_file("D:/TI/ccs/tools/compiler/ti-cgt-c2000_22.6.2.LTS/include/_defs.h
    2653                      .dwattr $C$DW$96, DW_AT_TI_end_line(0x169)
    2654                      .dwattr $C$DW$96, DW_AT_TI_end_column(0x31)
    2655                      .dwendentry
    2656                      .dwendtag $C$DW$96
    2657              
    2658 00000000               .sect   ".text:__isnormalf"
    2659                      .clink
    2660                      .global ||__isnormalf||
    2661              
    2662              $C$DW$101       .dwtag  DW_TAG_subprogram
    2663                      .dwattr $C$DW$101, DW_AT_name("__isnormalf")
    2664                      .dwattr $C$DW$101, DW_AT_low_pc(||__isnormalf||)
    2665                      .dwattr $C$DW$101, DW_AT_high_pc(0x00)
    2666                      .dwattr $C$DW$101, DW_AT_linkage_name("__isnormalf")
    2667                      .dwattr $C$DW$101, DW_AT_external
    2668                      .dwattr $C$DW$101, DW_AT_type(*$C$DW$T$10)
    2669                      .dwattr $C$DW$101, DW_AT_decl_file("D:/TI/ccs/tools/compiler/ti-cgt-c2000_22.6.2.LTS/include/_defs.h"
    2670                      .dwattr $C$DW$101, DW_AT_decl_line(0x163)
    2671                      .dwattr $C$DW$101, DW_AT_decl_column(0x18)
    2672                      .dwattr $C$DW$101, DW_AT_TI_max_frame_size(-2)
    2673                      .dwpsn  file "D:/TI/ccs/tools/compiler/ti-cgt-c2000_22.6.2.LTS/include/_defs.h",line 356,column 1,is_
    2674              
    2675                      .dwfde $C$DW$CIE, ||__isnormalf||
    2676              $C$DW$102       .dwtag  DW_TAG_formal_parameter
    2677                      .dwattr $C$DW$102, DW_AT_name("f")
    2678                      .dwattr $C$DW$102, DW_AT_type(*$C$DW$T$16)
    2679                      .dwattr $C$DW$102, DW_AT_location[DW_OP_regx 0x2b]
    2680              
    2681              
    2682              ;***************************************************************
    2683              ;* FNAME: __isnormalf                   FR SIZE:   0           *
    2684              ;*                                                             *
    2685              ;* FUNCTION ENVIRONMENT                                        *
    2686              ;*                                                             *
    2687              ;* FUNCTION PROPERTIES                                         *
    2688              ;*                            0 Parameter,  0 Auto,  0 SOE     *
    2689              ;***************************************************************
    2690              
    2691              ||__isnormalf||:
TMS320C2000 Assembler PC v22.6.2 Sat Dec 27 15:00:18 2025

Copyright (c) 1996-2018 Texas Instruments Incorporated
dual_axis_servo_drive_user.asm                                       PAGE   60

    2692              ;* PL    assigned to $O$K3
    2693              ;* AR6   assigned to $O$S1
    2694              ;* R0    assigned to f
    2695              $C$DW$103       .dwtag  DW_TAG_variable
    2696                      .dwattr $C$DW$103, DW_AT_name("f")
    2697                      .dwattr $C$DW$103, DW_AT_type(*$C$DW$T$147)
    2698                      .dwattr $C$DW$103, DW_AT_location[DW_OP_regx 0x2b]
    2699              
    2700                      .dwcfi  cfa_offset, -2
    2701                      .dwcfi  save_reg_to_mem, 26, 0
    2702                      .dwpsn  file "D:/TI/ccs/tools/compiler/ti-cgt-c2000_22.6.2.LTS/include/_defs.h",line 356,column 3,is_
    2703 00000000 BFAB          MOV32     P,R0H                 ; [CPU_FPU] |356| 
         00000001 0F12 
    2704 00000002 28AC          MOV       T,#23                 ; [CPU_ALU] |356| 
         00000003 0017 
    2705 00000004 A9A9          MOVL      ACC,P                 ; [CPU_ALU] |356| 
    2706 00000005 BE00          MOVB      XAR6,#0               ; [CPU_ALU] |356| 
    2707 00000006 5622          LSRL      ACC,T                 ; [CPU_ALU] |356| 
    2708 00000007 90FF          ANDB      AL,#0xff              ; [CPU_ALU] |356| 
    2709 00000008 6109          B         ||$C$L13||,EQ         ; [CPU_ALU] |356| 
    2710                      ; branchcc occurs ; [] |356| 
    2711 00000009 CCAA          AND       AL,PH,#0x7f80         ; [CPU_ALU] |356| 
         0000000a 7F80 
    2712 0000000b 80A9          MOVZ      AR7,AL                ; [CPU_ALU] |356| 
    2713 0000000c FF20          MOV       ACC,#32640            ; [CPU_ALU] |356| 
         0000000d 7F80 
    2714 0000000e 0FA7          CMPL      ACC,XAR7              ; [CPU_ALU] |356| 
    2715 0000000f 56B0          MOVB      XAR6,#1,NEQ           ; [CPU_ALU] |356| 
         00000010 01A6 
    2716 00000011       ||$C$L13||:    
    2717 00000011 92A6          MOV       AL,AR6                ; [CPU_ALU] |356| 
    2718              $C$DW$104       .dwtag  DW_TAG_TI_branch
    2719                      .dwattr $C$DW$104, DW_AT_low_pc(0x00)
    2720                      .dwattr $C$DW$104, DW_AT_TI_return
    2721              
    2722 00000012 0006          LRETR     ; [CPU_ALU] 
    2723                      ; return occurs ; [] 
    2724                      .dwattr $C$DW$101, DW_AT_TI_end_file("D:/TI/ccs/tools/compiler/ti-cgt-c2000_22.6.2.LTS/include/_defs.
    2725                      .dwattr $C$DW$101, DW_AT_TI_end_line(0x165)
    2726                      .dwattr $C$DW$101, DW_AT_TI_end_column(0x2f)
    2727                      .dwendentry
    2728                      .dwendtag $C$DW$101
    2729              
    2730 00000000               .sect   ".text:__isnormal"
    2731                      .clink
    2732                      .global ||__isnormal||
    2733              
    2734              $C$DW$105       .dwtag  DW_TAG_subprogram
    2735                      .dwattr $C$DW$105, DW_AT_name("__isnormal")
    2736                      .dwattr $C$DW$105, DW_AT_low_pc(||__isnormal||)
    2737                      .dwattr $C$DW$105, DW_AT_high_pc(0x00)
    2738                      .dwattr $C$DW$105, DW_AT_linkage_name("__isnormal")
    2739                      .dwattr $C$DW$105, DW_AT_external
    2740                      .dwattr $C$DW$105, DW_AT_type(*$C$DW$T$10)
    2741                      .dwattr $C$DW$105, DW_AT_decl_file("D:/TI/ccs/tools/compiler/ti-cgt-c2000_22.6.2.LTS/include/_defs.h"
TMS320C2000 Assembler PC v22.6.2 Sat Dec 27 15:00:18 2025

Copyright (c) 1996-2018 Texas Instruments Incorporated
dual_axis_servo_drive_user.asm                                       PAGE   61

    2742                      .dwattr $C$DW$105, DW_AT_decl_line(0x15f)
    2743                      .dwattr $C$DW$105, DW_AT_decl_column(0x18)
    2744                      .dwattr $C$DW$105, DW_AT_TI_max_frame_size(-6)
    2745                      .dwpsn  file "D:/TI/ccs/tools/compiler/ti-cgt-c2000_22.6.2.LTS/include/_defs.h",line 352,column 1,is_
    2746              
    2747                      .dwfde $C$DW$CIE, ||__isnormal||
    2748              $C$DW$106       .dwtag  DW_TAG_formal_parameter
    2749                      .dwattr $C$DW$106, DW_AT_name("d")
    2750                      .dwattr $C$DW$106, DW_AT_type(*$C$DW$T$149)
    2751                      .dwattr $C$DW$106, DW_AT_location[DW_OP_reg12]
    2752              
    2753              
    2754              ;***************************************************************
    2755              ;* FNAME: __isnormal                    FR SIZE:   4           *
    2756              ;*                                                             *
    2757              ;* FUNCTION ENVIRONMENT                                        *
    2758              ;*                                                             *
    2759              ;* FUNCTION PROPERTIES                                         *
    2760              ;*                            4 Parameter,  0 Auto,  0 SOE     *
    2761              ;***************************************************************
    2762              
    2763              ||__isnormal||:
    2764              ;* AR5   assigned to $O$C2
    2765              ;* AR6   assigned to $O$S1
    2766              ;* AR4   assigned to d
    2767              $C$DW$107       .dwtag  DW_TAG_variable
    2768                      .dwattr $C$DW$107, DW_AT_name("d")
    2769                      .dwattr $C$DW$107, DW_AT_type(*$C$DW$T$150)
    2770                      .dwattr $C$DW$107, DW_AT_location[DW_OP_reg12]
    2771              
    2772                      .dwcfi  cfa_offset, -2
    2773                      .dwcfi  save_reg_to_mem, 26, 0
    2774 00000000 FE04          ADDB      SP,#4                 ; [CPU_ARAU] 
    2775                      .dwcfi  cfa_offset, -6
    2776                      .dwpsn  file "D:/TI/ccs/tools/compiler/ti-cgt-c2000_22.6.2.LTS/include/_defs.h",line 352,column 3,is_
    2777 00000001 83C4          MOVL      XAR5,*+XAR4[0]        ; [CPU_ALU] |352| 
    2778 00000002 8AD4          MOVL      XAR4,*+XAR4[2]        ; [CPU_ALU] |352| 
    2779 00000003 BE00          MOVB      XAR6,#0               ; [CPU_ALU] |352| 
    2780 00000004 28AC          MOV       T,#52                 ; [CPU_ALU] |352| 
         00000005 0034 
    2781 00000006 A0AB          MOVL      P,XAR5                ; [CPU_ALU] |352| 
    2782 00000007 A8A9          MOVL      ACC,XAR4              ; [CPU_ALU] |352| 
    2783 00000008 C244          MOVL      *-SP[4],XAR6          ; [CPU_ALU] |352| 
    2784 00000009 2B42          MOV       *-SP[2],#0            ; [CPU_ALU] |352| 
    2785 0000000a 565B          LSR64     ACC:P,T               ; [CPU_ALU] |352| 
    2786 0000000b 2B41          MOV       *-SP[1],#0            ; [CPU_FPU] |352| 
    2787 0000000c 9000          ANDB      AL,#0                 ; [CPU_ALU] |352| 
    2788 0000000d 9100          ANDB      AH,#0                 ; [CPU_ALU] |352| 
    2789 0000000e 18AB          AND       PL,#2047              ; [CPU_ALU] |352| 
         0000000f 07FF 
    2790 00000010 18AA          AND       PH,#0                 ; [CPU_ALU] |352| 
         00000011 0000 
    2791              $C$DW$108       .dwtag  DW_TAG_TI_branch
    2792                      .dwattr $C$DW$108, DW_AT_low_pc(0x00)
    2793                      .dwattr $C$DW$108, DW_AT_name("__c28xabi_cmpull")
TMS320C2000 Assembler PC v22.6.2 Sat Dec 27 15:00:18 2025

Copyright (c) 1996-2018 Texas Instruments Incorporated
dual_axis_servo_drive_user.asm                                       PAGE   62

    2794                      .dwattr $C$DW$108, DW_AT_TI_call
    2795              
    2796 00000012 7640!         LCR       #||__c28xabi_cmpull|| ; [CPU_ALU] |352| 
         00000013 0000 
    2797                      ; call occurs [#||__c28xabi_cmpull||] ; [] |352| 
    2798 00000014 BE00          MOVB      XAR6,#0               ; [CPU_ALU] |352| 
    2799 00000015 5200          CMPB      AL,#0                 ; [CPU_ALU] |352| 
    2800 00000016 610E          B         ||$C$L14||,EQ         ; [CPU_ALU] |352| 
    2801                      ; branchcc occurs ; [] |352| 
    2802 00000017 A0AB          MOVL      P,XAR5                ; [CPU_ALU] |352| 
    2803 00000018 A8A9          MOVL      ACC,XAR4              ; [CPU_ALU] |352| 
    2804 00000019 28AC          MOV       T,#48                 ; [CPU_ALU] |352| 
         0000001a 0030 
    2805 0000001b 565B          LSR64     ACC:P,T               ; [CPU_ALU] |352| 
    2806 0000001c 18AB          AND       PL,#0x7ff0            ; [CPU_ALU] |352| 
         0000001d 7FF0 
    2807 0000001e 80AB          MOVZ      AR7,PL                ; [CPU_ALU] |352| 
    2808 0000001f FF20          MOV       ACC,#32752            ; [CPU_ALU] |352| 
         00000020 7FF0 
    2809 00000021 0FA7          CMPL      ACC,XAR7              ; [CPU_ALU] |352| 
    2810 00000022 56B0          MOVB      XAR6,#1,NEQ           ; [CPU_ALU] |352| 
         00000023 01A6 
    2811 00000024       ||$C$L14||:    
    2812 00000024 FE84          SUBB      SP,#4                 ; [CPU_ARAU] 
    2813                      .dwcfi  cfa_offset, -2
    2814 00000025 92A6          MOV       AL,AR6                ; [CPU_ALU] |352| 
    2815              $C$DW$109       .dwtag  DW_TAG_TI_branch
    2816                      .dwattr $C$DW$109, DW_AT_low_pc(0x00)
    2817                      .dwattr $C$DW$109, DW_AT_TI_return
    2818              
    2819 00000026 0006          LRETR     ; [CPU_ALU] 
    2820                      ; return occurs ; [] 
    2821                      .dwattr $C$DW$105, DW_AT_TI_end_file("D:/TI/ccs/tools/compiler/ti-cgt-c2000_22.6.2.LTS/include/_defs.
    2822                      .dwattr $C$DW$105, DW_AT_TI_end_line(0x161)
    2823                      .dwattr $C$DW$105, DW_AT_TI_end_column(0x30)
    2824                      .dwendentry
    2825                      .dwendtag $C$DW$105
    2826              
    2827 00000000               .sect   ".text:__isnanl"
    2828                      .clink
    2829                      .global ||__isnanl||
    2830              
    2831              $C$DW$110       .dwtag  DW_TAG_subprogram
    2832                      .dwattr $C$DW$110, DW_AT_name("__isnanl")
    2833                      .dwattr $C$DW$110, DW_AT_low_pc(||__isnanl||)
    2834                      .dwattr $C$DW$110, DW_AT_high_pc(0x00)
    2835                      .dwattr $C$DW$110, DW_AT_linkage_name("__isnanl")
    2836                      .dwattr $C$DW$110, DW_AT_external
    2837                      .dwattr $C$DW$110, DW_AT_type(*$C$DW$T$10)
    2838                      .dwattr $C$DW$110, DW_AT_decl_file("D:/TI/ccs/tools/compiler/ti-cgt-c2000_22.6.2.LTS/include/_defs.h"
    2839                      .dwattr $C$DW$110, DW_AT_decl_line(0x15b)
    2840                      .dwattr $C$DW$110, DW_AT_decl_column(0x18)
    2841                      .dwattr $C$DW$110, DW_AT_TI_max_frame_size(-6)
    2842                      .dwpsn  file "D:/TI/ccs/tools/compiler/ti-cgt-c2000_22.6.2.LTS/include/_defs.h",line 348,column 1,is_
    2843              
TMS320C2000 Assembler PC v22.6.2 Sat Dec 27 15:00:18 2025

Copyright (c) 1996-2018 Texas Instruments Incorporated
dual_axis_servo_drive_user.asm                                       PAGE   63

    2844                      .dwfde $C$DW$CIE, ||__isnanl||
    2845              $C$DW$111       .dwtag  DW_TAG_formal_parameter
    2846                      .dwattr $C$DW$111, DW_AT_name("e")
    2847                      .dwattr $C$DW$111, DW_AT_type(*$C$DW$T$151)
    2848                      .dwattr $C$DW$111, DW_AT_location[DW_OP_reg12]
    2849              
    2850              
    2851              ;***************************************************************
    2852              ;* FNAME: __isnanl                      FR SIZE:   4           *
