TMS320C2000 Assembler PC v22.6.2 Sat Dec 27 15:00:18 2025

Copyright (c) 1996-2018 Texas Instruments Incorporated
cla.asm                                                              PAGE    1

       1              ;***************************************************************
       2              ;* TMS320C2000 G3 C/C++ Codegen                               PC v22.6.2.LTS *
       3              ;* Date/Time created: Sat Dec 27 15:00:18 2025                 *
       4              ;***************************************************************
       5                      .compiler_opts --abi=eabi --cla_support=cla1 --diag_wrap=off --float_support=fpu32 --hll_source=on --
       6                      .asg    XAR2, FP
       7              
       8              $C$DW$CU        .dwtag  DW_TAG_compile_unit
       9                      .dwattr $C$DW$CU, DW_AT_name("../src_driver/cla.c")
      10                      .dwattr $C$DW$CU, DW_AT_producer("TI TMS320C2000 G3 C/C++ Codegen PC v22.6.2.LTS Copyright (c) 1996-2
      11                      .dwattr $C$DW$CU, DW_AT_TI_version(0x01)
      12                      .dwattr $C$DW$CU, DW_AT_comp_dir("C:\Users\JUNLI\workspace_ccstheia\dual_axis_servo_drive_fcl_qep_f28
      13              
      14              $C$DW$1 .dwtag  DW_TAG_subprogram
      15                      .dwattr $C$DW$1, DW_AT_name("__eallow")
      16                      .dwattr $C$DW$1, DW_AT_linkage_name("__eallow")
      17                      .dwattr $C$DW$1, DW_AT_declaration
      18                      .dwattr $C$DW$1, DW_AT_external
      19                      .dwendtag $C$DW$1
      20              
      21              
      22              $C$DW$2 .dwtag  DW_TAG_subprogram
      23                      .dwattr $C$DW$2, DW_AT_name("__edis")
      24                      .dwattr $C$DW$2, DW_AT_linkage_name("__edis")
      25                      .dwattr $C$DW$2, DW_AT_declaration
      26                      .dwattr $C$DW$2, DW_AT_external
      27                      .dwendtag $C$DW$2
      28              
      29              ;       D:\TI\ccs\tools\compiler\ti-cgt-c2000_22.6.2.LTS\bin\opt2000.exe C:\\Users\\JUNLI\\AppData\\Local\\Te
      30              ;       D:\TI\ccs\tools\compiler\ti-cgt-c2000_22.6.2.LTS\bin\acia2000.exe -@C:\\Users\\JUNLI\\AppData\\Local\
      31 00000000               .sect   ".text:CLA_setTriggerSource"
      32                      .clink
      33                      .global ||CLA_setTriggerSource||
      34              
      35              $C$DW$3 .dwtag  DW_TAG_subprogram
      36                      .dwattr $C$DW$3, DW_AT_name("CLA_setTriggerSource")
      37                      .dwattr $C$DW$3, DW_AT_low_pc(||CLA_setTriggerSource||)
      38                      .dwattr $C$DW$3, DW_AT_high_pc(0x00)
      39                      .dwattr $C$DW$3, DW_AT_linkage_name("CLA_setTriggerSource")
      40                      .dwattr $C$DW$3, DW_AT_external
      41                      .dwattr $C$DW$3, DW_AT_decl_file("../src_driver/cla.c")
      42                      .dwattr $C$DW$3, DW_AT_decl_line(0x33)
      43                      .dwattr $C$DW$3, DW_AT_decl_column(0x01)
      44                      .dwattr $C$DW$3, DW_AT_TI_max_frame_size(-2)
      45                      .dwpsn  file "../src_driver/cla.c",line 52,column 1,is_stmt,address ||CLA_setTriggerSource||,isa 0
      46              
      47                      .dwfde $C$DW$CIE, ||CLA_setTriggerSource||
      48              $C$DW$4 .dwtag  DW_TAG_formal_parameter
      49                      .dwattr $C$DW$4, DW_AT_name("taskNumber")
      50                      .dwattr $C$DW$4, DW_AT_type(*$C$DW$T$20)
      51                      .dwattr $C$DW$4, DW_AT_location[DW_OP_reg0]
      52              
      53              $C$DW$5 .dwtag  DW_TAG_formal_parameter
      54                      .dwattr $C$DW$5, DW_AT_name("trigger")
      55                      .dwattr $C$DW$5, DW_AT_type(*$C$DW$T$23)
TMS320C2000 Assembler PC v22.6.2 Sat Dec 27 15:00:18 2025

Copyright (c) 1996-2018 Texas Instruments Incorporated
cla.asm                                                              PAGE    2

      56                      .dwattr $C$DW$5, DW_AT_location[DW_OP_reg1]
      57              
      58              
      59              ;***************************************************************
      60              ;* FNAME: CLA_setTriggerSource          FR SIZE:   0           *
      61              ;*                                                             *
      62              ;* FUNCTION ENVIRONMENT                                        *
      63              ;*                                                             *
      64              ;* FUNCTION PROPERTIES                                         *
      65              ;*                            0 Parameter,  0 Auto,  0 SOE     *
      66              ;***************************************************************
      67              
      68              ||CLA_setTriggerSource||:
      69              ;* AR7   assigned to taskNumber
      70              $C$DW$6 .dwtag  DW_TAG_variable
      71                      .dwattr $C$DW$6, DW_AT_name("taskNumber")
      72                      .dwattr $C$DW$6, DW_AT_type(*$C$DW$T$21)
      73                      .dwattr $C$DW$6, DW_AT_location[DW_OP_reg18]
      74              
      75              ;* AR6   assigned to trigger
      76              $C$DW$7 .dwtag  DW_TAG_variable
      77                      .dwattr $C$DW$7, DW_AT_name("trigger")
      78                      .dwattr $C$DW$7, DW_AT_type(*$C$DW$T$24)
      79                      .dwattr $C$DW$7, DW_AT_location[DW_OP_reg16]
      80              
      81              ;* AR4   assigned to srcSelReg
      82              $C$DW$8 .dwtag  DW_TAG_variable
      83                      .dwattr $C$DW$8, DW_AT_name("srcSelReg")
      84                      .dwattr $C$DW$8, DW_AT_type(*$C$DW$T$31)
      85                      .dwattr $C$DW$8, DW_AT_location[DW_OP_reg12]
      86              
      87              ;* PL    assigned to shiftVal
      88              $C$DW$9 .dwtag  DW_TAG_variable
      89                      .dwattr $C$DW$9, DW_AT_name("shiftVal")
      90                      .dwattr $C$DW$9, DW_AT_type(*$C$DW$T$31)
      91                      .dwattr $C$DW$9, DW_AT_location[DW_OP_reg2]
      92              
      93                      .dwcfi  cfa_offset, -2
      94                      .dwcfi  save_reg_to_mem, 26, 0
      95 00000000 80A9          MOVZ      AR7,AL                ; [CPU_ALU] |52| 
      96 00000001 88A8          MOVZ      AR6,AH                ; [CPU_ALU] |52| 
      97 00000002 2901          CLRC      SXM                   ; [CPU_ALU] 
      98                      .dwpsn  file "../src_driver/cla.c",line 59,column 5,is_stmt,isa 0
      99 00000003 9003          ANDB      AL,#3                 ; [CPU_ALU] |59| 
     100 00000004 5603          MOV       ACC,AL << 3           ; [CPU_ALU] |59| 
         00000005 03A9 
     101 00000006 FF5A          MOVL      P,ACC                 ; [CPU_ALU] |59| 
     102 00000007 92A7          MOV       AL,AR7                ; [CPU_ALU] |59| 
     103                      .dwpsn  file "../src_driver/cla.c",line 69,column 9,is_stmt,isa 0
     104 00000008 5203          CMPB      AL,#3                 ; [CPU_ALU] |69| 
     105 00000009 6604          B         ||$C$L1||,HI          ; [CPU_ALU] |69| 
     106                      ; branchcc occurs ; [] |69| 
     107 0000000a 8F00          MOVL      XAR4,#31110           ; [CPU_ARAU] |69| 
         0000000b 7986 
     108 0000000c 6F03          B         ||$C$L2||,UNC         ; [CPU_ALU] |69| 
TMS320C2000 Assembler PC v22.6.2 Sat Dec 27 15:00:18 2025

Copyright (c) 1996-2018 Texas Instruments Incorporated
cla.asm                                                              PAGE    3

     109                      ; branch occurs ; [] |69| 
     110 0000000d       ||$C$L1||:    
     111 0000000d 8F00          MOVL      XAR4,#31112           ; [CPU_ARAU] |69| 
         0000000e 7988 
     112 0000000f       ||$C$L2||:    
     113                      .dwpsn  file "../src_driver/cla.c",line 79,column 5,is_stmt,isa 0
     114 0000000f 7622          EALLOW    ; [CPU_ALU] |79| 
     115                      .dwpsn  file "../src_driver/cla.c",line 84,column 5,is_stmt,isa 0
     116 00000010 2DAB          MOV       T,PL                  ; [CPU_ALU] |84| 
     117 00000011 02FF          MOVB      ACC,#255              ; [CPU_ALU] |84| 
     118 00000012 563B          LSLL      ACC,T                 ; [CPU_ALU] |84| 
     119 00000013 FF55          NOT       ACC                   ; [CPU_ALU] |84| 
     120 00000014 C0C4          AND       *+XAR4[0],AL          ; [CPU_ALU] |84| 
     121 00000015 C1CC          AND       *+XAR4[1],AH          ; [CPU_ALU] |84| 
     122                      .dwpsn  file "../src_driver/cla.c",line 86,column 5,is_stmt,isa 0
     123 00000016 0EA6          MOVU      ACC,AR6               ; [CPU_ALU] |86| 
     124 00000017 563B          LSLL      ACC,T                 ; [CPU_ALU] |86| 
     125 00000018 98C4          OR        *+XAR4[0],AL          ; [CPU_ALU] |86| 
     126 00000019 99CC          OR        *+XAR4[1],AH          ; [CPU_ALU] |86| 
     127                      .dwpsn  file "../src_driver/cla.c",line 88,column 5,is_stmt,isa 0
     128 0000001a 761A          EDIS      ; [CPU_ALU] |88| 
     129              $C$DW$10        .dwtag  DW_TAG_TI_branch
     130                      .dwattr $C$DW$10, DW_AT_low_pc(0x00)
     131                      .dwattr $C$DW$10, DW_AT_TI_return
     132              
     133 0000001b 0006          LRETR     ; [CPU_ALU] 
     134                      ; return occurs ; [] 
     135                      .dwattr $C$DW$3, DW_AT_TI_end_file("../src_driver/cla.c")
     136                      .dwattr $C$DW$3, DW_AT_TI_end_line(0x59)
     137                      .dwattr $C$DW$3, DW_AT_TI_end_column(0x01)
     138                      .dwendentry
     139                      .dwendtag $C$DW$3
     140              
     141              
     142              ;***************************************************************
     143              ;* BUILD ATTRIBUTES                                            *
     144              ;***************************************************************
     145                      .battr "c28xabi", Tag_File, 1, Tag_float_args(0)
     146                      .battr "c28xabi", Tag_File, 1, Tag_double_args(0)
     147                      .dwattr $C$DW$CU, DW_AT_language(DW_LANG_C)
     148              
     149              ;***************************************************************
     150              ;* DWARF CIE ENTRIES                                           *
     151              ;***************************************************************
     152              
     153              $C$DW$CIE       .dwcie 26
     154                      .dwcfi  cfa_register, 20
     155                      .dwcfi  cfa_offset, 0
     156                      .dwcfi  same_value, 28
     157                      .dwcfi  same_value, 6
     158                      .dwcfi  same_value, 7
     159                      .dwcfi  same_value, 8
     160                      .dwcfi  same_value, 9
     161                      .dwcfi  same_value, 10
     162                      .dwcfi  same_value, 11
TMS320C2000 Assembler PC v22.6.2 Sat Dec 27 15:00:18 2025

Copyright (c) 1996-2018 Texas Instruments Incorporated
cla.asm                                                              PAGE    4

     163                      .dwcfi  same_value, 59
     164                      .dwcfi  same_value, 63
     165                      .dwcfi  same_value, 67
     166                      .dwcfi  same_value, 71
     167                      .dwendentry
     168                      .dwendtag $C$DW$CU
     169              
     170              
     171              ;***************************************************************
     172              ;* TYPE INFORMATION                                            *
     173              ;***************************************************************
     174              
     175              $C$DW$TU$19     .dwtag  DW_TAG_type_unit
     176                      .dwmtype  $C$DW$T$19
     177              
     178              $C$DW$T$19      .dwtag  DW_TAG_enumeration_type
     179                      .dwattr $C$DW$T$19, DW_AT_byte_size(0x01)
     180              $C$DW$11        .dwtag  DW_TAG_enumerator
     181                      .dwattr $C$DW$11, DW_AT_name("CLA_TASK_1")
     182                      .dwattr $C$DW$11, DW_AT_const_value(0x00)
     183                      .dwattr $C$DW$11, DW_AT_decl_file("D:/TI/c2000/C2000Ware_MotorControl_SDK_5_04_00_00/c2000ware/driver
     184                      .dwattr $C$DW$11, DW_AT_decl_line(0x6e)
     185                      .dwattr $C$DW$11, DW_AT_decl_column(0x05)
     186              
     187              $C$DW$12        .dwtag  DW_TAG_enumerator
     188                      .dwattr $C$DW$12, DW_AT_name("CLA_TASK_2")
     189                      .dwattr $C$DW$12, DW_AT_const_value(0x01)
     190                      .dwattr $C$DW$12, DW_AT_decl_file("D:/TI/c2000/C2000Ware_MotorControl_SDK_5_04_00_00/c2000ware/driver
     191                      .dwattr $C$DW$12, DW_AT_decl_line(0x6f)
     192                      .dwattr $C$DW$12, DW_AT_decl_column(0x05)
     193              
     194              $C$DW$13        .dwtag  DW_TAG_enumerator
     195                      .dwattr $C$DW$13, DW_AT_name("CLA_TASK_3")
     196                      .dwattr $C$DW$13, DW_AT_const_value(0x02)
     197                      .dwattr $C$DW$13, DW_AT_decl_file("D:/TI/c2000/C2000Ware_MotorControl_SDK_5_04_00_00/c2000ware/driver
     198                      .dwattr $C$DW$13, DW_AT_decl_line(0x70)
     199                      .dwattr $C$DW$13, DW_AT_decl_column(0x05)
     200              
     201              $C$DW$14        .dwtag  DW_TAG_enumerator
     202                      .dwattr $C$DW$14, DW_AT_name("CLA_TASK_4")
     203                      .dwattr $C$DW$14, DW_AT_const_value(0x03)
     204                      .dwattr $C$DW$14, DW_AT_decl_file("D:/TI/c2000/C2000Ware_MotorControl_SDK_5_04_00_00/c2000ware/driver
     205                      .dwattr $C$DW$14, DW_AT_decl_line(0x71)
     206                      .dwattr $C$DW$14, DW_AT_decl_column(0x05)
     207              
     208              $C$DW$15        .dwtag  DW_TAG_enumerator
     209                      .dwattr $C$DW$15, DW_AT_name("CLA_TASK_5")
     210                      .dwattr $C$DW$15, DW_AT_const_value(0x04)
     211                      .dwattr $C$DW$15, DW_AT_decl_file("D:/TI/c2000/C2000Ware_MotorControl_SDK_5_04_00_00/c2000ware/driver
     212                      .dwattr $C$DW$15, DW_AT_decl_line(0x72)
     213                      .dwattr $C$DW$15, DW_AT_decl_column(0x05)
     214              
     215              $C$DW$16        .dwtag  DW_TAG_enumerator
     216                      .dwattr $C$DW$16, DW_AT_name("CLA_TASK_6")
     217                      .dwattr $C$DW$16, DW_AT_const_value(0x05)
TMS320C2000 Assembler PC v22.6.2 Sat Dec 27 15:00:18 2025

Copyright (c) 1996-2018 Texas Instruments Incorporated
cla.asm                                                              PAGE    5

     218                      .dwattr $C$DW$16, DW_AT_decl_file("D:/TI/c2000/C2000Ware_MotorControl_SDK_5_04_00_00/c2000ware/driver
     219                      .dwattr $C$DW$16, DW_AT_decl_line(0x73)
     220                      .dwattr $C$DW$16, DW_AT_decl_column(0x05)
     221              
     222              $C$DW$17        .dwtag  DW_TAG_enumerator
     223                      .dwattr $C$DW$17, DW_AT_name("CLA_TASK_7")
     224                      .dwattr $C$DW$17, DW_AT_const_value(0x06)
     225                      .dwattr $C$DW$17, DW_AT_decl_file("D:/TI/c2000/C2000Ware_MotorControl_SDK_5_04_00_00/c2000ware/driver
     226                      .dwattr $C$DW$17, DW_AT_decl_line(0x74)
     227                      .dwattr $C$DW$17, DW_AT_decl_column(0x05)
     228              
     229              $C$DW$18        .dwtag  DW_TAG_enumerator
     230                      .dwattr $C$DW$18, DW_AT_name("CLA_TASK_8")
     231                      .dwattr $C$DW$18, DW_AT_const_value(0x07)
     232                      .dwattr $C$DW$18, DW_AT_decl_file("D:/TI/c2000/C2000Ware_MotorControl_SDK_5_04_00_00/c2000ware/driver
     233                      .dwattr $C$DW$18, DW_AT_decl_line(0x75)
     234                      .dwattr $C$DW$18, DW_AT_decl_column(0x05)
     235              
     236                      .dwattr $C$DW$T$19, DW_AT_decl_file("D:/TI/c2000/C2000Ware_MotorControl_SDK_5_04_00_00/c2000ware/driv
     237                      .dwattr $C$DW$T$19, DW_AT_decl_line(0x6d)
     238                      .dwattr $C$DW$T$19, DW_AT_decl_column(0x01)
     239                      .dwendtag $C$DW$T$19
     240              
     241                      .dwendtag $C$DW$TU$19
     242              
     243              
     244              $C$DW$TU$20     .dwtag  DW_TAG_type_unit
     245                      .dwmtype  $C$DW$T$20
     246              $C$DW$T$20      .dwtag  DW_TAG_typedef
     247                      .dwattr $C$DW$T$20, DW_AT_name("CLA_TaskNumber")
     248                      .dwattr $C$DW$T$20, DW_AT_type(*$C$DW$T$19)
     249                      .dwattr $C$DW$T$20, DW_AT_decl_file("D:/TI/c2000/C2000Ware_MotorControl_SDK_5_04_00_00/c2000ware/driv
     250                      .dwattr $C$DW$T$20, DW_AT_decl_line(0x76)
     251                      .dwattr $C$DW$T$20, DW_AT_decl_column(0x03)
     252              
     253                      .dwendtag $C$DW$TU$20
     254              
     255              
     256              $C$DW$TU$21     .dwtag  DW_TAG_type_unit
     257                      .dwmtype  $C$DW$T$21
     258              $C$DW$19        .dwtag  DW_TAG_TI_far_type
     259                      .dwattr $C$DW$19, DW_AT_type(*$C$DW$T$20)
     260              
     261              $C$DW$T$21      .dwtag  DW_TAG_const_type
     262                      .dwattr $C$DW$T$21, DW_AT_type(*$C$DW$19)
     263              
     264                      .dwendtag $C$DW$TU$21
     265              
     266              
     267              $C$DW$TU$22     .dwtag  DW_TAG_type_unit
     268                      .dwmtype  $C$DW$T$22
     269              
     270              $C$DW$T$22      .dwtag  DW_TAG_enumeration_type
     271                      .dwattr $C$DW$T$22, DW_AT_byte_size(0x01)
     272              $C$DW$20        .dwtag  DW_TAG_enumerator
TMS320C2000 Assembler PC v22.6.2 Sat Dec 27 15:00:18 2025

Copyright (c) 1996-2018 Texas Instruments Incorporated
cla.asm                                                              PAGE    6

     273                      .dwattr $C$DW$20, DW_AT_name("CLA_TRIGGER_SOFTWARE")
     274                      .dwattr $C$DW$20, DW_AT_const_value(0x00)
     275                      .dwattr $C$DW$20, DW_AT_decl_file("D:/TI/c2000/C2000Ware_MotorControl_SDK_5_04_00_00/c2000ware/driver
     276                      .dwattr $C$DW$20, DW_AT_decl_line(0x93)
     277                      .dwattr $C$DW$20, DW_AT_decl_column(0x05)
     278              
     279              $C$DW$21        .dwtag  DW_TAG_enumerator
     280                      .dwattr $C$DW$21, DW_AT_name("CLA_TRIGGER_ADCA1")
     281                      .dwattr $C$DW$21, DW_AT_const_value(0x01)
     282                      .dwattr $C$DW$21, DW_AT_decl_file("D:/TI/c2000/C2000Ware_MotorControl_SDK_5_04_00_00/c2000ware/driver
     283                      .dwattr $C$DW$21, DW_AT_decl_line(0x95)
     284                      .dwattr $C$DW$21, DW_AT_decl_column(0x05)
     285              
     286              $C$DW$22        .dwtag  DW_TAG_enumerator
     287                      .dwattr $C$DW$22, DW_AT_name("CLA_TRIGGER_ADCA2")
     288                      .dwattr $C$DW$22, DW_AT_const_value(0x02)
     289                      .dwattr $C$DW$22, DW_AT_decl_file("D:/TI/c2000/C2000Ware_MotorControl_SDK_5_04_00_00/c2000ware/driver
     290                      .dwattr $C$DW$22, DW_AT_decl_line(0x96)
     291                      .dwattr $C$DW$22, DW_AT_decl_column(0x05)
     292              
     293              $C$DW$23        .dwtag  DW_TAG_enumerator
     294                      .dwattr $C$DW$23, DW_AT_name("CLA_TRIGGER_ADCA3")
     295                      .dwattr $C$DW$23, DW_AT_const_value(0x03)
     296                      .dwattr $C$DW$23, DW_AT_decl_file("D:/TI/c2000/C2000Ware_MotorControl_SDK_5_04_00_00/c2000ware/driver
     297                      .dwattr $C$DW$23, DW_AT_decl_line(0x97)
     298                      .dwattr $C$DW$23, DW_AT_decl_column(0x05)
     299              
     300              $C$DW$24        .dwtag  DW_TAG_enumerator
     301                      .dwattr $C$DW$24, DW_AT_name("CLA_TRIGGER_ADCA4")
     302                      .dwattr $C$DW$24, DW_AT_const_value(0x04)
     303                      .dwattr $C$DW$24, DW_AT_decl_file("D:/TI/c2000/C2000Ware_MotorControl_SDK_5_04_00_00/c2000ware/driver
     304                      .dwattr $C$DW$24, DW_AT_decl_line(0x98)
     305                      .dwattr $C$DW$24, DW_AT_decl_column(0x05)
     306              
     307              $C$DW$25        .dwtag  DW_TAG_enumerator
     308                      .dwattr $C$DW$25, DW_AT_name("CLA_TRIGGER_ADCAEVT")
     309                      .dwattr $C$DW$25, DW_AT_const_value(0x05)
     310                      .dwattr $C$DW$25, DW_AT_decl_file("D:/TI/c2000/C2000Ware_MotorControl_SDK_5_04_00_00/c2000ware/driver
     311                      .dwattr $C$DW$25, DW_AT_decl_line(0x99)
     312                      .dwattr $C$DW$25, DW_AT_decl_column(0x05)
     313              
     314              $C$DW$26        .dwtag  DW_TAG_enumerator
     315                      .dwattr $C$DW$26, DW_AT_name("CLA_TRIGGER_ADCB1")
     316                      .dwattr $C$DW$26, DW_AT_const_value(0x06)
     317                      .dwattr $C$DW$26, DW_AT_decl_file("D:/TI/c2000/C2000Ware_MotorControl_SDK_5_04_00_00/c2000ware/driver
     318                      .dwattr $C$DW$26, DW_AT_decl_line(0x9a)
     319                      .dwattr $C$DW$26, DW_AT_decl_column(0x05)
     320              
     321              $C$DW$27        .dwtag  DW_TAG_enumerator
     322                      .dwattr $C$DW$27, DW_AT_name("CLA_TRIGGER_ADCB2")
     323                      .dwattr $C$DW$27, DW_AT_const_value(0x07)
     324                      .dwattr $C$DW$27, DW_AT_decl_file("D:/TI/c2000/C2000Ware_MotorControl_SDK_5_04_00_00/c2000ware/driver
     325                      .dwattr $C$DW$27, DW_AT_decl_line(0x9b)
     326                      .dwattr $C$DW$27, DW_AT_decl_column(0x05)
     327              
TMS320C2000 Assembler PC v22.6.2 Sat Dec 27 15:00:18 2025

Copyright (c) 1996-2018 Texas Instruments Incorporated
cla.asm                                                              PAGE    7

     328              $C$DW$28        .dwtag  DW_TAG_enumerator
     329                      .dwattr $C$DW$28, DW_AT_name("CLA_TRIGGER_ADCB3")
     330                      .dwattr $C$DW$28, DW_AT_const_value(0x08)
     331                      .dwattr $C$DW$28, DW_AT_decl_file("D:/TI/c2000/C2000Ware_MotorControl_SDK_5_04_00_00/c2000ware/driver
     332                      .dwattr $C$DW$28, DW_AT_decl_line(0x9c)
     333                      .dwattr $C$DW$28, DW_AT_decl_column(0x05)
     334              
     335              $C$DW$29        .dwtag  DW_TAG_enumerator
     336                      .dwattr $C$DW$29, DW_AT_name("CLA_TRIGGER_ADCB4")
     337                      .dwattr $C$DW$29, DW_AT_const_value(0x09)
     338                      .dwattr $C$DW$29, DW_AT_decl_file("D:/TI/c2000/C2000Ware_MotorControl_SDK_5_04_00_00/c2000ware/driver
     339                      .dwattr $C$DW$29, DW_AT_decl_line(0x9d)
     340                      .dwattr $C$DW$29, DW_AT_decl_column(0x05)
     341              
     342              $C$DW$30        .dwtag  DW_TAG_enumerator
     343                      .dwattr $C$DW$30, DW_AT_name("CLA_TRIGGER_ADCBEVT")
     344                      .dwattr $C$DW$30, DW_AT_const_value(0x0a)
     345                      .dwattr $C$DW$30, DW_AT_decl_file("D:/TI/c2000/C2000Ware_MotorControl_SDK_5_04_00_00/c2000ware/driver
     346                      .dwattr $C$DW$30, DW_AT_decl_line(0x9e)
     347                      .dwattr $C$DW$30, DW_AT_decl_column(0x05)
     348              
     349              $C$DW$31        .dwtag  DW_TAG_enumerator
     350                      .dwattr $C$DW$31, DW_AT_name("CLA_TRIGGER_ADCC1")
     351                      .dwattr $C$DW$31, DW_AT_const_value(0x0b)
     352                      .dwattr $C$DW$31, DW_AT_decl_file("D:/TI/c2000/C2000Ware_MotorControl_SDK_5_04_00_00/c2000ware/driver
     353                      .dwattr $C$DW$31, DW_AT_decl_line(0x9f)
     354                      .dwattr $C$DW$31, DW_AT_decl_column(0x05)
     355              
     356              $C$DW$32        .dwtag  DW_TAG_enumerator
     357                      .dwattr $C$DW$32, DW_AT_name("CLA_TRIGGER_ADCC2")
     358                      .dwattr $C$DW$32, DW_AT_const_value(0x0c)
     359                      .dwattr $C$DW$32, DW_AT_decl_file("D:/TI/c2000/C2000Ware_MotorControl_SDK_5_04_00_00/c2000ware/driver
     360                      .dwattr $C$DW$32, DW_AT_decl_line(0xa0)
     361                      .dwattr $C$DW$32, DW_AT_decl_column(0x05)
     362              
     363              $C$DW$33        .dwtag  DW_TAG_enumerator
     364                      .dwattr $C$DW$33, DW_AT_name("CLA_TRIGGER_ADCC3")
     365                      .dwattr $C$DW$33, DW_AT_const_value(0x0d)
     366                      .dwattr $C$DW$33, DW_AT_decl_file("D:/TI/c2000/C2000Ware_MotorControl_SDK_5_04_00_00/c2000ware/driver
     367                      .dwattr $C$DW$33, DW_AT_decl_line(0xa1)
     368                      .dwattr $C$DW$33, DW_AT_decl_column(0x05)
     369              
     370              $C$DW$34        .dwtag  DW_TAG_enumerator
     371                      .dwattr $C$DW$34, DW_AT_name("CLA_TRIGGER_ADCC4")
     372                      .dwattr $C$DW$34, DW_AT_const_value(0x0e)
     373                      .dwattr $C$DW$34, DW_AT_decl_file("D:/TI/c2000/C2000Ware_MotorControl_SDK_5_04_00_00/c2000ware/driver
     374                      .dwattr $C$DW$34, DW_AT_decl_line(0xa2)
     375                      .dwattr $C$DW$34, DW_AT_decl_column(0x05)
     376              
     377              $C$DW$35        .dwtag  DW_TAG_enumerator
     378                      .dwattr $C$DW$35, DW_AT_name("CLA_TRIGGER_ADCCEVT")
     379                      .dwattr $C$DW$35, DW_AT_const_value(0x0f)
     380                      .dwattr $C$DW$35, DW_AT_decl_file("D:/TI/c2000/C2000Ware_MotorControl_SDK_5_04_00_00/c2000ware/driver
     381                      .dwattr $C$DW$35, DW_AT_decl_line(0xa3)
     382                      .dwattr $C$DW$35, DW_AT_decl_column(0x05)
TMS320C2000 Assembler PC v22.6.2 Sat Dec 27 15:00:18 2025

Copyright (c) 1996-2018 Texas Instruments Incorporated
cla.asm                                                              PAGE    8

     383              
     384              $C$DW$36        .dwtag  DW_TAG_enumerator
     385                      .dwattr $C$DW$36, DW_AT_name("CLA_TRIGGER_ADCD1")
     386                      .dwattr $C$DW$36, DW_AT_const_value(0x10)
     387                      .dwattr $C$DW$36, DW_AT_decl_file("D:/TI/c2000/C2000Ware_MotorControl_SDK_5_04_00_00/c2000ware/driver
     388                      .dwattr $C$DW$36, DW_AT_decl_line(0xa4)
     389                      .dwattr $C$DW$36, DW_AT_decl_column(0x05)
     390              
     391              $C$DW$37        .dwtag  DW_TAG_enumerator
     392                      .dwattr $C$DW$37, DW_AT_name("CLA_TRIGGER_ADCD2")
     393                      .dwattr $C$DW$37, DW_AT_const_value(0x11)
     394                      .dwattr $C$DW$37, DW_AT_decl_file("D:/TI/c2000/C2000Ware_MotorControl_SDK_5_04_00_00/c2000ware/driver
     395                      .dwattr $C$DW$37, DW_AT_decl_line(0xa5)
     396                      .dwattr $C$DW$37, DW_AT_decl_column(0x05)
     397              
     398              $C$DW$38        .dwtag  DW_TAG_enumerator
     399                      .dwattr $C$DW$38, DW_AT_name("CLA_TRIGGER_ADCD3")
     400                      .dwattr $C$DW$38, DW_AT_const_value(0x12)
     401                      .dwattr $C$DW$38, DW_AT_decl_file("D:/TI/c2000/C2000Ware_MotorControl_SDK_5_04_00_00/c2000ware/driver
     402                      .dwattr $C$DW$38, DW_AT_decl_line(0xa6)
     403                      .dwattr $C$DW$38, DW_AT_decl_column(0x05)
     404              
     405              $C$DW$39        .dwtag  DW_TAG_enumerator
     406                      .dwattr $C$DW$39, DW_AT_name("CLA_TRIGGER_ADCD4")
     407                      .dwattr $C$DW$39, DW_AT_const_value(0x13)
     408                      .dwattr $C$DW$39, DW_AT_decl_file("D:/TI/c2000/C2000Ware_MotorControl_SDK_5_04_00_00/c2000ware/driver
     409                      .dwattr $C$DW$39, DW_AT_decl_line(0xa7)
     410                      .dwattr $C$DW$39, DW_AT_decl_column(0x05)
     411              
     412              $C$DW$40        .dwtag  DW_TAG_enumerator
     413                      .dwattr $C$DW$40, DW_AT_name("CLA_TRIGGER_ADCDEVT")
     414                      .dwattr $C$DW$40, DW_AT_const_value(0x14)
     415                      .dwattr $C$DW$40, DW_AT_decl_file("D:/TI/c2000/C2000Ware_MotorControl_SDK_5_04_00_00/c2000ware/driver
     416                      .dwattr $C$DW$40, DW_AT_decl_line(0xa8)
     417                      .dwattr $C$DW$40, DW_AT_decl_column(0x05)
     418              
     419              $C$DW$41        .dwtag  DW_TAG_enumerator
     420                      .dwattr $C$DW$41, DW_AT_name("CLA_TRIGGER_XINT1")
     421                      .dwattr $C$DW$41, DW_AT_const_value(0x1d)
     422                      .dwattr $C$DW$41, DW_AT_decl_file("D:/TI/c2000/C2000Ware_MotorControl_SDK_5_04_00_00/c2000ware/driver
     423                      .dwattr $C$DW$41, DW_AT_decl_line(0xaa)
     424                      .dwattr $C$DW$41, DW_AT_decl_column(0x05)
     425              
     426              $C$DW$42        .dwtag  DW_TAG_enumerator
     427                      .dwattr $C$DW$42, DW_AT_name("CLA_TRIGGER_XINT2")
     428                      .dwattr $C$DW$42, DW_AT_const_value(0x1e)
     429                      .dwattr $C$DW$42, DW_AT_decl_file("D:/TI/c2000/C2000Ware_MotorControl_SDK_5_04_00_00/c2000ware/driver
     430                      .dwattr $C$DW$42, DW_AT_decl_line(0xab)
     431                      .dwattr $C$DW$42, DW_AT_decl_column(0x05)
     432              
     433              $C$DW$43        .dwtag  DW_TAG_enumerator
     434                      .dwattr $C$DW$43, DW_AT_name("CLA_TRIGGER_XINT3")
     435                      .dwattr $C$DW$43, DW_AT_const_value(0x1f)
     436                      .dwattr $C$DW$43, DW_AT_decl_file("D:/TI/c2000/C2000Ware_MotorControl_SDK_5_04_00_00/c2000ware/driver
     437                      .dwattr $C$DW$43, DW_AT_decl_line(0xac)
TMS320C2000 Assembler PC v22.6.2 Sat Dec 27 15:00:18 2025

Copyright (c) 1996-2018 Texas Instruments Incorporated
cla.asm                                                              PAGE    9

     438                      .dwattr $C$DW$43, DW_AT_decl_column(0x05)
     439              
     440              $C$DW$44        .dwtag  DW_TAG_enumerator
     441                      .dwattr $C$DW$44, DW_AT_name("CLA_TRIGGER_XINT4")
     442                      .dwattr $C$DW$44, DW_AT_const_value(0x20)
     443                      .dwattr $C$DW$44, DW_AT_decl_file("D:/TI/c2000/C2000Ware_MotorControl_SDK_5_04_00_00/c2000ware/driver
     444                      .dwattr $C$DW$44, DW_AT_decl_line(0xad)
     445                      .dwattr $C$DW$44, DW_AT_decl_column(0x05)
     446              
     447              $C$DW$45        .dwtag  DW_TAG_enumerator
     448                      .dwattr $C$DW$45, DW_AT_name("CLA_TRIGGER_XINT5")
     449                      .dwattr $C$DW$45, DW_AT_const_value(0x21)
     450                      .dwattr $C$DW$45, DW_AT_decl_file("D:/TI/c2000/C2000Ware_MotorControl_SDK_5_04_00_00/c2000ware/driver
     451                      .dwattr $C$DW$45, DW_AT_decl_line(0xae)
     452                      .dwattr $C$DW$45, DW_AT_decl_column(0x05)
     453              
     454              $C$DW$46        .dwtag  DW_TAG_enumerator
     455                      .dwattr $C$DW$46, DW_AT_name("CLA_TRIGGER_EPWM1INT")
     456                      .dwattr $C$DW$46, DW_AT_const_value(0x24)
     457                      .dwattr $C$DW$46, DW_AT_decl_file("D:/TI/c2000/C2000Ware_MotorControl_SDK_5_04_00_00/c2000ware/driver
     458                      .dwattr $C$DW$46, DW_AT_decl_line(0xb0)
     459                      .dwattr $C$DW$46, DW_AT_decl_column(0x05)
     460              
     461              $C$DW$47        .dwtag  DW_TAG_enumerator
     462                      .dwattr $C$DW$47, DW_AT_name("CLA_TRIGGER_EPWM2INT")
     463                      .dwattr $C$DW$47, DW_AT_const_value(0x25)
     464                      .dwattr $C$DW$47, DW_AT_decl_file("D:/TI/c2000/C2000Ware_MotorControl_SDK_5_04_00_00/c2000ware/driver
     465                      .dwattr $C$DW$47, DW_AT_decl_line(0xb1)
     466                      .dwattr $C$DW$47, DW_AT_decl_column(0x05)
     467              
     468              $C$DW$48        .dwtag  DW_TAG_enumerator
     469                      .dwattr $C$DW$48, DW_AT_name("CLA_TRIGGER_EPWM3INT")
     470                      .dwattr $C$DW$48, DW_AT_const_value(0x26)
     471                      .dwattr $C$DW$48, DW_AT_decl_file("D:/TI/c2000/C2000Ware_MotorControl_SDK_5_04_00_00/c2000ware/driver
     472                      .dwattr $C$DW$48, DW_AT_decl_line(0xb2)
     473                      .dwattr $C$DW$48, DW_AT_decl_column(0x05)
     474              
     475              $C$DW$49        .dwtag  DW_TAG_enumerator
     476                      .dwattr $C$DW$49, DW_AT_name("CLA_TRIGGER_EPWM4INT")
     477                      .dwattr $C$DW$49, DW_AT_const_value(0x27)
     478                      .dwattr $C$DW$49, DW_AT_decl_file("D:/TI/c2000/C2000Ware_MotorControl_SDK_5_04_00_00/c2000ware/driver
     479                      .dwattr $C$DW$49, DW_AT_decl_line(0xb3)
     480                      .dwattr $C$DW$49, DW_AT_decl_column(0x05)
     481              
     482              $C$DW$50        .dwtag  DW_TAG_enumerator
     483                      .dwattr $C$DW$50, DW_AT_name("CLA_TRIGGER_EPWM5INT")
     484                      .dwattr $C$DW$50, DW_AT_const_value(0x28)
     485                      .dwattr $C$DW$50, DW_AT_decl_file("D:/TI/c2000/C2000Ware_MotorControl_SDK_5_04_00_00/c2000ware/driver
     486                      .dwattr $C$DW$50, DW_AT_decl_line(0xb4)
     487                      .dwattr $C$DW$50, DW_AT_decl_column(0x05)
     488              
     489              $C$DW$51        .dwtag  DW_TAG_enumerator
     490                      .dwattr $C$DW$51, DW_AT_name("CLA_TRIGGER_EPWM6INT")
     491                      .dwattr $C$DW$51, DW_AT_const_value(0x29)
     492                      .dwattr $C$DW$51, DW_AT_decl_file("D:/TI/c2000/C2000Ware_MotorControl_SDK_5_04_00_00/c2000ware/driver
TMS320C2000 Assembler PC v22.6.2 Sat Dec 27 15:00:18 2025

Copyright (c) 1996-2018 Texas Instruments Incorporated
cla.asm                                                              PAGE   10

     493                      .dwattr $C$DW$51, DW_AT_decl_line(0xb5)
     494                      .dwattr $C$DW$51, DW_AT_decl_column(0x05)
     495              
     496              $C$DW$52        .dwtag  DW_TAG_enumerator
     497                      .dwattr $C$DW$52, DW_AT_name("CLA_TRIGGER_EPWM7INT")
     498                      .dwattr $C$DW$52, DW_AT_const_value(0x2a)
     499                      .dwattr $C$DW$52, DW_AT_decl_file("D:/TI/c2000/C2000Ware_MotorControl_SDK_5_04_00_00/c2000ware/driver
     500                      .dwattr $C$DW$52, DW_AT_decl_line(0xb6)
     501                      .dwattr $C$DW$52, DW_AT_decl_column(0x05)
     502              
     503              $C$DW$53        .dwtag  DW_TAG_enumerator
     504                      .dwattr $C$DW$53, DW_AT_name("CLA_TRIGGER_EPWM8INT")
     505                      .dwattr $C$DW$53, DW_AT_const_value(0x2b)
     506                      .dwattr $C$DW$53, DW_AT_decl_file("D:/TI/c2000/C2000Ware_MotorControl_SDK_5_04_00_00/c2000ware/driver
     507                      .dwattr $C$DW$53, DW_AT_decl_line(0xb7)
     508                      .dwattr $C$DW$53, DW_AT_decl_column(0x05)
     509              
     510              $C$DW$54        .dwtag  DW_TAG_enumerator
     511                      .dwattr $C$DW$54, DW_AT_name("CLA_TRIGGER_EPWM9INT")
     512                      .dwattr $C$DW$54, DW_AT_const_value(0x2c)
     513                      .dwattr $C$DW$54, DW_AT_decl_file("D:/TI/c2000/C2000Ware_MotorControl_SDK_5_04_00_00/c2000ware/driver
     514                      .dwattr $C$DW$54, DW_AT_decl_line(0xb8)
     515                      .dwattr $C$DW$54, DW_AT_decl_column(0x05)
     516              
     517              $C$DW$55        .dwtag  DW_TAG_enumerator
     518                      .dwattr $C$DW$55, DW_AT_name("CLA_TRIGGER_EPWM10INT")
     519                      .dwattr $C$DW$55, DW_AT_const_value(0x2d)
     520                      .dwattr $C$DW$55, DW_AT_decl_file("D:/TI/c2000/C2000Ware_MotorControl_SDK_5_04_00_00/c2000ware/driver
     521                      .dwattr $C$DW$55, DW_AT_decl_line(0xb9)
     522                      .dwattr $C$DW$55, DW_AT_decl_column(0x05)
     523              
     524              $C$DW$56        .dwtag  DW_TAG_enumerator
     525                      .dwattr $C$DW$56, DW_AT_name("CLA_TRIGGER_EPWM11INT")
     526                      .dwattr $C$DW$56, DW_AT_const_value(0x2e)
     527                      .dwattr $C$DW$56, DW_AT_decl_file("D:/TI/c2000/C2000Ware_MotorControl_SDK_5_04_00_00/c2000ware/driver
     528                      .dwattr $C$DW$56, DW_AT_decl_line(0xba)
     529                      .dwattr $C$DW$56, DW_AT_decl_column(0x05)
     530              
     531              $C$DW$57        .dwtag  DW_TAG_enumerator
     532                      .dwattr $C$DW$57, DW_AT_name("CLA_TRIGGER_EPWM12INT")
     533                      .dwattr $C$DW$57, DW_AT_const_value(0x2f)
     534                      .dwattr $C$DW$57, DW_AT_decl_file("D:/TI/c2000/C2000Ware_MotorControl_SDK_5_04_00_00/c2000ware/driver
     535                      .dwattr $C$DW$57, DW_AT_decl_line(0xbb)
     536                      .dwattr $C$DW$57, DW_AT_decl_column(0x05)
     537              
     538              $C$DW$58        .dwtag  DW_TAG_enumerator
     539                      .dwattr $C$DW$58, DW_AT_name("CLA_TRIGGER_TINT0")
     540                      .dwattr $C$DW$58, DW_AT_const_value(0x44)
     541                      .dwattr $C$DW$58, DW_AT_decl_file("D:/TI/c2000/C2000Ware_MotorControl_SDK_5_04_00_00/c2000ware/driver
     542                      .dwattr $C$DW$58, DW_AT_decl_line(0xbe)
     543                      .dwattr $C$DW$58, DW_AT_decl_column(0x05)
     544              
     545              $C$DW$59        .dwtag  DW_TAG_enumerator
     546                      .dwattr $C$DW$59, DW_AT_name("CLA_TRIGGER_TINT1")
     547                      .dwattr $C$DW$59, DW_AT_const_value(0x45)
TMS320C2000 Assembler PC v22.6.2 Sat Dec 27 15:00:18 2025

Copyright (c) 1996-2018 Texas Instruments Incorporated
cla.asm                                                              PAGE   11

     548                      .dwattr $C$DW$59, DW_AT_decl_file("D:/TI/c2000/C2000Ware_MotorControl_SDK_5_04_00_00/c2000ware/driver
     549                      .dwattr $C$DW$59, DW_AT_decl_line(0xbf)
     550                      .dwattr $C$DW$59, DW_AT_decl_column(0x05)
     551              
     552              $C$DW$60        .dwtag  DW_TAG_enumerator
     553                      .dwattr $C$DW$60, DW_AT_name("CLA_TRIGGER_TINT2")
     554                      .dwattr $C$DW$60, DW_AT_const_value(0x46)
     555                      .dwattr $C$DW$60, DW_AT_decl_file("D:/TI/c2000/C2000Ware_MotorControl_SDK_5_04_00_00/c2000ware/driver
     556                      .dwattr $C$DW$60, DW_AT_decl_line(0xc0)
     557                      .dwattr $C$DW$60, DW_AT_decl_column(0x05)
     558              
     559              $C$DW$61        .dwtag  DW_TAG_enumerator
     560                      .dwattr $C$DW$61, DW_AT_name("CLA_TRIGGER_MXINTA")
     561                      .dwattr $C$DW$61, DW_AT_const_value(0x47)
     562                      .dwattr $C$DW$61, DW_AT_decl_file("D:/TI/c2000/C2000Ware_MotorControl_SDK_5_04_00_00/c2000ware/driver
     563                      .dwattr $C$DW$61, DW_AT_decl_line(0xc2)
     564                      .dwattr $C$DW$61, DW_AT_decl_column(0x05)
     565              
     566              $C$DW$62        .dwtag  DW_TAG_enumerator
     567                      .dwattr $C$DW$62, DW_AT_name("CLA_TRIGGER_MRINTA")
     568                      .dwattr $C$DW$62, DW_AT_const_value(0x48)
     569                      .dwattr $C$DW$62, DW_AT_decl_file("D:/TI/c2000/C2000Ware_MotorControl_SDK_5_04_00_00/c2000ware/driver
     570                      .dwattr $C$DW$62, DW_AT_decl_line(0xc3)
     571                      .dwattr $C$DW$62, DW_AT_decl_column(0x05)
     572              
     573              $C$DW$63        .dwtag  DW_TAG_enumerator
     574                      .dwattr $C$DW$63, DW_AT_name("CLA_TRIGGER_MXINTB")
     575                      .dwattr $C$DW$63, DW_AT_const_value(0x49)
     576                      .dwattr $C$DW$63, DW_AT_decl_file("D:/TI/c2000/C2000Ware_MotorControl_SDK_5_04_00_00/c2000ware/driver
     577                      .dwattr $C$DW$63, DW_AT_decl_line(0xc4)
     578                      .dwattr $C$DW$63, DW_AT_decl_column(0x05)
     579              
     580              $C$DW$64        .dwtag  DW_TAG_enumerator
     581                      .dwattr $C$DW$64, DW_AT_name("CLA_TRIGGER_MRINTB")
     582                      .dwattr $C$DW$64, DW_AT_const_value(0x4a)
     583                      .dwattr $C$DW$64, DW_AT_decl_file("D:/TI/c2000/C2000Ware_MotorControl_SDK_5_04_00_00/c2000ware/driver
     584                      .dwattr $C$DW$64, DW_AT_decl_line(0xc5)
     585                      .dwattr $C$DW$64, DW_AT_decl_column(0x05)
     586              
     587              $C$DW$65        .dwtag  DW_TAG_enumerator
     588                      .dwattr $C$DW$65, DW_AT_name("CLA_TRIGGER_ECAP1INT")
     589                      .dwattr $C$DW$65, DW_AT_const_value(0x4b)
     590                      .dwattr $C$DW$65, DW_AT_decl_file("D:/TI/c2000/C2000Ware_MotorControl_SDK_5_04_00_00/c2000ware/driver
     591                      .dwattr $C$DW$65, DW_AT_decl_line(0xc7)
     592                      .dwattr $C$DW$65, DW_AT_decl_column(0x05)
     593              
     594              $C$DW$66        .dwtag  DW_TAG_enumerator
     595                      .dwattr $C$DW$66, DW_AT_name("CLA_TRIGGER_ECAP2INT")
     596                      .dwattr $C$DW$66, DW_AT_const_value(0x4c)
     597                      .dwattr $C$DW$66, DW_AT_decl_file("D:/TI/c2000/C2000Ware_MotorControl_SDK_5_04_00_00/c2000ware/driver
     598                      .dwattr $C$DW$66, DW_AT_decl_line(0xc8)
     599                      .dwattr $C$DW$66, DW_AT_decl_column(0x05)
     600              
     601              $C$DW$67        .dwtag  DW_TAG_enumerator
     602                      .dwattr $C$DW$67, DW_AT_name("CLA_TRIGGER_ECAP3INT")
TMS320C2000 Assembler PC v22.6.2 Sat Dec 27 15:00:18 2025

Copyright (c) 1996-2018 Texas Instruments Incorporated
cla.asm                                                              PAGE   12

     603                      .dwattr $C$DW$67, DW_AT_const_value(0x4d)
     604                      .dwattr $C$DW$67, DW_AT_decl_file("D:/TI/c2000/C2000Ware_MotorControl_SDK_5_04_00_00/c2000ware/driver
     605                      .dwattr $C$DW$67, DW_AT_decl_line(0xc9)
     606                      .dwattr $C$DW$67, DW_AT_decl_column(0x05)
     607              
     608              $C$DW$68        .dwtag  DW_TAG_enumerator
     609                      .dwattr $C$DW$68, DW_AT_name("CLA_TRIGGER_ECAP4INT")
     610                      .dwattr $C$DW$68, DW_AT_const_value(0x4e)
     611                      .dwattr $C$DW$68, DW_AT_decl_file("D:/TI/c2000/C2000Ware_MotorControl_SDK_5_04_00_00/c2000ware/driver
     612                      .dwattr $C$DW$68, DW_AT_decl_line(0xca)
     613                      .dwattr $C$DW$68, DW_AT_decl_column(0x05)
     614              
     615              $C$DW$69        .dwtag  DW_TAG_enumerator
     616                      .dwattr $C$DW$69, DW_AT_name("CLA_TRIGGER_ECAP5INT")
     617                      .dwattr $C$DW$69, DW_AT_const_value(0x4f)
     618                      .dwattr $C$DW$69, DW_AT_decl_file("D:/TI/c2000/C2000Ware_MotorControl_SDK_5_04_00_00/c2000ware/driver
     619                      .dwattr $C$DW$69, DW_AT_decl_line(0xcb)
     620                      .dwattr $C$DW$69, DW_AT_decl_column(0x05)
     621              
     622              $C$DW$70        .dwtag  DW_TAG_enumerator
     623                      .dwattr $C$DW$70, DW_AT_name("CLA_TRIGGER_ECAP6INT")
     624                      .dwattr $C$DW$70, DW_AT_const_value(0x50)
     625                      .dwattr $C$DW$70, DW_AT_decl_file("D:/TI/c2000/C2000Ware_MotorControl_SDK_5_04_00_00/c2000ware/driver
     626                      .dwattr $C$DW$70, DW_AT_decl_line(0xcc)
     627                      .dwattr $C$DW$70, DW_AT_decl_column(0x05)
     628              
     629              $C$DW$71        .dwtag  DW_TAG_enumerator
     630                      .dwattr $C$DW$71, DW_AT_name("CLA_TRIGGER_EQEP1INT")
     631                      .dwattr $C$DW$71, DW_AT_const_value(0x53)
     632                      .dwattr $C$DW$71, DW_AT_decl_file("D:/TI/c2000/C2000Ware_MotorControl_SDK_5_04_00_00/c2000ware/driver
     633                      .dwattr $C$DW$71, DW_AT_decl_line(0xce)
     634                      .dwattr $C$DW$71, DW_AT_decl_column(0x05)
     635              
     636              $C$DW$72        .dwtag  DW_TAG_enumerator
     637                      .dwattr $C$DW$72, DW_AT_name("CLA_TRIGGER_EQEP2INT")
     638                      .dwattr $C$DW$72, DW_AT_const_value(0x54)
     639                      .dwattr $C$DW$72, DW_AT_decl_file("D:/TI/c2000/C2000Ware_MotorControl_SDK_5_04_00_00/c2000ware/driver
     640                      .dwattr $C$DW$72, DW_AT_decl_line(0xcf)
     641                      .dwattr $C$DW$72, DW_AT_decl_column(0x05)
     642              
     643              $C$DW$73        .dwtag  DW_TAG_enumerator
     644                      .dwattr $C$DW$73, DW_AT_name("CLA_TRIGGER_EQEP3INT")
     645                      .dwattr $C$DW$73, DW_AT_const_value(0x55)
     646                      .dwattr $C$DW$73, DW_AT_decl_file("D:/TI/c2000/C2000Ware_MotorControl_SDK_5_04_00_00/c2000ware/driver
     647                      .dwattr $C$DW$73, DW_AT_decl_line(0xd0)
     648                      .dwattr $C$DW$73, DW_AT_decl_column(0x05)
     649              
     650              $C$DW$74        .dwtag  DW_TAG_enumerator
     651                      .dwattr $C$DW$74, DW_AT_name("CLA_TRIGGER_SDFM1INT")
     652                      .dwattr $C$DW$74, DW_AT_const_value(0x5f)
     653                      .dwattr $C$DW$74, DW_AT_decl_file("D:/TI/c2000/C2000Ware_MotorControl_SDK_5_04_00_00/c2000ware/driver
     654                      .dwattr $C$DW$74, DW_AT_decl_line(0xd3)
     655                      .dwattr $C$DW$74, DW_AT_decl_column(0x05)
     656              
     657              $C$DW$75        .dwtag  DW_TAG_enumerator
TMS320C2000 Assembler PC v22.6.2 Sat Dec 27 15:00:18 2025

Copyright (c) 1996-2018 Texas Instruments Incorporated
cla.asm                                                              PAGE   13

     658                      .dwattr $C$DW$75, DW_AT_name("CLA_TRIGGER_SDFM2INT")
     659                      .dwattr $C$DW$75, DW_AT_const_value(0x60)
     660                      .dwattr $C$DW$75, DW_AT_decl_file("D:/TI/c2000/C2000Ware_MotorControl_SDK_5_04_00_00/c2000ware/driver
     661                      .dwattr $C$DW$75, DW_AT_decl_line(0xd4)
     662                      .dwattr $C$DW$75, DW_AT_decl_column(0x05)
     663              
     664              $C$DW$76        .dwtag  DW_TAG_enumerator
     665                      .dwattr $C$DW$76, DW_AT_name("CLA_TRIGGER_UPP1INT")
     666                      .dwattr $C$DW$76, DW_AT_const_value(0x6b)
     667                      .dwattr $C$DW$76, DW_AT_decl_file("D:/TI/c2000/C2000Ware_MotorControl_SDK_5_04_00_00/c2000ware/driver
     668                      .dwattr $C$DW$76, DW_AT_decl_line(0xd8)
     669                      .dwattr $C$DW$76, DW_AT_decl_column(0x05)
     670              
     671              $C$DW$77        .dwtag  DW_TAG_enumerator
     672                      .dwattr $C$DW$77, DW_AT_name("CLA_TRIGGER_SPITXAINT")
     673                      .dwattr $C$DW$77, DW_AT_const_value(0x6d)
     674                      .dwattr $C$DW$77, DW_AT_decl_file("D:/TI/c2000/C2000Ware_MotorControl_SDK_5_04_00_00/c2000ware/driver
     675                      .dwattr $C$DW$77, DW_AT_decl_line(0xda)
     676                      .dwattr $C$DW$77, DW_AT_decl_column(0x05)
     677              
     678              $C$DW$78        .dwtag  DW_TAG_enumerator
     679                      .dwattr $C$DW$78, DW_AT_name("CLA_TRIGGER_SPIRXAINT")
     680                      .dwattr $C$DW$78, DW_AT_const_value(0x6e)
     681                      .dwattr $C$DW$78, DW_AT_decl_file("D:/TI/c2000/C2000Ware_MotorControl_SDK_5_04_00_00/c2000ware/driver
     682                      .dwattr $C$DW$78, DW_AT_decl_line(0xdb)
     683                      .dwattr $C$DW$78, DW_AT_decl_column(0x05)
     684              
     685              $C$DW$79        .dwtag  DW_TAG_enumerator
     686                      .dwattr $C$DW$79, DW_AT_name("CLA_TRIGGER_SPITXBINT")
     687                      .dwattr $C$DW$79, DW_AT_const_value(0x6f)
     688                      .dwattr $C$DW$79, DW_AT_decl_file("D:/TI/c2000/C2000Ware_MotorControl_SDK_5_04_00_00/c2000ware/driver
     689                      .dwattr $C$DW$79, DW_AT_decl_line(0xdc)
     690                      .dwattr $C$DW$79, DW_AT_decl_column(0x05)
     691              
     692              $C$DW$80        .dwtag  DW_TAG_enumerator
     693                      .dwattr $C$DW$80, DW_AT_name("CLA_TRIGGER_SPIRXBINT")
     694                      .dwattr $C$DW$80, DW_AT_const_value(0x70)
     695                      .dwattr $C$DW$80, DW_AT_decl_file("D:/TI/c2000/C2000Ware_MotorControl_SDK_5_04_00_00/c2000ware/driver
     696                      .dwattr $C$DW$80, DW_AT_decl_line(0xdd)
     697                      .dwattr $C$DW$80, DW_AT_decl_column(0x05)
     698              
     699              $C$DW$81        .dwtag  DW_TAG_enumerator
     700                      .dwattr $C$DW$81, DW_AT_name("CLA_TRIGGER_SPITXCINT")
     701                      .dwattr $C$DW$81, DW_AT_const_value(0x71)
     702                      .dwattr $C$DW$81, DW_AT_decl_file("D:/TI/c2000/C2000Ware_MotorControl_SDK_5_04_00_00/c2000ware/driver
     703                      .dwattr $C$DW$81, DW_AT_decl_line(0xde)
     704                      .dwattr $C$DW$81, DW_AT_decl_column(0x05)
     705              
     706              $C$DW$82        .dwtag  DW_TAG_enumerator
     707                      .dwattr $C$DW$82, DW_AT_name("CLA_TRIGGER_SPIRXCINT")
     708                      .dwattr $C$DW$82, DW_AT_const_value(0x72)
     709                      .dwattr $C$DW$82, DW_AT_decl_file("D:/TI/c2000/C2000Ware_MotorControl_SDK_5_04_00_00/c2000ware/driver
     710                      .dwattr $C$DW$82, DW_AT_decl_line(0xdf)
     711                      .dwattr $C$DW$82, DW_AT_decl_column(0x05)
     712              
TMS320C2000 Assembler PC v22.6.2 Sat Dec 27 15:00:18 2025

Copyright (c) 1996-2018 Texas Instruments Incorporated
cla.asm                                                              PAGE   14

     713              $C$DW$83        .dwtag  DW_TAG_enumerator
     714                      .dwattr $C$DW$83, DW_AT_name("CLA_TRIGGER_CLB1INT")
     715                      .dwattr $C$DW$83, DW_AT_const_value(0x7f)
     716                      .dwattr $C$DW$83, DW_AT_decl_file("D:/TI/c2000/C2000Ware_MotorControl_SDK_5_04_00_00/c2000ware/driver
     717                      .dwattr $C$DW$83, DW_AT_decl_line(0xe5)
     718                      .dwattr $C$DW$83, DW_AT_decl_column(0x05)
     719              
     720              $C$DW$84        .dwtag  DW_TAG_enumerator
     721                      .dwattr $C$DW$84, DW_AT_name("CLA_TRIGGER_CLB2INT")
     722                      .dwattr $C$DW$84, DW_AT_const_value(0x80)
     723                      .dwattr $C$DW$84, DW_AT_decl_file("D:/TI/c2000/C2000Ware_MotorControl_SDK_5_04_00_00/c2000ware/driver
     724                      .dwattr $C$DW$84, DW_AT_decl_line(0xe6)
     725                      .dwattr $C$DW$84, DW_AT_decl_column(0x05)
     726              
     727              $C$DW$85        .dwtag  DW_TAG_enumerator
     728                      .dwattr $C$DW$85, DW_AT_name("CLA_TRIGGER_CLB3INT")
     729                      .dwattr $C$DW$85, DW_AT_const_value(0x81)
     730                      .dwattr $C$DW$85, DW_AT_decl_file("D:/TI/c2000/C2000Ware_MotorControl_SDK_5_04_00_00/c2000ware/driver
     731                      .dwattr $C$DW$85, DW_AT_decl_line(0xe7)
     732                      .dwattr $C$DW$85, DW_AT_decl_column(0x05)
     733              
     734              $C$DW$86        .dwtag  DW_TAG_enumerator
     735                      .dwattr $C$DW$86, DW_AT_name("CLA_TRIGGER_CLB4INT")
     736                      .dwattr $C$DW$86, DW_AT_const_value(0x82)
     737                      .dwattr $C$DW$86, DW_AT_decl_file("D:/TI/c2000/C2000Ware_MotorControl_SDK_5_04_00_00/c2000ware/driver
     738                      .dwattr $C$DW$86, DW_AT_decl_line(0xe8)
     739                      .dwattr $C$DW$86, DW_AT_decl_column(0x05)
     740              
     741                      .dwattr $C$DW$T$22, DW_AT_decl_file("D:/TI/c2000/C2000Ware_MotorControl_SDK_5_04_00_00/c2000ware/driv
     742                      .dwattr $C$DW$T$22, DW_AT_decl_line(0x92)
     743                      .dwattr $C$DW$T$22, DW_AT_decl_column(0x01)
     744                      .dwendtag $C$DW$T$22
     745              
     746                      .dwendtag $C$DW$TU$22
     747              
     748              
     749              $C$DW$TU$23     .dwtag  DW_TAG_type_unit
     750                      .dwmtype  $C$DW$T$23
     751              $C$DW$T$23      .dwtag  DW_TAG_typedef
     752                      .dwattr $C$DW$T$23, DW_AT_name("CLA_Trigger")
     753                      .dwattr $C$DW$T$23, DW_AT_type(*$C$DW$T$22)
     754                      .dwattr $C$DW$T$23, DW_AT_decl_file("D:/TI/c2000/C2000Ware_MotorControl_SDK_5_04_00_00/c2000ware/driv
     755                      .dwattr $C$DW$T$23, DW_AT_decl_line(0xea)
     756                      .dwattr $C$DW$T$23, DW_AT_decl_column(0x03)
     757              
     758                      .dwendtag $C$DW$TU$23
     759              
     760              
     761              $C$DW$TU$24     .dwtag  DW_TAG_type_unit
     762                      .dwmtype  $C$DW$T$24
     763              $C$DW$87        .dwtag  DW_TAG_TI_far_type
     764                      .dwattr $C$DW$87, DW_AT_type(*$C$DW$T$23)
     765              
     766              $C$DW$T$24      .dwtag  DW_TAG_const_type
     767                      .dwattr $C$DW$T$24, DW_AT_type(*$C$DW$87)
TMS320C2000 Assembler PC v22.6.2 Sat Dec 27 15:00:18 2025

Copyright (c) 1996-2018 Texas Instruments Incorporated
cla.asm                                                              PAGE   15

     768              
     769                      .dwendtag $C$DW$TU$24
     770              
     771              
     772              $C$DW$TU$2      .dwtag  DW_TAG_type_unit
     773                      .dwmtype  $C$DW$T$2
     774              $C$DW$T$2       .dwtag  DW_TAG_unspecified_type
     775                      .dwattr $C$DW$T$2, DW_AT_name("void")
     776              
     777                      .dwendtag $C$DW$TU$2
     778              
     779              
     780              $C$DW$TU$4      .dwtag  DW_TAG_type_unit
     781                      .dwmtype  $C$DW$T$4
     782              $C$DW$T$4       .dwtag  DW_TAG_base_type
     783                      .dwattr $C$DW$T$4, DW_AT_encoding(DW_ATE_boolean)
     784                      .dwattr $C$DW$T$4, DW_AT_name("bool")
     785                      .dwattr $C$DW$T$4, DW_AT_byte_size(0x01)
     786              
     787                      .dwendtag $C$DW$TU$4
     788              
     789              
     790              $C$DW$TU$5      .dwtag  DW_TAG_type_unit
     791                      .dwmtype  $C$DW$T$5
     792              $C$DW$T$5       .dwtag  DW_TAG_base_type
     793                      .dwattr $C$DW$T$5, DW_AT_encoding(DW_ATE_signed_char)
     794                      .dwattr $C$DW$T$5, DW_AT_name("signed char")
     795                      .dwattr $C$DW$T$5, DW_AT_byte_size(0x01)
     796              
     797                      .dwendtag $C$DW$TU$5
     798              
     799              
     800              $C$DW$TU$6      .dwtag  DW_TAG_type_unit
     801                      .dwmtype  $C$DW$T$6
     802              $C$DW$T$6       .dwtag  DW_TAG_base_type
     803                      .dwattr $C$DW$T$6, DW_AT_encoding(DW_ATE_unsigned_char)
     804                      .dwattr $C$DW$T$6, DW_AT_name("unsigned char")
     805                      .dwattr $C$DW$T$6, DW_AT_byte_size(0x01)
     806              
     807                      .dwendtag $C$DW$TU$6
     808              
     809              
     810              $C$DW$TU$7      .dwtag  DW_TAG_type_unit
     811                      .dwmtype  $C$DW$T$7
     812              $C$DW$T$7       .dwtag  DW_TAG_base_type
     813                      .dwattr $C$DW$T$7, DW_AT_encoding(DW_ATE_signed_char)
     814                      .dwattr $C$DW$T$7, DW_AT_name("wchar_t")
     815                      .dwattr $C$DW$T$7, DW_AT_byte_size(0x02)
     816              
     817                      .dwendtag $C$DW$TU$7
     818              
     819              
     820              $C$DW$TU$8      .dwtag  DW_TAG_type_unit
     821                      .dwmtype  $C$DW$T$8
     822              $C$DW$T$8       .dwtag  DW_TAG_base_type
TMS320C2000 Assembler PC v22.6.2 Sat Dec 27 15:00:18 2025

Copyright (c) 1996-2018 Texas Instruments Incorporated
cla.asm                                                              PAGE   16

     823                      .dwattr $C$DW$T$8, DW_AT_encoding(DW_ATE_signed)
     824                      .dwattr $C$DW$T$8, DW_AT_name("short")
     825                      .dwattr $C$DW$T$8, DW_AT_byte_size(0x01)
     826              
     827                      .dwendtag $C$DW$TU$8
     828              
     829              
     830              $C$DW$TU$9      .dwtag  DW_TAG_type_unit
     831                      .dwmtype  $C$DW$T$9
     832              $C$DW$T$9       .dwtag  DW_TAG_base_type
     833                      .dwattr $C$DW$T$9, DW_AT_encoding(DW_ATE_unsigned)
     834                      .dwattr $C$DW$T$9, DW_AT_name("unsigned short")
     835                      .dwattr $C$DW$T$9, DW_AT_byte_size(0x01)
     836              
     837                      .dwendtag $C$DW$TU$9
     838              
     839              
     840              $C$DW$TU$10     .dwtag  DW_TAG_type_unit
     841                      .dwmtype  $C$DW$T$10
     842              $C$DW$T$10      .dwtag  DW_TAG_base_type
     843                      .dwattr $C$DW$T$10, DW_AT_encoding(DW_ATE_signed)
     844                      .dwattr $C$DW$T$10, DW_AT_name("int")
     845                      .dwattr $C$DW$T$10, DW_AT_byte_size(0x01)
     846              
     847                      .dwendtag $C$DW$TU$10
     848              
     849              
     850              $C$DW$TU$11     .dwtag  DW_TAG_type_unit
     851                      .dwmtype  $C$DW$T$11
     852              $C$DW$T$11      .dwtag  DW_TAG_base_type
     853                      .dwattr $C$DW$T$11, DW_AT_encoding(DW_ATE_unsigned)
     854                      .dwattr $C$DW$T$11, DW_AT_name("unsigned int")
     855                      .dwattr $C$DW$T$11, DW_AT_byte_size(0x01)
     856              
     857                      .dwendtag $C$DW$TU$11
     858              
     859              
     860              $C$DW$TU$12     .dwtag  DW_TAG_type_unit
     861                      .dwmtype  $C$DW$T$12
     862              $C$DW$T$12      .dwtag  DW_TAG_base_type
     863                      .dwattr $C$DW$T$12, DW_AT_encoding(DW_ATE_signed)
     864                      .dwattr $C$DW$T$12, DW_AT_name("long")
     865                      .dwattr $C$DW$T$12, DW_AT_byte_size(0x02)
     866              
     867                      .dwendtag $C$DW$TU$12
     868              
     869              
     870              $C$DW$TU$13     .dwtag  DW_TAG_type_unit
     871                      .dwmtype  $C$DW$T$13
     872              $C$DW$T$13      .dwtag  DW_TAG_base_type
     873                      .dwattr $C$DW$T$13, DW_AT_encoding(DW_ATE_unsigned)
     874                      .dwattr $C$DW$T$13, DW_AT_name("unsigned long")
     875                      .dwattr $C$DW$T$13, DW_AT_byte_size(0x02)
     876              
     877                      .dwendtag $C$DW$TU$13
TMS320C2000 Assembler PC v22.6.2 Sat Dec 27 15:00:18 2025

Copyright (c) 1996-2018 Texas Instruments Incorporated
cla.asm                                                              PAGE   17

     878              
     879              
     880              $C$DW$TU$30     .dwtag  DW_TAG_type_unit
     881                      .dwmtype  $C$DW$T$30
     882              $C$DW$T$30      .dwtag  DW_TAG_typedef
     883                      .dwattr $C$DW$T$30, DW_AT_name("__uint32_t")
     884                      .dwattr $C$DW$T$30, DW_AT_type(*$C$DW$T$13)
     885                      .dwattr $C$DW$T$30, DW_AT_decl_file("D:/TI/ccs/tools/compiler/ti-cgt-c2000_22.6.2.LTS/include/machine
     886                      .dwattr $C$DW$T$30, DW_AT_decl_line(0x43)
     887                      .dwattr $C$DW$T$30, DW_AT_decl_column(0x1c)
     888              
     889                      .dwendtag $C$DW$TU$30
     890              
     891              
     892              $C$DW$TU$31     .dwtag  DW_TAG_type_unit
     893                      .dwmtype  $C$DW$T$31
     894              $C$DW$T$31      .dwtag  DW_TAG_typedef
     895                      .dwattr $C$DW$T$31, DW_AT_name("uint32_t")
     896                      .dwattr $C$DW$T$31, DW_AT_type(*$C$DW$T$30)
     897                      .dwattr $C$DW$T$31, DW_AT_decl_file("D:/TI/ccs/tools/compiler/ti-cgt-c2000_22.6.2.LTS/include/sys/_st
     898                      .dwattr $C$DW$T$31, DW_AT_decl_line(0x46)
     899                      .dwattr $C$DW$T$31, DW_AT_decl_column(0x15)
     900              
     901                      .dwendtag $C$DW$TU$31
     902              
     903              
     904              $C$DW$TU$14     .dwtag  DW_TAG_type_unit
     905                      .dwmtype  $C$DW$T$14
     906              $C$DW$T$14      .dwtag  DW_TAG_base_type
     907                      .dwattr $C$DW$T$14, DW_AT_encoding(DW_ATE_signed)
     908                      .dwattr $C$DW$T$14, DW_AT_name("long long")
     909                      .dwattr $C$DW$T$14, DW_AT_byte_size(0x04)
     910              
     911                      .dwendtag $C$DW$TU$14
     912              
     913              
     914              $C$DW$TU$15     .dwtag  DW_TAG_type_unit
     915                      .dwmtype  $C$DW$T$15
     916              $C$DW$T$15      .dwtag  DW_TAG_base_type
     917                      .dwattr $C$DW$T$15, DW_AT_encoding(DW_ATE_unsigned)
     918                      .dwattr $C$DW$T$15, DW_AT_name("unsigned long long")
     919                      .dwattr $C$DW$T$15, DW_AT_byte_size(0x04)
     920              
     921                      .dwendtag $C$DW$TU$15
     922              
     923              
     924              $C$DW$TU$16     .dwtag  DW_TAG_type_unit
     925                      .dwmtype  $C$DW$T$16
     926              $C$DW$T$16      .dwtag  DW_TAG_base_type
     927                      .dwattr $C$DW$T$16, DW_AT_encoding(DW_ATE_float)
     928                      .dwattr $C$DW$T$16, DW_AT_name("float")
     929                      .dwattr $C$DW$T$16, DW_AT_byte_size(0x02)
     930              
     931                      .dwendtag $C$DW$TU$16
     932              
TMS320C2000 Assembler PC v22.6.2 Sat Dec 27 15:00:18 2025

Copyright (c) 1996-2018 Texas Instruments Incorporated
cla.asm                                                              PAGE   18

     933              
     934              $C$DW$TU$17     .dwtag  DW_TAG_type_unit
     935                      .dwmtype  $C$DW$T$17
     936              $C$DW$T$17      .dwtag  DW_TAG_base_type
     937                      .dwattr $C$DW$T$17, DW_AT_encoding(DW_ATE_float)
     938                      .dwattr $C$DW$T$17, DW_AT_name("double")
     939                      .dwattr $C$DW$T$17, DW_AT_byte_size(0x04)
     940              
     941                      .dwendtag $C$DW$TU$17
     942              
     943              
     944              $C$DW$TU$18     .dwtag  DW_TAG_type_unit
     945                      .dwmtype  $C$DW$T$18
     946              $C$DW$T$18      .dwtag  DW_TAG_base_type
     947                      .dwattr $C$DW$T$18, DW_AT_encoding(DW_ATE_float)
     948                      .dwattr $C$DW$T$18, DW_AT_name("long double")
     949                      .dwattr $C$DW$T$18, DW_AT_byte_size(0x04)
     950              
     951                      .dwendtag $C$DW$TU$18
     952              

No Assembly Errors, No Assembly Warnings
